   1              		.syntax unified
   2              		.cpu cortex-m3
   3              		.fpu softvfp
   4              		.eabi_attribute 20, 1
   5              		.eabi_attribute 21, 1
   6              		.eabi_attribute 23, 3
   7              		.eabi_attribute 24, 1
   8              		.eabi_attribute 25, 1
   9              		.eabi_attribute 26, 1
  10              		.eabi_attribute 30, 6
  11              		.eabi_attribute 18, 4
  12              		.thumb
  13              		.file	"stm32f2xx_it.c"
  14              		.text
  15              	.Ltext0:
  16              		.cfi_sections	.debug_frame
  17              		.comm	ADCConvertedValue,4,4
  18              		.bss
  19              		.align	2
  20              	rbuf:
  21 0000 00000000 		.space	264
  21      00000000 
  21      00000000 
  21      00000000 
  21      00000000 
  22              		.align	2
  23              	tbuf:
  24 0108 00000000 		.space	264
  24      00000000 
  24      00000000 
  24      00000000 
  24      00000000 
  25              		.data
  26              		.align	2
  29              	tx_restart:
  30 0000 01000000 		.word	1
  31              		.text
  32              		.align	2
  33              		.global	NMI_Handler
  34              		.thumb
  35              		.thumb_func
  37              	NMI_Handler:
  38              	.LFB29:
  39              		.file 1 "../sources/stm32f2xx_it.c"
   1:../sources/stm32f2xx_it.c **** /**
   2:../sources/stm32f2xx_it.c ****   ******************************************************************************
   3:../sources/stm32f2xx_it.c ****   * @file    USART/HyperTerminal_Interrupt/stm32f2xx_it.c 
   4:../sources/stm32f2xx_it.c ****   * @author  MCD Application Team
   5:../sources/stm32f2xx_it.c ****   * @version V1.0.0
   6:../sources/stm32f2xx_it.c ****   * @date    18-April-2011
   7:../sources/stm32f2xx_it.c ****   * @brief   Main Interrupt Service Routines.
   8:../sources/stm32f2xx_it.c ****   *          This file provides template for all exceptions handler and peripherals
   9:../sources/stm32f2xx_it.c ****   *          interrupt service routine.
  10:../sources/stm32f2xx_it.c ****   ******************************************************************************
  11:../sources/stm32f2xx_it.c ****   * @attention
  12:../sources/stm32f2xx_it.c ****   *
  13:../sources/stm32f2xx_it.c ****   * THE PRESENT FIRMWARE WHICH IS FOR GUIDANCE ONLY AIMS AT PROVIDING CUSTOMERS
  14:../sources/stm32f2xx_it.c ****   * WITH CODING INFORMATION REGARDING THEIR PRODUCTS IN ORDER FOR THEM TO SAVE
  15:../sources/stm32f2xx_it.c ****   * TIME. AS A RESULT, STMICROELECTRONICS SHALL NOT BE HELD LIABLE FOR ANY
  16:../sources/stm32f2xx_it.c ****   * DIRECT, INDIRECT OR CONSEQUENTIAL DAMAGES WITH RESPECT TO ANY CLAIMS ARISING
  17:../sources/stm32f2xx_it.c ****   * FROM THE CONTENT OF SUCH FIRMWARE AND/OR THE USE MADE BY CUSTOMERS OF THE
  18:../sources/stm32f2xx_it.c ****   * CODING INFORMATION CONTAINED HEREIN IN CONNECTION WITH THEIR PRODUCTS.
  19:../sources/stm32f2xx_it.c ****   *
  20:../sources/stm32f2xx_it.c ****   * <h2><center>&copy; COPYRIGHT 2011 STMicroelectronics</center></h2>
  21:../sources/stm32f2xx_it.c ****   ******************************************************************************
  22:../sources/stm32f2xx_it.c ****   */ 
  23:../sources/stm32f2xx_it.c **** 
  24:../sources/stm32f2xx_it.c **** /* Includes ------------------------------------------------------------------*/
  25:../sources/stm32f2xx_it.c **** #include "stm32f2xx_it.h"
  26:../sources/stm32f2xx_it.c **** #include "TE_STM32F207.h"
  27:../sources/stm32f2xx_it.c **** #include "main.h"
  28:../sources/stm32f2xx_it.c **** 
  29:../sources/stm32f2xx_it.c **** /** @addtogroup STM32F2xx_StdPeriph_Examples
  30:../sources/stm32f2xx_it.c ****   * @{
  31:../sources/stm32f2xx_it.c ****   */
  32:../sources/stm32f2xx_it.c **** 
  33:../sources/stm32f2xx_it.c **** /** @addtogroup USART_HyperTerminal_Interrupt
  34:../sources/stm32f2xx_it.c ****   * @{
  35:../sources/stm32f2xx_it.c ****   */
  36:../sources/stm32f2xx_it.c **** 
  37:../sources/stm32f2xx_it.c **** /* Private typedef -----------------------------------------------------------*/
  38:../sources/stm32f2xx_it.c **** /* Private define ------------------------------------------------------------*/
  39:../sources/stm32f2xx_it.c **** #define USARTx_IRQHANDLER   USART3_IRQHandler
  40:../sources/stm32f2xx_it.c **** 
  41:../sources/stm32f2xx_it.c **** 
  42:../sources/stm32f2xx_it.c **** /* Private macro -------------------------------------------------------------*/
  43:../sources/stm32f2xx_it.c **** #define countof(a)   (sizeof(a) / sizeof(*(a)))
  44:../sources/stm32f2xx_it.c **** 
  45:../sources/stm32f2xx_it.c **** /* Private variables ---------------------------------------------------------*/
  46:../sources/stm32f2xx_it.c **** 
  47:../sources/stm32f2xx_it.c **** struct buf_st {
  48:../sources/stm32f2xx_it.c ****   unsigned int in;                                // Next In Index
  49:../sources/stm32f2xx_it.c ****   unsigned int out;                               // Next Out Index
  50:../sources/stm32f2xx_it.c ****   char buf [RBUF_SIZE];                           // Buffer
  51:../sources/stm32f2xx_it.c **** };
  52:../sources/stm32f2xx_it.c **** 
  53:../sources/stm32f2xx_it.c **** 
  54:../sources/stm32f2xx_it.c **** static struct buf_st rbuf = { 0, 0, };
  55:../sources/stm32f2xx_it.c **** #define SIO_RBUFLEN ((unsigned short)(rbuf.in - rbuf.out))
  56:../sources/stm32f2xx_it.c **** 
  57:../sources/stm32f2xx_it.c **** static struct buf_st tbuf = { 0, 0, };
  58:../sources/stm32f2xx_it.c **** #define SIO_TBUFLEN ((unsigned short)(tbuf.in - tbuf.out))
  59:../sources/stm32f2xx_it.c **** 
  60:../sources/stm32f2xx_it.c **** static unsigned int tx_restart = 1;               // NZ if TX restart is required
  61:../sources/stm32f2xx_it.c **** 
  62:../sources/stm32f2xx_it.c **** 
  63:../sources/stm32f2xx_it.c **** /* Private function prototypes -----------------------------------------------*/
  64:../sources/stm32f2xx_it.c **** /* Private functions ---------------------------------------------------------*/
  65:../sources/stm32f2xx_it.c **** 
  66:../sources/stm32f2xx_it.c **** /******************************************************************************/
  67:../sources/stm32f2xx_it.c **** /*            Cortex-M3 Processor Exceptions Handlers                         */
  68:../sources/stm32f2xx_it.c **** /******************************************************************************/
  69:../sources/stm32f2xx_it.c **** 
  70:../sources/stm32f2xx_it.c **** /**
  71:../sources/stm32f2xx_it.c ****   * @brief  This function handles NMI exception.
  72:../sources/stm32f2xx_it.c ****   * @param  None
  73:../sources/stm32f2xx_it.c ****   * @retval None
  74:../sources/stm32f2xx_it.c ****   */
  75:../sources/stm32f2xx_it.c **** void NMI_Handler(void)
  76:../sources/stm32f2xx_it.c **** {
  40              		.loc 1 76 0
  41              		.cfi_startproc
  42              		@ args = 0, pretend = 0, frame = 0
  43              		@ frame_needed = 1, uses_anonymous_args = 0
  44              		@ link register save eliminated.
  45 0000 80B4     		push	{r7}
  46              	.LCFI0:
  47              		.cfi_def_cfa_offset 4
  48              		.cfi_offset 7, -4
  49 0002 00AF     		add	r7, sp, #0
  50              	.LCFI1:
  51              		.cfi_def_cfa_register 7
  77:../sources/stm32f2xx_it.c **** }
  52              		.loc 1 77 0
  53 0004 BD46     		mov	sp, r7
  54 0006 80BC     		pop	{r7}
  55 0008 7047     		bx	lr
  56              		.cfi_endproc
  57              	.LFE29:
  59 000a 00BF     		.align	2
  60              		.global	HardFault_Handler
  61              		.thumb
  62              		.thumb_func
  64              	HardFault_Handler:
  65              	.LFB30:
  78:../sources/stm32f2xx_it.c **** 
  79:../sources/stm32f2xx_it.c **** /**
  80:../sources/stm32f2xx_it.c ****   * @brief  This function handles Hard Fault exception.
  81:../sources/stm32f2xx_it.c ****   * @param  None
  82:../sources/stm32f2xx_it.c ****   * @retval None
  83:../sources/stm32f2xx_it.c ****   */
  84:../sources/stm32f2xx_it.c **** void HardFault_Handler(void)
  85:../sources/stm32f2xx_it.c **** {
  66              		.loc 1 85 0
  67              		.cfi_startproc
  68              		@ args = 0, pretend = 0, frame = 0
  69              		@ frame_needed = 1, uses_anonymous_args = 0
  70              		@ link register save eliminated.
  71 000c 80B4     		push	{r7}
  72              	.LCFI2:
  73              		.cfi_def_cfa_offset 4
  74              		.cfi_offset 7, -4
  75 000e 00AF     		add	r7, sp, #0
  76              	.LCFI3:
  77              		.cfi_def_cfa_register 7
  78              	.L3:
  86:../sources/stm32f2xx_it.c ****   /* Go to infinite loop when Hard Fault exception occurs */
  87:../sources/stm32f2xx_it.c ****   while (1)
  88:../sources/stm32f2xx_it.c ****   {
  89:../sources/stm32f2xx_it.c ****   }
  79              		.loc 1 89 0 discriminator 1
  80 0010 FEE7     		b	.L3
  81              		.cfi_endproc
  82              	.LFE30:
  84 0012 00BF     		.align	2
  85              		.global	MemManage_Handler
  86              		.thumb
  87              		.thumb_func
  89              	MemManage_Handler:
  90              	.LFB31:
  90:../sources/stm32f2xx_it.c **** }
  91:../sources/stm32f2xx_it.c **** 
  92:../sources/stm32f2xx_it.c **** /**
  93:../sources/stm32f2xx_it.c ****   * @brief  This function handles Memory Manage exception.
  94:../sources/stm32f2xx_it.c ****   * @param  None
  95:../sources/stm32f2xx_it.c ****   * @retval None
  96:../sources/stm32f2xx_it.c ****   */
  97:../sources/stm32f2xx_it.c **** void MemManage_Handler(void)
  98:../sources/stm32f2xx_it.c **** {
  91              		.loc 1 98 0
  92              		.cfi_startproc
  93              		@ args = 0, pretend = 0, frame = 0
  94              		@ frame_needed = 1, uses_anonymous_args = 0
  95              		@ link register save eliminated.
  96 0014 80B4     		push	{r7}
  97              	.LCFI4:
  98              		.cfi_def_cfa_offset 4
  99              		.cfi_offset 7, -4
 100 0016 00AF     		add	r7, sp, #0
 101              	.LCFI5:
 102              		.cfi_def_cfa_register 7
 103              	.L5:
  99:../sources/stm32f2xx_it.c ****   /* Go to infinite loop when Memory Manage exception occurs */
 100:../sources/stm32f2xx_it.c ****   while (1)
 101:../sources/stm32f2xx_it.c ****   {
 102:../sources/stm32f2xx_it.c ****   }
 104              		.loc 1 102 0 discriminator 1
 105 0018 FEE7     		b	.L5
 106              		.cfi_endproc
 107              	.LFE31:
 109 001a 00BF     		.align	2
 110              		.global	BusFault_Handler
 111              		.thumb
 112              		.thumb_func
 114              	BusFault_Handler:
 115              	.LFB32:
 103:../sources/stm32f2xx_it.c **** }
 104:../sources/stm32f2xx_it.c **** 
 105:../sources/stm32f2xx_it.c **** /**
 106:../sources/stm32f2xx_it.c ****   * @brief  This function handles Bus Fault exception.
 107:../sources/stm32f2xx_it.c ****   * @param  None
 108:../sources/stm32f2xx_it.c ****   * @retval None
 109:../sources/stm32f2xx_it.c ****   */
 110:../sources/stm32f2xx_it.c **** void BusFault_Handler(void)
 111:../sources/stm32f2xx_it.c **** {
 116              		.loc 1 111 0
 117              		.cfi_startproc
 118              		@ args = 0, pretend = 0, frame = 0
 119              		@ frame_needed = 1, uses_anonymous_args = 0
 120              		@ link register save eliminated.
 121 001c 80B4     		push	{r7}
 122              	.LCFI6:
 123              		.cfi_def_cfa_offset 4
 124              		.cfi_offset 7, -4
 125 001e 00AF     		add	r7, sp, #0
 126              	.LCFI7:
 127              		.cfi_def_cfa_register 7
 128              	.L7:
 112:../sources/stm32f2xx_it.c ****   /* Go to infinite loop when Bus Fault exception occurs */
 113:../sources/stm32f2xx_it.c ****   while (1)
 114:../sources/stm32f2xx_it.c ****   {
 115:../sources/stm32f2xx_it.c ****   }
 129              		.loc 1 115 0 discriminator 1
 130 0020 FEE7     		b	.L7
 131              		.cfi_endproc
 132              	.LFE32:
 134 0022 00BF     		.align	2
 135              		.global	UsageFault_Handler
 136              		.thumb
 137              		.thumb_func
 139              	UsageFault_Handler:
 140              	.LFB33:
 116:../sources/stm32f2xx_it.c **** }
 117:../sources/stm32f2xx_it.c **** 
 118:../sources/stm32f2xx_it.c **** /**
 119:../sources/stm32f2xx_it.c ****   * @brief  This function handles Usage Fault exception.
 120:../sources/stm32f2xx_it.c ****   * @param  None
 121:../sources/stm32f2xx_it.c ****   * @retval None
 122:../sources/stm32f2xx_it.c ****   */
 123:../sources/stm32f2xx_it.c **** void UsageFault_Handler(void)
 124:../sources/stm32f2xx_it.c **** {
 141              		.loc 1 124 0
 142              		.cfi_startproc
 143              		@ args = 0, pretend = 0, frame = 0
 144              		@ frame_needed = 1, uses_anonymous_args = 0
 145              		@ link register save eliminated.
 146 0024 80B4     		push	{r7}
 147              	.LCFI8:
 148              		.cfi_def_cfa_offset 4
 149              		.cfi_offset 7, -4
 150 0026 00AF     		add	r7, sp, #0
 151              	.LCFI9:
 152              		.cfi_def_cfa_register 7
 153              	.L9:
 125:../sources/stm32f2xx_it.c ****   /* Go to infinite loop when Usage Fault exception occurs */
 126:../sources/stm32f2xx_it.c ****   while (1)
 127:../sources/stm32f2xx_it.c ****   {
 128:../sources/stm32f2xx_it.c ****   }
 154              		.loc 1 128 0 discriminator 1
 155 0028 FEE7     		b	.L9
 156              		.cfi_endproc
 157              	.LFE33:
 159 002a 00BF     		.align	2
 160              		.global	SVC_Handler
 161              		.thumb
 162              		.thumb_func
 164              	SVC_Handler:
 165              	.LFB34:
 129:../sources/stm32f2xx_it.c **** }
 130:../sources/stm32f2xx_it.c **** 
 131:../sources/stm32f2xx_it.c **** /**
 132:../sources/stm32f2xx_it.c ****   * @brief  This function handles SVCall exception.
 133:../sources/stm32f2xx_it.c ****   * @param  None
 134:../sources/stm32f2xx_it.c ****   * @retval None
 135:../sources/stm32f2xx_it.c ****   */
 136:../sources/stm32f2xx_it.c **** void SVC_Handler(void)
 137:../sources/stm32f2xx_it.c **** {
 166              		.loc 1 137 0
 167              		.cfi_startproc
 168              		@ args = 0, pretend = 0, frame = 0
 169              		@ frame_needed = 1, uses_anonymous_args = 0
 170              		@ link register save eliminated.
 171 002c 80B4     		push	{r7}
 172              	.LCFI10:
 173              		.cfi_def_cfa_offset 4
 174              		.cfi_offset 7, -4
 175 002e 00AF     		add	r7, sp, #0
 176              	.LCFI11:
 177              		.cfi_def_cfa_register 7
 138:../sources/stm32f2xx_it.c **** }
 178              		.loc 1 138 0
 179 0030 BD46     		mov	sp, r7
 180 0032 80BC     		pop	{r7}
 181 0034 7047     		bx	lr
 182              		.cfi_endproc
 183              	.LFE34:
 185 0036 00BF     		.align	2
 186              		.global	DebugMon_Handler
 187              		.thumb
 188              		.thumb_func
 190              	DebugMon_Handler:
 191              	.LFB35:
 139:../sources/stm32f2xx_it.c **** 
 140:../sources/stm32f2xx_it.c **** /**
 141:../sources/stm32f2xx_it.c ****   * @brief  This function handles Debug Monitor exception.
 142:../sources/stm32f2xx_it.c ****   * @param  None
 143:../sources/stm32f2xx_it.c ****   * @retval None
 144:../sources/stm32f2xx_it.c ****   */
 145:../sources/stm32f2xx_it.c **** void DebugMon_Handler(void)
 146:../sources/stm32f2xx_it.c **** {
 192              		.loc 1 146 0
 193              		.cfi_startproc
 194              		@ args = 0, pretend = 0, frame = 0
 195              		@ frame_needed = 1, uses_anonymous_args = 0
 196              		@ link register save eliminated.
 197 0038 80B4     		push	{r7}
 198              	.LCFI12:
 199              		.cfi_def_cfa_offset 4
 200              		.cfi_offset 7, -4
 201 003a 00AF     		add	r7, sp, #0
 202              	.LCFI13:
 203              		.cfi_def_cfa_register 7
 147:../sources/stm32f2xx_it.c **** }
 204              		.loc 1 147 0
 205 003c BD46     		mov	sp, r7
 206 003e 80BC     		pop	{r7}
 207 0040 7047     		bx	lr
 208              		.cfi_endproc
 209              	.LFE35:
 211 0042 00BF     		.align	2
 212              		.global	PendSV_Handler
 213              		.thumb
 214              		.thumb_func
 216              	PendSV_Handler:
 217              	.LFB36:
 148:../sources/stm32f2xx_it.c **** 
 149:../sources/stm32f2xx_it.c **** /**
 150:../sources/stm32f2xx_it.c ****   * @brief  This function handles PendSV_Handler exception.
 151:../sources/stm32f2xx_it.c ****   * @param  None
 152:../sources/stm32f2xx_it.c ****   * @retval None
 153:../sources/stm32f2xx_it.c ****   */
 154:../sources/stm32f2xx_it.c **** void PendSV_Handler(void)
 155:../sources/stm32f2xx_it.c **** {
 218              		.loc 1 155 0
 219              		.cfi_startproc
 220              		@ args = 0, pretend = 0, frame = 0
 221              		@ frame_needed = 1, uses_anonymous_args = 0
 222              		@ link register save eliminated.
 223 0044 80B4     		push	{r7}
 224              	.LCFI14:
 225              		.cfi_def_cfa_offset 4
 226              		.cfi_offset 7, -4
 227 0046 00AF     		add	r7, sp, #0
 228              	.LCFI15:
 229              		.cfi_def_cfa_register 7
 156:../sources/stm32f2xx_it.c **** }
 230              		.loc 1 156 0
 231 0048 BD46     		mov	sp, r7
 232 004a 80BC     		pop	{r7}
 233 004c 7047     		bx	lr
 234              		.cfi_endproc
 235              	.LFE36:
 237 004e 00BF     		.align	2
 238              		.global	SysTick_Handler
 239              		.thumb
 240              		.thumb_func
 242              	SysTick_Handler:
 243              	.LFB37:
 157:../sources/stm32f2xx_it.c **** 
 158:../sources/stm32f2xx_it.c **** /**
 159:../sources/stm32f2xx_it.c ****   * @brief  This function handles SysTick Handler.
 160:../sources/stm32f2xx_it.c ****   * @param  None
 161:../sources/stm32f2xx_it.c ****   * @retval None
 162:../sources/stm32f2xx_it.c ****   */
 163:../sources/stm32f2xx_it.c **** void SysTick_Handler(void)
 164:../sources/stm32f2xx_it.c **** {
 244              		.loc 1 164 0
 245              		.cfi_startproc
 246              		@ args = 0, pretend = 0, frame = 0
 247              		@ frame_needed = 1, uses_anonymous_args = 0
 248 0050 80B5     		push	{r7, lr}
 249              	.LCFI16:
 250              		.cfi_def_cfa_offset 8
 251              		.cfi_offset 14, -4
 252              		.cfi_offset 7, -8
 253 0052 00AF     		add	r7, sp, #0
 254              	.LCFI17:
 255              		.cfi_def_cfa_register 7
 165:../sources/stm32f2xx_it.c ****   TimingDelay_Decrement();
 256              		.loc 1 165 0
 257 0054 FFF7FEFF 		bl	TimingDelay_Decrement
 166:../sources/stm32f2xx_it.c **** }
 258              		.loc 1 166 0
 259 0058 80BD     		pop	{r7, pc}
 260              		.cfi_endproc
 261              	.LFE37:
 263 005a 00BF     		.align	2
 264              		.global	USART3_IRQHandler
 265              		.thumb
 266              		.thumb_func
 268              	USART3_IRQHandler:
 269              	.LFB38:
 167:../sources/stm32f2xx_it.c **** 
 168:../sources/stm32f2xx_it.c **** /******************************************************************************/
 169:../sources/stm32f2xx_it.c **** /*            STM32F2xx Peripherals Interrupt Handlers                        */
 170:../sources/stm32f2xx_it.c **** /******************************************************************************/
 171:../sources/stm32f2xx_it.c **** 
 172:../sources/stm32f2xx_it.c **** /**
 173:../sources/stm32f2xx_it.c ****   * @brief  This function handles USARTx global interrupt request.
 174:../sources/stm32f2xx_it.c ****   * @param  None
 175:../sources/stm32f2xx_it.c ****   * @retval None
 176:../sources/stm32f2xx_it.c ****   */
 177:../sources/stm32f2xx_it.c **** void USARTx_IRQHANDLER(void)
 178:../sources/stm32f2xx_it.c **** {
 270              		.loc 1 178 0
 271              		.cfi_startproc
 272              		@ args = 0, pretend = 0, frame = 8
 273              		@ frame_needed = 1, uses_anonymous_args = 0
 274              		@ link register save eliminated.
 275 005c 80B4     		push	{r7}
 276              	.LCFI18:
 277              		.cfi_def_cfa_offset 4
 278              		.cfi_offset 7, -4
 279 005e 83B0     		sub	sp, sp, #12
 280              	.LCFI19:
 281              		.cfi_def_cfa_offset 16
 282 0060 00AF     		add	r7, sp, #0
 283              	.LCFI20:
 284              		.cfi_def_cfa_register 7
 179:../sources/stm32f2xx_it.c **** 	  volatile unsigned int IIR;
 180:../sources/stm32f2xx_it.c **** 	  struct buf_st *p;
 181:../sources/stm32f2xx_it.c **** 
 182:../sources/stm32f2xx_it.c **** 	    IIR = USART3->SR;
 285              		.loc 1 182 0
 286 0062 4FF49043 		mov	r3, #18432
 287 0066 C4F20003 		movt	r3, 16384
 288 006a 1B88     		ldrh	r3, [r3, #0]	@ movhi
 289 006c 9BB2     		uxth	r3, r3
 290 006e 3B60     		str	r3, [r7, #0]
 183:../sources/stm32f2xx_it.c **** 	    if (IIR & USART_FLAG_RXNE) {                  // read interrupt
 291              		.loc 1 183 0
 292 0070 3B68     		ldr	r3, [r7, #0]
 293 0072 03F02003 		and	r3, r3, #32
 294 0076 002B     		cmp	r3, #0
 295 0078 2ED0     		beq	.L15
 184:../sources/stm32f2xx_it.c **** 	      USART3->SR &= ~USART_FLAG_RXNE;	          // clear interrupt
 296              		.loc 1 184 0
 297 007a 4FF49043 		mov	r3, #18432
 298 007e C4F20003 		movt	r3, 16384
 299 0082 4FF49042 		mov	r2, #18432
 300 0086 C4F20002 		movt	r2, 16384
 301 008a 1288     		ldrh	r2, [r2, #0]	@ movhi
 302 008c 92B2     		uxth	r2, r2
 303 008e 22F02002 		bic	r2, r2, #32
 304 0092 92B2     		uxth	r2, r2
 305 0094 1A80     		strh	r2, [r3, #0]	@ movhi
 185:../sources/stm32f2xx_it.c **** 
 186:../sources/stm32f2xx_it.c **** 	      p = &rbuf;
 306              		.loc 1 186 0
 307 0096 40F20003 		movw	r3, #:lower16:rbuf
 308 009a C0F20003 		movt	r3, #:upper16:rbuf
 309 009e 7B60     		str	r3, [r7, #4]
 187:../sources/stm32f2xx_it.c **** 
 188:../sources/stm32f2xx_it.c **** 	      if (((p->in - p->out) & ~(RBUF_SIZE-1)) == 0) {
 310              		.loc 1 188 0
 311 00a0 7B68     		ldr	r3, [r7, #4]
 312 00a2 1A68     		ldr	r2, [r3, #0]
 313 00a4 7B68     		ldr	r3, [r7, #4]
 314 00a6 5B68     		ldr	r3, [r3, #4]
 315 00a8 D31A     		subs	r3, r2, r3
 316 00aa 23F0FF03 		bic	r3, r3, #255
 317 00ae 002B     		cmp	r3, #0
 318 00b0 12D1     		bne	.L15
 189:../sources/stm32f2xx_it.c **** 	        p->buf [p->in & (RBUF_SIZE-1)] = (USART3->DR & 0x1FF);
 319              		.loc 1 189 0
 320 00b2 7B68     		ldr	r3, [r7, #4]
 321 00b4 1B68     		ldr	r3, [r3, #0]
 322 00b6 D9B2     		uxtb	r1, r3
 323 00b8 4FF49043 		mov	r3, #18432
 324 00bc C4F20003 		movt	r3, 16384
 325 00c0 9B88     		ldrh	r3, [r3, #4]	@ movhi
 326 00c2 9BB2     		uxth	r3, r3
 327 00c4 DAB2     		uxtb	r2, r3
 328 00c6 7B68     		ldr	r3, [r7, #4]
 329 00c8 5B18     		adds	r3, r3, r1
 330 00ca 1A72     		strb	r2, [r3, #8]
 190:../sources/stm32f2xx_it.c **** 	        p->in++;
 331              		.loc 1 190 0
 332 00cc 7B68     		ldr	r3, [r7, #4]
 333 00ce 1B68     		ldr	r3, [r3, #0]
 334 00d0 03F10102 		add	r2, r3, #1
 335 00d4 7B68     		ldr	r3, [r7, #4]
 336 00d6 1A60     		str	r2, [r3, #0]
 337              	.L15:
 191:../sources/stm32f2xx_it.c **** 	      }
 192:../sources/stm32f2xx_it.c **** 	    }
 193:../sources/stm32f2xx_it.c **** 
 194:../sources/stm32f2xx_it.c **** 	    if (IIR & USART_FLAG_TXE) {
 338              		.loc 1 194 0
 339 00d8 3B68     		ldr	r3, [r7, #0]
 340 00da 03F08003 		and	r3, r3, #128
 341 00de 002B     		cmp	r3, #0
 342 00e0 46D0     		beq	.L14
 195:../sources/stm32f2xx_it.c **** 	      USART3->SR &= ~USART_FLAG_TXE;	          // clear interrupt
 343              		.loc 1 195 0
 344 00e2 4FF49043 		mov	r3, #18432
 345 00e6 C4F20003 		movt	r3, 16384
 346 00ea 4FF49042 		mov	r2, #18432
 347 00ee C4F20002 		movt	r2, 16384
 348 00f2 1288     		ldrh	r2, [r2, #0]	@ movhi
 349 00f4 92B2     		uxth	r2, r2
 350 00f6 22F08002 		bic	r2, r2, #128
 351 00fa 92B2     		uxth	r2, r2
 352 00fc 1A80     		strh	r2, [r3, #0]	@ movhi
 196:../sources/stm32f2xx_it.c **** 
 197:../sources/stm32f2xx_it.c **** 	      p = &tbuf;
 353              		.loc 1 197 0
 354 00fe 40F20003 		movw	r3, #:lower16:tbuf
 355 0102 C0F20003 		movt	r3, #:upper16:tbuf
 356 0106 7B60     		str	r3, [r7, #4]
 198:../sources/stm32f2xx_it.c **** 
 199:../sources/stm32f2xx_it.c **** 	      if (p->in != p->out) {
 357              		.loc 1 199 0
 358 0108 7B68     		ldr	r3, [r7, #4]
 359 010a 1A68     		ldr	r2, [r3, #0]
 360 010c 7B68     		ldr	r3, [r7, #4]
 361 010e 5B68     		ldr	r3, [r3, #4]
 362 0110 9A42     		cmp	r2, r3
 363 0112 18D0     		beq	.L17
 200:../sources/stm32f2xx_it.c **** 	        USART3->DR = (p->buf [p->out & (TBUF_SIZE-1)] & 0x1FF);
 364              		.loc 1 200 0
 365 0114 4FF49043 		mov	r3, #18432
 366 0118 C4F20003 		movt	r3, 16384
 367 011c 7A68     		ldr	r2, [r7, #4]
 368 011e 5268     		ldr	r2, [r2, #4]
 369 0120 D2B2     		uxtb	r2, r2
 370 0122 7968     		ldr	r1, [r7, #4]
 371 0124 8A18     		adds	r2, r1, r2
 372 0126 127A     		ldrb	r2, [r2, #8]	@ zero_extendqisi2
 373 0128 9A80     		strh	r2, [r3, #4]	@ movhi
 201:../sources/stm32f2xx_it.c **** 	        p->out++;
 374              		.loc 1 201 0
 375 012a 7B68     		ldr	r3, [r7, #4]
 376 012c 5B68     		ldr	r3, [r3, #4]
 377 012e 03F10102 		add	r2, r3, #1
 378 0132 7B68     		ldr	r3, [r7, #4]
 379 0134 5A60     		str	r2, [r3, #4]
 202:../sources/stm32f2xx_it.c **** 	        tx_restart = 0;
 380              		.loc 1 202 0
 381 0136 40F20003 		movw	r3, #:lower16:tx_restart
 382 013a C0F20003 		movt	r3, #:upper16:tx_restart
 383 013e 4FF00002 		mov	r2, #0
 384 0142 1A60     		str	r2, [r3, #0]
 385 0144 14E0     		b	.L14
 386              	.L17:
 203:../sources/stm32f2xx_it.c **** 	      }
 204:../sources/stm32f2xx_it.c **** 	      else {
 205:../sources/stm32f2xx_it.c **** 	        tx_restart = 1;
 387              		.loc 1 205 0
 388 0146 40F20003 		movw	r3, #:lower16:tx_restart
 389 014a C0F20003 		movt	r3, #:upper16:tx_restart
 390 014e 4FF00102 		mov	r2, #1
 391 0152 1A60     		str	r2, [r3, #0]
 206:../sources/stm32f2xx_it.c **** 			USART3->CR1 &= ~USART_FLAG_TXE;		      // disable TX interrupt if nothing to send
 392              		.loc 1 206 0
 393 0154 4FF49043 		mov	r3, #18432
 394 0158 C4F20003 		movt	r3, 16384
 395 015c 4FF49042 		mov	r2, #18432
 396 0160 C4F20002 		movt	r2, 16384
 397 0164 9289     		ldrh	r2, [r2, #12]	@ movhi
 398 0166 92B2     		uxth	r2, r2
 399 0168 22F08002 		bic	r2, r2, #128
 400 016c 92B2     		uxth	r2, r2
 401 016e 9A81     		strh	r2, [r3, #12]	@ movhi
 402              	.L14:
 207:../sources/stm32f2xx_it.c **** 
 208:../sources/stm32f2xx_it.c **** 	      }
 209:../sources/stm32f2xx_it.c **** 	    }
 210:../sources/stm32f2xx_it.c **** }
 403              		.loc 1 210 0
 404 0170 07F10C07 		add	r7, r7, #12
 405 0174 BD46     		mov	sp, r7
 406 0176 80BC     		pop	{r7}
 407 0178 7047     		bx	lr
 408              		.cfi_endproc
 409              	.LFE38:
 411 017a 00BF     		.align	2
 412              		.global	USART3_buffer_Init
 413              		.thumb
 414              		.thumb_func
 416              	USART3_buffer_Init:
 417              	.LFB39:
 211:../sources/stm32f2xx_it.c **** 
 212:../sources/stm32f2xx_it.c **** /*------------------------------------------------------------------------------
 213:../sources/stm32f2xx_it.c ****   buffer_Init
 214:../sources/stm32f2xx_it.c ****   initialize the buffers
 215:../sources/stm32f2xx_it.c ****  *------------------------------------------------------------------------------*/
 216:../sources/stm32f2xx_it.c **** void USART3_buffer_Init (void) {
 418              		.loc 1 216 0
 419              		.cfi_startproc
 420              		@ args = 0, pretend = 0, frame = 0
 421              		@ frame_needed = 1, uses_anonymous_args = 0
 422              		@ link register save eliminated.
 423 017c 80B4     		push	{r7}
 424              	.LCFI21:
 425              		.cfi_def_cfa_offset 4
 426              		.cfi_offset 7, -4
 427 017e 00AF     		add	r7, sp, #0
 428              	.LCFI22:
 429              		.cfi_def_cfa_register 7
 217:../sources/stm32f2xx_it.c **** 
 218:../sources/stm32f2xx_it.c ****   tbuf.in = 0;                                    // Clear com buffer indexes
 430              		.loc 1 218 0
 431 0180 40F20003 		movw	r3, #:lower16:tbuf
 432 0184 C0F20003 		movt	r3, #:upper16:tbuf
 433 0188 4FF00002 		mov	r2, #0
 434 018c 1A60     		str	r2, [r3, #0]
 219:../sources/stm32f2xx_it.c ****   tbuf.out = 0;
 435              		.loc 1 219 0
 436 018e 40F20003 		movw	r3, #:lower16:tbuf
 437 0192 C0F20003 		movt	r3, #:upper16:tbuf
 438 0196 4FF00002 		mov	r2, #0
 439 019a 5A60     		str	r2, [r3, #4]
 220:../sources/stm32f2xx_it.c ****   tx_restart = 1;
 440              		.loc 1 220 0
 441 019c 40F20003 		movw	r3, #:lower16:tx_restart
 442 01a0 C0F20003 		movt	r3, #:upper16:tx_restart
 443 01a4 4FF00102 		mov	r2, #1
 444 01a8 1A60     		str	r2, [r3, #0]
 221:../sources/stm32f2xx_it.c **** 
 222:../sources/stm32f2xx_it.c ****   rbuf.in = 0;
 445              		.loc 1 222 0
 446 01aa 40F20003 		movw	r3, #:lower16:rbuf
 447 01ae C0F20003 		movt	r3, #:upper16:rbuf
 448 01b2 4FF00002 		mov	r2, #0
 449 01b6 1A60     		str	r2, [r3, #0]
 223:../sources/stm32f2xx_it.c ****   rbuf.out = 0;
 450              		.loc 1 223 0
 451 01b8 40F20003 		movw	r3, #:lower16:rbuf
 452 01bc C0F20003 		movt	r3, #:upper16:rbuf
 453 01c0 4FF00002 		mov	r2, #0
 454 01c4 5A60     		str	r2, [r3, #4]
 224:../sources/stm32f2xx_it.c **** }
 455              		.loc 1 224 0
 456 01c6 BD46     		mov	sp, r7
 457 01c8 80BC     		pop	{r7}
 458 01ca 7047     		bx	lr
 459              		.cfi_endproc
 460              	.LFE39:
 462              		.align	2
 463              		.global	USART3_SendChar
 464              		.thumb
 465              		.thumb_func
 467              	USART3_SendChar:
 468              	.LFB40:
 225:../sources/stm32f2xx_it.c **** 
 226:../sources/stm32f2xx_it.c **** /*------------------------------------------------------------------------------
 227:../sources/stm32f2xx_it.c ****   SenChar
 228:../sources/stm32f2xx_it.c ****   transmit a character
 229:../sources/stm32f2xx_it.c ****  *------------------------------------------------------------------------------*/
 230:../sources/stm32f2xx_it.c **** int USART3_SendChar (int c) {
 469              		.loc 1 230 0
 470              		.cfi_startproc
 471              		@ args = 0, pretend = 0, frame = 16
 472              		@ frame_needed = 1, uses_anonymous_args = 0
 473              		@ link register save eliminated.
 474 01cc 80B4     		push	{r7}
 475              	.LCFI23:
 476              		.cfi_def_cfa_offset 4
 477              		.cfi_offset 7, -4
 478 01ce 85B0     		sub	sp, sp, #20
 479              	.LCFI24:
 480              		.cfi_def_cfa_offset 24
 481 01d0 00AF     		add	r7, sp, #0
 482              	.LCFI25:
 483              		.cfi_def_cfa_register 7
 484 01d2 7860     		str	r0, [r7, #4]
 231:../sources/stm32f2xx_it.c ****   struct buf_st *p = &tbuf;
 485              		.loc 1 231 0
 486 01d4 40F20003 		movw	r3, #:lower16:tbuf
 487 01d8 C0F20003 		movt	r3, #:upper16:tbuf
 488 01dc FB60     		str	r3, [r7, #12]
 232:../sources/stm32f2xx_it.c **** 
 233:../sources/stm32f2xx_it.c ****                                                   // If the buffer is full, return an error value
 234:../sources/stm32f2xx_it.c ****   if (SIO_TBUFLEN >= TBUF_SIZE)
 489              		.loc 1 234 0
 490 01de 40F20003 		movw	r3, #:lower16:tbuf
 491 01e2 C0F20003 		movt	r3, #:upper16:tbuf
 492 01e6 1B68     		ldr	r3, [r3, #0]
 493 01e8 9AB2     		uxth	r2, r3
 494 01ea 40F20003 		movw	r3, #:lower16:tbuf
 495 01ee C0F20003 		movt	r3, #:upper16:tbuf
 496 01f2 5B68     		ldr	r3, [r3, #4]
 497 01f4 9BB2     		uxth	r3, r3
 498 01f6 D31A     		subs	r3, r2, r3
 499 01f8 9BB2     		uxth	r3, r3
 500 01fa FF2B     		cmp	r3, #255
 501 01fc 02D9     		bls	.L20
 235:../sources/stm32f2xx_it.c ****     return (-1);
 502              		.loc 1 235 0
 503 01fe 4FF0FF33 		mov	r3, #-1
 504 0202 2BE0     		b	.L21
 505              	.L20:
 236:../sources/stm32f2xx_it.c **** 
 237:../sources/stm32f2xx_it.c ****   p->buf [p->in & (TBUF_SIZE - 1)] = c;           // Add data to the transmit buffer.
 506              		.loc 1 237 0
 507 0204 FB68     		ldr	r3, [r7, #12]
 508 0206 1B68     		ldr	r3, [r3, #0]
 509 0208 DBB2     		uxtb	r3, r3
 510 020a 7A68     		ldr	r2, [r7, #4]
 511 020c D2B2     		uxtb	r2, r2
 512 020e F968     		ldr	r1, [r7, #12]
 513 0210 CB18     		adds	r3, r1, r3
 514 0212 1A72     		strb	r2, [r3, #8]
 238:../sources/stm32f2xx_it.c ****   p->in++;
 515              		.loc 1 238 0
 516 0214 FB68     		ldr	r3, [r7, #12]
 517 0216 1B68     		ldr	r3, [r3, #0]
 518 0218 03F10102 		add	r2, r3, #1
 519 021c FB68     		ldr	r3, [r7, #12]
 520 021e 1A60     		str	r2, [r3, #0]
 239:../sources/stm32f2xx_it.c **** 
 240:../sources/stm32f2xx_it.c ****   if (tx_restart) {                               // If transmit interrupt is disabled, enable it
 521              		.loc 1 240 0
 522 0220 40F20003 		movw	r3, #:lower16:tx_restart
 523 0224 C0F20003 		movt	r3, #:upper16:tx_restart
 524 0228 1B68     		ldr	r3, [r3, #0]
 525 022a 002B     		cmp	r3, #0
 526 022c 14D0     		beq	.L22
 241:../sources/stm32f2xx_it.c ****     tx_restart = 0;
 527              		.loc 1 241 0
 528 022e 40F20003 		movw	r3, #:lower16:tx_restart
 529 0232 C0F20003 		movt	r3, #:upper16:tx_restart
 530 0236 4FF00002 		mov	r2, #0
 531 023a 1A60     		str	r2, [r3, #0]
 242:../sources/stm32f2xx_it.c **** 	USART3->CR1 |= USART_FLAG_TXE;		          // enable TX interrupt
 532              		.loc 1 242 0
 533 023c 4FF49043 		mov	r3, #18432
 534 0240 C4F20003 		movt	r3, 16384
 535 0244 4FF49042 		mov	r2, #18432
 536 0248 C4F20002 		movt	r2, 16384
 537 024c 9289     		ldrh	r2, [r2, #12]	@ movhi
 538 024e 92B2     		uxth	r2, r2
 539 0250 42F08002 		orr	r2, r2, #128
 540 0254 92B2     		uxth	r2, r2
 541 0256 9A81     		strh	r2, [r3, #12]	@ movhi
 542              	.L22:
 243:../sources/stm32f2xx_it.c ****   }
 244:../sources/stm32f2xx_it.c **** 
 245:../sources/stm32f2xx_it.c ****   return (0);
 543              		.loc 1 245 0
 544 0258 4FF00003 		mov	r3, #0
 545              	.L21:
 246:../sources/stm32f2xx_it.c **** }
 546              		.loc 1 246 0
 547 025c 1846     		mov	r0, r3
 548 025e 07F11407 		add	r7, r7, #20
 549 0262 BD46     		mov	sp, r7
 550 0264 80BC     		pop	{r7}
 551 0266 7047     		bx	lr
 552              		.cfi_endproc
 553              	.LFE40:
 555              		.align	2
 556              		.global	USART3_GetKey
 557              		.thumb
 558              		.thumb_func
 560              	USART3_GetKey:
 561              	.LFB41:
 247:../sources/stm32f2xx_it.c **** 
 248:../sources/stm32f2xx_it.c **** /*------------------------------------------------------------------------------
 249:../sources/stm32f2xx_it.c ****   GetKey
 250:../sources/stm32f2xx_it.c ****   receive a character
 251:../sources/stm32f2xx_it.c ****  *------------------------------------------------------------------------------*/
 252:../sources/stm32f2xx_it.c **** int USART3_GetKey (void) {
 562              		.loc 1 252 0
 563              		.cfi_startproc
 564              		@ args = 0, pretend = 0, frame = 8
 565              		@ frame_needed = 1, uses_anonymous_args = 0
 566              		@ link register save eliminated.
 567 0268 80B4     		push	{r7}
 568              	.LCFI26:
 569              		.cfi_def_cfa_offset 4
 570              		.cfi_offset 7, -4
 571 026a 83B0     		sub	sp, sp, #12
 572              	.LCFI27:
 573              		.cfi_def_cfa_offset 16
 574 026c 00AF     		add	r7, sp, #0
 575              	.LCFI28:
 576              		.cfi_def_cfa_register 7
 253:../sources/stm32f2xx_it.c ****   struct buf_st *p = &rbuf;
 577              		.loc 1 253 0
 578 026e 40F20003 		movw	r3, #:lower16:rbuf
 579 0272 C0F20003 		movt	r3, #:upper16:rbuf
 580 0276 7B60     		str	r3, [r7, #4]
 254:../sources/stm32f2xx_it.c **** 
 255:../sources/stm32f2xx_it.c ****   if (SIO_RBUFLEN == 0)
 581              		.loc 1 255 0
 582 0278 40F20003 		movw	r3, #:lower16:rbuf
 583 027c C0F20003 		movt	r3, #:upper16:rbuf
 584 0280 1B68     		ldr	r3, [r3, #0]
 585 0282 9AB2     		uxth	r2, r3
 586 0284 40F20003 		movw	r3, #:lower16:rbuf
 587 0288 C0F20003 		movt	r3, #:upper16:rbuf
 588 028c 5B68     		ldr	r3, [r3, #4]
 589 028e 9BB2     		uxth	r3, r3
 590 0290 9A42     		cmp	r2, r3
 591 0292 02D1     		bne	.L24
 256:../sources/stm32f2xx_it.c ****     return (-1);
 592              		.loc 1 256 0
 593 0294 4FF0FF33 		mov	r3, #-1
 594 0298 09E0     		b	.L25
 595              	.L24:
 257:../sources/stm32f2xx_it.c **** 
 258:../sources/stm32f2xx_it.c ****   return (p->buf [(p->out++) & (RBUF_SIZE - 1)]);
 596              		.loc 1 258 0
 597 029a 7B68     		ldr	r3, [r7, #4]
 598 029c 5A68     		ldr	r2, [r3, #4]
 599 029e D3B2     		uxtb	r3, r2
 600 02a0 7968     		ldr	r1, [r7, #4]
 601 02a2 CB18     		adds	r3, r1, r3
 602 02a4 1B7A     		ldrb	r3, [r3, #8]	@ zero_extendqisi2
 603 02a6 02F10101 		add	r1, r2, #1
 604 02aa 7A68     		ldr	r2, [r7, #4]
 605 02ac 5160     		str	r1, [r2, #4]
 606              	.L25:
 259:../sources/stm32f2xx_it.c **** }
 607              		.loc 1 259 0
 608 02ae 1846     		mov	r0, r3
 609 02b0 07F10C07 		add	r7, r7, #12
 610 02b4 BD46     		mov	sp, r7
 611 02b6 80BC     		pop	{r7}
 612 02b8 7047     		bx	lr
 613              		.cfi_endproc
 614              	.LFE41:
 616 02ba 00BF     		.align	2
 617              		.global	USART3_SendString
 618              		.thumb
 619              		.thumb_func
 621              	USART3_SendString:
 622              	.LFB42:
 260:../sources/stm32f2xx_it.c **** 
 261:../sources/stm32f2xx_it.c **** 
 262:../sources/stm32f2xx_it.c **** 
 263:../sources/stm32f2xx_it.c **** 
 264:../sources/stm32f2xx_it.c **** void USART3_SendString(char *mass,int size) {
 623              		.loc 1 264 0
 624              		.cfi_startproc
 625              		@ args = 0, pretend = 0, frame = 8
 626              		@ frame_needed = 1, uses_anonymous_args = 0
 627 02bc 80B5     		push	{r7, lr}
 628              	.LCFI29:
 629              		.cfi_def_cfa_offset 8
 630              		.cfi_offset 14, -4
 631              		.cfi_offset 7, -8
 632 02be 82B0     		sub	sp, sp, #8
 633              	.LCFI30:
 634              		.cfi_def_cfa_offset 16
 635 02c0 00AF     		add	r7, sp, #0
 636              	.LCFI31:
 637              		.cfi_def_cfa_register 7
 638 02c2 7860     		str	r0, [r7, #4]
 639 02c4 3960     		str	r1, [r7, #0]
 265:../sources/stm32f2xx_it.c **** 
 266:../sources/stm32f2xx_it.c **** 	while (size > 0) {
 640              		.loc 1 266 0
 641 02c6 0CE0     		b	.L27
 642              	.L28:
 267:../sources/stm32f2xx_it.c **** 		USART3_SendChar((int )*mass++);
 643              		.loc 1 267 0
 644 02c8 7B68     		ldr	r3, [r7, #4]
 645 02ca 1B78     		ldrb	r3, [r3, #0]	@ zero_extendqisi2
 646 02cc 7A68     		ldr	r2, [r7, #4]
 647 02ce 02F10102 		add	r2, r2, #1
 648 02d2 7A60     		str	r2, [r7, #4]
 649 02d4 1846     		mov	r0, r3
 650 02d6 FFF7FEFF 		bl	USART3_SendChar
 268:../sources/stm32f2xx_it.c **** 	size--;
 651              		.loc 1 268 0
 652 02da 3B68     		ldr	r3, [r7, #0]
 653 02dc 03F1FF33 		add	r3, r3, #-1
 654 02e0 3B60     		str	r3, [r7, #0]
 655              	.L27:
 266:../sources/stm32f2xx_it.c **** 	while (size > 0) {
 656              		.loc 1 266 0 discriminator 1
 657 02e2 3B68     		ldr	r3, [r7, #0]
 658 02e4 002B     		cmp	r3, #0
 659 02e6 EFDC     		bgt	.L28
 269:../sources/stm32f2xx_it.c **** 	}
 270:../sources/stm32f2xx_it.c **** }
 660              		.loc 1 270 0
 661 02e8 07F10807 		add	r7, r7, #8
 662 02ec BD46     		mov	sp, r7
 663 02ee 80BD     		pop	{r7, pc}
 664              		.cfi_endproc
 665              	.LFE42:
 667              	.Letext0:
 668              		.file 2 "c:/cad/yagarto/lib/gcc/../../arm-none-eabi/sys-include/stdint.h"
 669              		.file 3 "C:\\workspace\\te_stm32f207_simple\\system/stm32f2xx.h"
 670              		.file 4 "C:\\workspace\\te_stm32f207_simple\\system/core_cm3.h"
 671              		.file 5 "../sources/TE_STM32F207.h"