   1              		.syntax unified
   2              		.cpu cortex-m3
   3              		.fpu softvfp
   4              		.eabi_attribute 20, 1
   5              		.eabi_attribute 21, 1
   6              		.eabi_attribute 23, 3
   7              		.eabi_attribute 24, 1
   8              		.eabi_attribute 25, 1
   9              		.eabi_attribute 26, 1
  10              		.eabi_attribute 30, 6
  11              		.eabi_attribute 18, 4
  12              		.thumb
  13              		.file	"stm32f2xx_cryp_des.c"
  23              	.Ltext0:
  24              		.file 1 "../STM32F2xx_StdPeriph_Driver/src/stm32f2xx_cryp_des.c"
 23361              		.align	2
 23362              		.global	CRYP_DES_ECB
 23363              		.thumb
 23364              		.thumb_func
 23366              	CRYP_DES_ECB:
 23367              	.LFB29:
   1:../STM32F2xx_StdPeriph_Driver/src/stm32f2xx_cryp_des.c **** /**
   2:../STM32F2xx_StdPeriph_Driver/src/stm32f2xx_cryp_des.c ****   ******************************************************************************
   3:../STM32F2xx_StdPeriph_Driver/src/stm32f2xx_cryp_des.c ****   * @file    stm32f2xx_cryp_des.c
   4:../STM32F2xx_StdPeriph_Driver/src/stm32f2xx_cryp_des.c ****   * @author  MCD Application Team
   5:../STM32F2xx_StdPeriph_Driver/src/stm32f2xx_cryp_des.c ****   * @version V1.0.0
   6:../STM32F2xx_StdPeriph_Driver/src/stm32f2xx_cryp_des.c ****   * @date    18-April-2011
   7:../STM32F2xx_StdPeriph_Driver/src/stm32f2xx_cryp_des.c ****   * @brief   This file provides high level functions to encrypt and decrypt an 
   8:../STM32F2xx_StdPeriph_Driver/src/stm32f2xx_cryp_des.c ****   *          input message using DES in ECB/CBC modes.
   9:../STM32F2xx_StdPeriph_Driver/src/stm32f2xx_cryp_des.c ****   *          It uses the stm32f2xx_cryp.c/.h drivers to access the STM32F2xx CRYP
  10:../STM32F2xx_StdPeriph_Driver/src/stm32f2xx_cryp_des.c ****   *          peripheral.
  11:../STM32F2xx_StdPeriph_Driver/src/stm32f2xx_cryp_des.c ****   *
  12:../STM32F2xx_StdPeriph_Driver/src/stm32f2xx_cryp_des.c ****   *  @verbatim
  13:../STM32F2xx_StdPeriph_Driver/src/stm32f2xx_cryp_des.c ****   *
  14:../STM32F2xx_StdPeriph_Driver/src/stm32f2xx_cryp_des.c ****   *          ===================================================================
  15:../STM32F2xx_StdPeriph_Driver/src/stm32f2xx_cryp_des.c ****   *                                   How to use this driver
  16:../STM32F2xx_StdPeriph_Driver/src/stm32f2xx_cryp_des.c ****   *          ===================================================================
  17:../STM32F2xx_StdPeriph_Driver/src/stm32f2xx_cryp_des.c ****   *          1. Enable The CRYP controller clock using 
  18:../STM32F2xx_StdPeriph_Driver/src/stm32f2xx_cryp_des.c ****   *            RCC_AHB2PeriphClockCmd(RCC_AHB2Periph_CRYP, ENABLE); function.
  19:../STM32F2xx_StdPeriph_Driver/src/stm32f2xx_cryp_des.c ****   *
  20:../STM32F2xx_StdPeriph_Driver/src/stm32f2xx_cryp_des.c ****   *          2. Encrypt and decrypt using DES in ECB Mode using CRYP_DES_ECB()
  21:../STM32F2xx_StdPeriph_Driver/src/stm32f2xx_cryp_des.c ****   *             function.
  22:../STM32F2xx_StdPeriph_Driver/src/stm32f2xx_cryp_des.c ****   *
  23:../STM32F2xx_StdPeriph_Driver/src/stm32f2xx_cryp_des.c ****   *          3. Encrypt and decrypt using DES in CBC Mode using CRYP_DES_CBC()
  24:../STM32F2xx_StdPeriph_Driver/src/stm32f2xx_cryp_des.c ****   *             function.
  25:../STM32F2xx_StdPeriph_Driver/src/stm32f2xx_cryp_des.c ****   *
  26:../STM32F2xx_StdPeriph_Driver/src/stm32f2xx_cryp_des.c ****   *  @endverbatim
  27:../STM32F2xx_StdPeriph_Driver/src/stm32f2xx_cryp_des.c ****   *
  28:../STM32F2xx_StdPeriph_Driver/src/stm32f2xx_cryp_des.c ****   ******************************************************************************
  29:../STM32F2xx_StdPeriph_Driver/src/stm32f2xx_cryp_des.c ****   * @attention
  30:../STM32F2xx_StdPeriph_Driver/src/stm32f2xx_cryp_des.c ****   *
  31:../STM32F2xx_StdPeriph_Driver/src/stm32f2xx_cryp_des.c ****   * THE PRESENT FIRMWARE WHICH IS FOR GUIDANCE ONLY AIMS AT PROVIDING CUSTOMERS
  32:../STM32F2xx_StdPeriph_Driver/src/stm32f2xx_cryp_des.c ****   * WITH CODING INFORMATION REGARDING THEIR PRODUCTS IN ORDER FOR THEM TO SAVE
  33:../STM32F2xx_StdPeriph_Driver/src/stm32f2xx_cryp_des.c ****   * TIME. AS A RESULT, STMICROELECTRONICS SHALL NOT BE HELD LIABLE FOR ANY
  34:../STM32F2xx_StdPeriph_Driver/src/stm32f2xx_cryp_des.c ****   * DIRECT, INDIRECT OR CONSEQUENTIAL DAMAGES WITH RESPECT TO ANY CLAIMS ARISING
  35:../STM32F2xx_StdPeriph_Driver/src/stm32f2xx_cryp_des.c ****   * FROM THE CONTENT OF SUCH FIRMWARE AND/OR THE USE MADE BY CUSTOMERS OF THE
  36:../STM32F2xx_StdPeriph_Driver/src/stm32f2xx_cryp_des.c ****   * CODING INFORMATION CONTAINED HEREIN IN CONNECTION WITH THEIR PRODUCTS.
  37:../STM32F2xx_StdPeriph_Driver/src/stm32f2xx_cryp_des.c ****   *
  38:../STM32F2xx_StdPeriph_Driver/src/stm32f2xx_cryp_des.c ****   * <h2><center>&copy; COPYRIGHT 2011 STMicroelectronics</center></h2>
  39:../STM32F2xx_StdPeriph_Driver/src/stm32f2xx_cryp_des.c ****   ******************************************************************************
  40:../STM32F2xx_StdPeriph_Driver/src/stm32f2xx_cryp_des.c ****   */
  41:../STM32F2xx_StdPeriph_Driver/src/stm32f2xx_cryp_des.c **** 
  42:../STM32F2xx_StdPeriph_Driver/src/stm32f2xx_cryp_des.c **** /* Includes ------------------------------------------------------------------*/
  43:../STM32F2xx_StdPeriph_Driver/src/stm32f2xx_cryp_des.c **** #include "stm32f2xx_cryp.h"
  44:../STM32F2xx_StdPeriph_Driver/src/stm32f2xx_cryp_des.c **** 
  45:../STM32F2xx_StdPeriph_Driver/src/stm32f2xx_cryp_des.c **** 
  46:../STM32F2xx_StdPeriph_Driver/src/stm32f2xx_cryp_des.c **** /** @addtogroup STM32F2xx_StdPeriph_Driver
  47:../STM32F2xx_StdPeriph_Driver/src/stm32f2xx_cryp_des.c ****   * @{
  48:../STM32F2xx_StdPeriph_Driver/src/stm32f2xx_cryp_des.c ****   */
  49:../STM32F2xx_StdPeriph_Driver/src/stm32f2xx_cryp_des.c **** 
  50:../STM32F2xx_StdPeriph_Driver/src/stm32f2xx_cryp_des.c **** /** @defgroup CRYP 
  51:../STM32F2xx_StdPeriph_Driver/src/stm32f2xx_cryp_des.c ****   * @brief CRYP driver modules
  52:../STM32F2xx_StdPeriph_Driver/src/stm32f2xx_cryp_des.c ****   * @{
  53:../STM32F2xx_StdPeriph_Driver/src/stm32f2xx_cryp_des.c ****   */
  54:../STM32F2xx_StdPeriph_Driver/src/stm32f2xx_cryp_des.c **** 
  55:../STM32F2xx_StdPeriph_Driver/src/stm32f2xx_cryp_des.c **** /* Private typedef -----------------------------------------------------------*/
  56:../STM32F2xx_StdPeriph_Driver/src/stm32f2xx_cryp_des.c **** /* Private define ------------------------------------------------------------*/
  57:../STM32F2xx_StdPeriph_Driver/src/stm32f2xx_cryp_des.c **** #define DESBUSY_TIMEOUT    ((uint32_t) 0x00010000)
  58:../STM32F2xx_StdPeriph_Driver/src/stm32f2xx_cryp_des.c **** 
  59:../STM32F2xx_StdPeriph_Driver/src/stm32f2xx_cryp_des.c **** /* Private macro -------------------------------------------------------------*/
  60:../STM32F2xx_StdPeriph_Driver/src/stm32f2xx_cryp_des.c **** /* Private variables ---------------------------------------------------------*/
  61:../STM32F2xx_StdPeriph_Driver/src/stm32f2xx_cryp_des.c **** /* Private function prototypes -----------------------------------------------*/
  62:../STM32F2xx_StdPeriph_Driver/src/stm32f2xx_cryp_des.c **** /* Private functions ---------------------------------------------------------*/
  63:../STM32F2xx_StdPeriph_Driver/src/stm32f2xx_cryp_des.c **** 
  64:../STM32F2xx_StdPeriph_Driver/src/stm32f2xx_cryp_des.c **** 
  65:../STM32F2xx_StdPeriph_Driver/src/stm32f2xx_cryp_des.c **** /** @defgroup CRYP_Private_Functions
  66:../STM32F2xx_StdPeriph_Driver/src/stm32f2xx_cryp_des.c ****   * @{
  67:../STM32F2xx_StdPeriph_Driver/src/stm32f2xx_cryp_des.c ****   */ 
  68:../STM32F2xx_StdPeriph_Driver/src/stm32f2xx_cryp_des.c **** 
  69:../STM32F2xx_StdPeriph_Driver/src/stm32f2xx_cryp_des.c **** /** @defgroup CRYP_Group8 High Level DES functions
  70:../STM32F2xx_StdPeriph_Driver/src/stm32f2xx_cryp_des.c ****  *  @brief   High Level DES functions 
  71:../STM32F2xx_StdPeriph_Driver/src/stm32f2xx_cryp_des.c ****  *
  72:../STM32F2xx_StdPeriph_Driver/src/stm32f2xx_cryp_des.c **** @verbatim   
  73:../STM32F2xx_StdPeriph_Driver/src/stm32f2xx_cryp_des.c ****  ===============================================================================
  74:../STM32F2xx_StdPeriph_Driver/src/stm32f2xx_cryp_des.c ****                           High Level DES functions
  75:../STM32F2xx_StdPeriph_Driver/src/stm32f2xx_cryp_des.c ****  ===============================================================================
  76:../STM32F2xx_StdPeriph_Driver/src/stm32f2xx_cryp_des.c **** @endverbatim
  77:../STM32F2xx_StdPeriph_Driver/src/stm32f2xx_cryp_des.c ****   * @{
  78:../STM32F2xx_StdPeriph_Driver/src/stm32f2xx_cryp_des.c ****   */
  79:../STM32F2xx_StdPeriph_Driver/src/stm32f2xx_cryp_des.c **** 
  80:../STM32F2xx_StdPeriph_Driver/src/stm32f2xx_cryp_des.c **** /**
  81:../STM32F2xx_StdPeriph_Driver/src/stm32f2xx_cryp_des.c ****   * @brief  Encrypt and decrypt using DES in ECB Mode
  82:../STM32F2xx_StdPeriph_Driver/src/stm32f2xx_cryp_des.c ****   * @param  Mode: encryption or decryption Mode.
  83:../STM32F2xx_StdPeriph_Driver/src/stm32f2xx_cryp_des.c ****   *           This parameter can be one of the following values:
  84:../STM32F2xx_StdPeriph_Driver/src/stm32f2xx_cryp_des.c ****   *            @arg MODE_ENCRYPT: Encryption
  85:../STM32F2xx_StdPeriph_Driver/src/stm32f2xx_cryp_des.c ****   *            @arg MODE_DECRYPT: Decryption
  86:../STM32F2xx_StdPeriph_Driver/src/stm32f2xx_cryp_des.c ****   * @param  Key: Key used for DES algorithm.
  87:../STM32F2xx_StdPeriph_Driver/src/stm32f2xx_cryp_des.c ****   * @param  Ilength: length of the Input buffer, must be a multiple of 8.
  88:../STM32F2xx_StdPeriph_Driver/src/stm32f2xx_cryp_des.c ****   * @param  Input: pointer to the Input buffer.
  89:../STM32F2xx_StdPeriph_Driver/src/stm32f2xx_cryp_des.c ****   * @param  Output: pointer to the returned buffer.
  90:../STM32F2xx_StdPeriph_Driver/src/stm32f2xx_cryp_des.c ****   * @retval An ErrorStatus enumeration value:
  91:../STM32F2xx_StdPeriph_Driver/src/stm32f2xx_cryp_des.c ****   *          - SUCCESS: Operation done
  92:../STM32F2xx_StdPeriph_Driver/src/stm32f2xx_cryp_des.c ****   *          - ERROR: Operation failed
  93:../STM32F2xx_StdPeriph_Driver/src/stm32f2xx_cryp_des.c ****   */
  94:../STM32F2xx_StdPeriph_Driver/src/stm32f2xx_cryp_des.c **** ErrorStatus CRYP_DES_ECB(uint8_t Mode, uint8_t Key[8], uint8_t *Input, 
  95:../STM32F2xx_StdPeriph_Driver/src/stm32f2xx_cryp_des.c ****                          uint32_t Ilength, uint8_t *Output)
  96:../STM32F2xx_StdPeriph_Driver/src/stm32f2xx_cryp_des.c **** {
 23368              		.loc 1 96 0
 23369              		.cfi_startproc
 23370              		@ args = 4, pretend = 0, frame = 88
 23371              		@ frame_needed = 1, uses_anonymous_args = 0
 23372 0000 90B5     		push	{r4, r7, lr}
 23373              	.LCFI0:
 23374              		.cfi_def_cfa_offset 12
 23375 0002 97B0     		sub	sp, sp, #92
 23376              	.LCFI1:
 23377              		.cfi_def_cfa_offset 104
 23378 0004 00AF     		add	r7, sp, #0
 23379              		.cfi_offset 14, -4
 23380              		.cfi_offset 7, -8
 23381              		.cfi_offset 4, -12
 23382              	.LCFI2:
 23383              		.cfi_def_cfa_register 7
 23384 0006 B960     		str	r1, [r7, #8]
 23385 0008 7A60     		str	r2, [r7, #4]
 23386 000a 3B60     		str	r3, [r7, #0]
 23387 000c 0346     		mov	r3, r0
 23388 000e FB73     		strb	r3, [r7, #15]
  97:../STM32F2xx_StdPeriph_Driver/src/stm32f2xx_cryp_des.c ****   CRYP_InitTypeDef DES_CRYP_InitStructure;
  98:../STM32F2xx_StdPeriph_Driver/src/stm32f2xx_cryp_des.c ****   CRYP_KeyInitTypeDef DES_CRYP_KeyInitStructure;
  99:../STM32F2xx_StdPeriph_Driver/src/stm32f2xx_cryp_des.c ****   __IO uint32_t counter = 0;
 23389              		.loc 1 99 0
 23390 0010 4FF00003 		mov	r3, #0
 23391 0014 7B61     		str	r3, [r7, #20]
 100:../STM32F2xx_StdPeriph_Driver/src/stm32f2xx_cryp_des.c ****   uint32_t busystatus = 0;
 23392              		.loc 1 100 0
 23393 0016 4FF00003 		mov	r3, #0
 23394 001a 7B64     		str	r3, [r7, #68]
 101:../STM32F2xx_StdPeriph_Driver/src/stm32f2xx_cryp_des.c ****   ErrorStatus status = SUCCESS;
 23395              		.loc 1 101 0
 23396 001c 4FF00103 		mov	r3, #1
 23397 0020 87F85730 		strb	r3, [r7, #87]
 102:../STM32F2xx_StdPeriph_Driver/src/stm32f2xx_cryp_des.c ****   uint32_t keyaddr    = (uint32_t)Key;
 23398              		.loc 1 102 0
 23399 0024 BB68     		ldr	r3, [r7, #8]
 23400 0026 3B64     		str	r3, [r7, #64]
 103:../STM32F2xx_StdPeriph_Driver/src/stm32f2xx_cryp_des.c ****   uint32_t inputaddr  = (uint32_t)Input;
 23401              		.loc 1 103 0
 23402 0028 7B68     		ldr	r3, [r7, #4]
 23403 002a 3B65     		str	r3, [r7, #80]
 104:../STM32F2xx_StdPeriph_Driver/src/stm32f2xx_cryp_des.c ****   uint32_t outputaddr = (uint32_t)Output;
 23404              		.loc 1 104 0
 23405 002c BB6E     		ldr	r3, [r7, #104]
 23406 002e FB64     		str	r3, [r7, #76]
 105:../STM32F2xx_StdPeriph_Driver/src/stm32f2xx_cryp_des.c ****   uint32_t i = 0;
 23407              		.loc 1 105 0
 23408 0030 4FF00003 		mov	r3, #0
 23409 0034 BB64     		str	r3, [r7, #72]
 106:../STM32F2xx_StdPeriph_Driver/src/stm32f2xx_cryp_des.c **** 
 107:../STM32F2xx_StdPeriph_Driver/src/stm32f2xx_cryp_des.c ****   /* Crypto structures initialisation*/
 108:../STM32F2xx_StdPeriph_Driver/src/stm32f2xx_cryp_des.c ****   CRYP_KeyStructInit(&DES_CRYP_KeyInitStructure);
 23410              		.loc 1 108 0
 23411 0036 07F11803 		add	r3, r7, #24
 23412 003a 1846     		mov	r0, r3
 23413 003c FFF7FEFF 		bl	CRYP_KeyStructInit
 109:../STM32F2xx_StdPeriph_Driver/src/stm32f2xx_cryp_des.c **** 
 110:../STM32F2xx_StdPeriph_Driver/src/stm32f2xx_cryp_des.c ****   /* Crypto Init for Encryption process */
 111:../STM32F2xx_StdPeriph_Driver/src/stm32f2xx_cryp_des.c ****   if( Mode == MODE_ENCRYPT ) /* DES encryption */
 23414              		.loc 1 111 0
 23415 0040 FB7B     		ldrb	r3, [r7, #15]	@ zero_extendqisi2
 23416 0042 012B     		cmp	r3, #1
 23417 0044 03D1     		bne	.L2
 112:../STM32F2xx_StdPeriph_Driver/src/stm32f2xx_cryp_des.c ****   {
 113:../STM32F2xx_StdPeriph_Driver/src/stm32f2xx_cryp_des.c ****      DES_CRYP_InitStructure.CRYP_AlgoDir  = CRYP_AlgoDir_Encrypt;
 23418              		.loc 1 113 0
 23419 0046 4FF00003 		mov	r3, #0
 23420 004a 3B87     		strh	r3, [r7, #56]	@ movhi
 23421 004c 02E0     		b	.L3
 23422              	.L2:
 114:../STM32F2xx_StdPeriph_Driver/src/stm32f2xx_cryp_des.c ****   }
 115:../STM32F2xx_StdPeriph_Driver/src/stm32f2xx_cryp_des.c ****   else/* if( Mode == MODE_DECRYPT )*/ /* DES decryption */
 116:../STM32F2xx_StdPeriph_Driver/src/stm32f2xx_cryp_des.c ****   {      
 117:../STM32F2xx_StdPeriph_Driver/src/stm32f2xx_cryp_des.c ****      DES_CRYP_InitStructure.CRYP_AlgoDir  = CRYP_AlgoDir_Decrypt;
 23423              		.loc 1 117 0
 23424 004e 4FF00403 		mov	r3, #4
 23425 0052 3B87     		strh	r3, [r7, #56]	@ movhi
 23426              	.L3:
 118:../STM32F2xx_StdPeriph_Driver/src/stm32f2xx_cryp_des.c ****   }
 119:../STM32F2xx_StdPeriph_Driver/src/stm32f2xx_cryp_des.c **** 
 120:../STM32F2xx_StdPeriph_Driver/src/stm32f2xx_cryp_des.c ****   DES_CRYP_InitStructure.CRYP_AlgoMode = CRYP_AlgoMode_DES_ECB;
 23427              		.loc 1 120 0
 23428 0054 4FF01003 		mov	r3, #16
 23429 0058 7B87     		strh	r3, [r7, #58]	@ movhi
 121:../STM32F2xx_StdPeriph_Driver/src/stm32f2xx_cryp_des.c ****   DES_CRYP_InitStructure.CRYP_DataType = CRYP_DataType_8b;
 23430              		.loc 1 121 0
 23431 005a 4FF08003 		mov	r3, #128
 23432 005e BB87     		strh	r3, [r7, #60]	@ movhi
 122:../STM32F2xx_StdPeriph_Driver/src/stm32f2xx_cryp_des.c ****   CRYP_Init(&DES_CRYP_InitStructure);
 23433              		.loc 1 122 0
 23434 0060 07F13803 		add	r3, r7, #56
 23435 0064 1846     		mov	r0, r3
 23436 0066 FFF7FEFF 		bl	CRYP_Init
 123:../STM32F2xx_StdPeriph_Driver/src/stm32f2xx_cryp_des.c **** 
 124:../STM32F2xx_StdPeriph_Driver/src/stm32f2xx_cryp_des.c ****   /* Key Initialisation */
 125:../STM32F2xx_StdPeriph_Driver/src/stm32f2xx_cryp_des.c ****   DES_CRYP_KeyInitStructure.CRYP_Key1Left = __REV(*(uint32_t*)(keyaddr));
 23437              		.loc 1 125 0
 23438 006a 3B6C     		ldr	r3, [r7, #64]
 23439 006c 1B68     		ldr	r3, [r3, #0]
 23440 006e 1846     		mov	r0, r3
 23441 0070 FFF7FEFF 		bl	__REV
 23442 0074 0346     		mov	r3, r0
 23443 0076 3B62     		str	r3, [r7, #32]
 126:../STM32F2xx_StdPeriph_Driver/src/stm32f2xx_cryp_des.c ****   keyaddr+=4;
 23444              		.loc 1 126 0
 23445 0078 3B6C     		ldr	r3, [r7, #64]
 23446 007a 03F10403 		add	r3, r3, #4
 23447 007e 3B64     		str	r3, [r7, #64]
 127:../STM32F2xx_StdPeriph_Driver/src/stm32f2xx_cryp_des.c ****   DES_CRYP_KeyInitStructure.CRYP_Key1Right= __REV(*(uint32_t*)(keyaddr));
 23448              		.loc 1 127 0
 23449 0080 3B6C     		ldr	r3, [r7, #64]
 23450 0082 1B68     		ldr	r3, [r3, #0]
 23451 0084 1846     		mov	r0, r3
 23452 0086 FFF7FEFF 		bl	__REV
 23453 008a 0346     		mov	r3, r0
 23454 008c 7B62     		str	r3, [r7, #36]
 128:../STM32F2xx_StdPeriph_Driver/src/stm32f2xx_cryp_des.c ****   CRYP_KeyInit(& DES_CRYP_KeyInitStructure);
 23455              		.loc 1 128 0
 23456 008e 07F11803 		add	r3, r7, #24
 23457 0092 1846     		mov	r0, r3
 23458 0094 FFF7FEFF 		bl	CRYP_KeyInit
 129:../STM32F2xx_StdPeriph_Driver/src/stm32f2xx_cryp_des.c **** 
 130:../STM32F2xx_StdPeriph_Driver/src/stm32f2xx_cryp_des.c ****   /* Flush IN/OUT FIFO */
 131:../STM32F2xx_StdPeriph_Driver/src/stm32f2xx_cryp_des.c ****   CRYP_FIFOFlush();
 23459              		.loc 1 131 0
 23460 0098 FFF7FEFF 		bl	CRYP_FIFOFlush
 132:../STM32F2xx_StdPeriph_Driver/src/stm32f2xx_cryp_des.c **** 
 133:../STM32F2xx_StdPeriph_Driver/src/stm32f2xx_cryp_des.c ****   /* Enable Crypto processor */
 134:../STM32F2xx_StdPeriph_Driver/src/stm32f2xx_cryp_des.c ****   CRYP_Cmd(ENABLE);
 23461              		.loc 1 134 0
 23462 009c 4FF00100 		mov	r0, #1
 23463 00a0 FFF7FEFF 		bl	CRYP_Cmd
 135:../STM32F2xx_StdPeriph_Driver/src/stm32f2xx_cryp_des.c **** 
 136:../STM32F2xx_StdPeriph_Driver/src/stm32f2xx_cryp_des.c ****   for(i=0; ((i<Ilength) && (status != ERROR)); i+=8)
 23464              		.loc 1 136 0
 23465 00a4 4FF00003 		mov	r3, #0
 23466 00a8 BB64     		str	r3, [r7, #72]
 23467 00aa 43E0     		b	.L4
 23468              	.L10:
 137:../STM32F2xx_StdPeriph_Driver/src/stm32f2xx_cryp_des.c ****   {
 138:../STM32F2xx_StdPeriph_Driver/src/stm32f2xx_cryp_des.c **** 
 139:../STM32F2xx_StdPeriph_Driver/src/stm32f2xx_cryp_des.c ****     /* Write the Input block in the Input FIFO */
 140:../STM32F2xx_StdPeriph_Driver/src/stm32f2xx_cryp_des.c ****     CRYP_DataIn(*(uint32_t*)(inputaddr));
 23469              		.loc 1 140 0
 23470 00ac 3B6D     		ldr	r3, [r7, #80]
 23471 00ae 1B68     		ldr	r3, [r3, #0]
 23472 00b0 1846     		mov	r0, r3
 23473 00b2 FFF7FEFF 		bl	CRYP_DataIn
 141:../STM32F2xx_StdPeriph_Driver/src/stm32f2xx_cryp_des.c ****     inputaddr+=4;
 23474              		.loc 1 141 0
 23475 00b6 3B6D     		ldr	r3, [r7, #80]
 23476 00b8 03F10403 		add	r3, r3, #4
 23477 00bc 3B65     		str	r3, [r7, #80]
 142:../STM32F2xx_StdPeriph_Driver/src/stm32f2xx_cryp_des.c ****     CRYP_DataIn(*(uint32_t*)(inputaddr));
 23478              		.loc 1 142 0
 23479 00be 3B6D     		ldr	r3, [r7, #80]
 23480 00c0 1B68     		ldr	r3, [r3, #0]
 23481 00c2 1846     		mov	r0, r3
 23482 00c4 FFF7FEFF 		bl	CRYP_DataIn
 143:../STM32F2xx_StdPeriph_Driver/src/stm32f2xx_cryp_des.c ****     inputaddr+=4;
 23483              		.loc 1 143 0
 23484 00c8 3B6D     		ldr	r3, [r7, #80]
 23485 00ca 03F10403 		add	r3, r3, #4
 23486 00ce 3B65     		str	r3, [r7, #80]
 144:../STM32F2xx_StdPeriph_Driver/src/stm32f2xx_cryp_des.c **** 
 145:../STM32F2xx_StdPeriph_Driver/src/stm32f2xx_cryp_des.c **** /* Wait until the complete message has been processed */
 146:../STM32F2xx_StdPeriph_Driver/src/stm32f2xx_cryp_des.c ****     counter = 0;
 23487              		.loc 1 146 0
 23488 00d0 4FF00003 		mov	r3, #0
 23489 00d4 7B61     		str	r3, [r7, #20]
 23490              	.L6:
 147:../STM32F2xx_StdPeriph_Driver/src/stm32f2xx_cryp_des.c ****     do
 148:../STM32F2xx_StdPeriph_Driver/src/stm32f2xx_cryp_des.c ****     {
 149:../STM32F2xx_StdPeriph_Driver/src/stm32f2xx_cryp_des.c ****       busystatus = CRYP_GetFlagStatus(CRYP_FLAG_BUSY);
 23491              		.loc 1 149 0 discriminator 1
 23492 00d6 4FF01000 		mov	r0, #16
 23493 00da FFF7FEFF 		bl	CRYP_GetFlagStatus
 23494 00de 0346     		mov	r3, r0
 23495 00e0 7B64     		str	r3, [r7, #68]
 150:../STM32F2xx_StdPeriph_Driver/src/stm32f2xx_cryp_des.c ****       counter++;
 23496              		.loc 1 150 0 discriminator 1
 23497 00e2 7B69     		ldr	r3, [r7, #20]
 23498 00e4 03F10103 		add	r3, r3, #1
 23499 00e8 7B61     		str	r3, [r7, #20]
 151:../STM32F2xx_StdPeriph_Driver/src/stm32f2xx_cryp_des.c ****     }while ((counter != DESBUSY_TIMEOUT) && (busystatus != RESET));
 23500              		.loc 1 151 0 discriminator 1
 23501 00ea 7B69     		ldr	r3, [r7, #20]
 23502 00ec B3F5803F 		cmp	r3, #65536
 23503 00f0 02D0     		beq	.L5
 23504 00f2 7B6C     		ldr	r3, [r7, #68]
 23505 00f4 002B     		cmp	r3, #0
 23506 00f6 EED1     		bne	.L6
 23507              	.L5:
 152:../STM32F2xx_StdPeriph_Driver/src/stm32f2xx_cryp_des.c **** 
 153:../STM32F2xx_StdPeriph_Driver/src/stm32f2xx_cryp_des.c ****     if (busystatus != RESET)
 23508              		.loc 1 153 0
 23509 00f8 7B6C     		ldr	r3, [r7, #68]
 23510 00fa 002B     		cmp	r3, #0
 23511 00fc 04D0     		beq	.L7
 154:../STM32F2xx_StdPeriph_Driver/src/stm32f2xx_cryp_des.c ****    {
 155:../STM32F2xx_StdPeriph_Driver/src/stm32f2xx_cryp_des.c ****        status = ERROR;
 23512              		.loc 1 155 0
 23513 00fe 4FF00003 		mov	r3, #0
 23514 0102 87F85730 		strb	r3, [r7, #87]
 23515 0106 11E0     		b	.L8
 23516              	.L7:
 156:../STM32F2xx_StdPeriph_Driver/src/stm32f2xx_cryp_des.c ****     }
 157:../STM32F2xx_StdPeriph_Driver/src/stm32f2xx_cryp_des.c ****     else
 158:../STM32F2xx_StdPeriph_Driver/src/stm32f2xx_cryp_des.c ****     {
 159:../STM32F2xx_StdPeriph_Driver/src/stm32f2xx_cryp_des.c **** 
 160:../STM32F2xx_StdPeriph_Driver/src/stm32f2xx_cryp_des.c ****       /* Read the Output block from the Output FIFO */
 161:../STM32F2xx_StdPeriph_Driver/src/stm32f2xx_cryp_des.c ****       *(uint32_t*)(outputaddr) = CRYP_DataOut();
 23517              		.loc 1 161 0
 23518 0108 FC6C     		ldr	r4, [r7, #76]
 23519 010a FFF7FEFF 		bl	CRYP_DataOut
 23520 010e 0346     		mov	r3, r0
 23521 0110 2360     		str	r3, [r4, #0]
 162:../STM32F2xx_StdPeriph_Driver/src/stm32f2xx_cryp_des.c ****       outputaddr+=4;
 23522              		.loc 1 162 0
 23523 0112 FB6C     		ldr	r3, [r7, #76]
 23524 0114 03F10403 		add	r3, r3, #4
 23525 0118 FB64     		str	r3, [r7, #76]
 163:../STM32F2xx_StdPeriph_Driver/src/stm32f2xx_cryp_des.c ****       *(uint32_t*)(outputaddr) = CRYP_DataOut();
 23526              		.loc 1 163 0
 23527 011a FC6C     		ldr	r4, [r7, #76]
 23528 011c FFF7FEFF 		bl	CRYP_DataOut
 23529 0120 0346     		mov	r3, r0
 23530 0122 2360     		str	r3, [r4, #0]
 164:../STM32F2xx_StdPeriph_Driver/src/stm32f2xx_cryp_des.c ****       outputaddr+=4;
 23531              		.loc 1 164 0
 23532 0124 FB6C     		ldr	r3, [r7, #76]
 23533 0126 03F10403 		add	r3, r3, #4
 23534 012a FB64     		str	r3, [r7, #76]
 23535              	.L8:
 136:../STM32F2xx_StdPeriph_Driver/src/stm32f2xx_cryp_des.c ****   for(i=0; ((i<Ilength) && (status != ERROR)); i+=8)
 23536              		.loc 1 136 0
 23537 012c BB6C     		ldr	r3, [r7, #72]
 23538 012e 03F10803 		add	r3, r3, #8
 23539 0132 BB64     		str	r3, [r7, #72]
 23540              	.L4:
 136:../STM32F2xx_StdPeriph_Driver/src/stm32f2xx_cryp_des.c ****   for(i=0; ((i<Ilength) && (status != ERROR)); i+=8)
 23541              		.loc 1 136 0 is_stmt 0 discriminator 1
 23542 0134 BA6C     		ldr	r2, [r7, #72]
 23543 0136 3B68     		ldr	r3, [r7, #0]
 23544 0138 9A42     		cmp	r2, r3
 23545 013a 03D2     		bcs	.L9
 136:../STM32F2xx_StdPeriph_Driver/src/stm32f2xx_cryp_des.c ****   for(i=0; ((i<Ilength) && (status != ERROR)); i+=8)
 23546              		.loc 1 136 0 discriminator 2
 23547 013c 97F85730 		ldrb	r3, [r7, #87]	@ zero_extendqisi2
 23548 0140 002B     		cmp	r3, #0
 23549 0142 B3D1     		bne	.L10
 23550              	.L9:
 165:../STM32F2xx_StdPeriph_Driver/src/stm32f2xx_cryp_des.c ****     }
 166:../STM32F2xx_StdPeriph_Driver/src/stm32f2xx_cryp_des.c ****   }
 167:../STM32F2xx_StdPeriph_Driver/src/stm32f2xx_cryp_des.c **** 
 168:../STM32F2xx_StdPeriph_Driver/src/stm32f2xx_cryp_des.c ****   /* Disable Crypto */
 169:../STM32F2xx_StdPeriph_Driver/src/stm32f2xx_cryp_des.c ****   CRYP_Cmd(DISABLE);
 23551              		.loc 1 169 0 is_stmt 1
 23552 0144 4FF00000 		mov	r0, #0
 23553 0148 FFF7FEFF 		bl	CRYP_Cmd
 170:../STM32F2xx_StdPeriph_Driver/src/stm32f2xx_cryp_des.c **** 
 171:../STM32F2xx_StdPeriph_Driver/src/stm32f2xx_cryp_des.c ****   return status; 
 23554              		.loc 1 171 0
 23555 014c 97F85730 		ldrb	r3, [r7, #87]	@ zero_extendqisi2
 172:../STM32F2xx_StdPeriph_Driver/src/stm32f2xx_cryp_des.c **** }
 23556              		.loc 1 172 0
 23557 0150 1846     		mov	r0, r3
 23558 0152 07F15C07 		add	r7, r7, #92
 23559 0156 BD46     		mov	sp, r7
 23560 0158 90BD     		pop	{r4, r7, pc}
 23561              		.cfi_endproc
 23562              	.LFE29:
 23564 015a 00BF     		.align	2
 23565              		.global	CRYP_DES_CBC
 23566              		.thumb
 23567              		.thumb_func
 23569              	CRYP_DES_CBC:
 23570              	.LFB30:
 173:../STM32F2xx_StdPeriph_Driver/src/stm32f2xx_cryp_des.c **** 
 174:../STM32F2xx_StdPeriph_Driver/src/stm32f2xx_cryp_des.c **** /**
 175:../STM32F2xx_StdPeriph_Driver/src/stm32f2xx_cryp_des.c ****   * @brief  Encrypt and decrypt using DES in CBC Mode
 176:../STM32F2xx_StdPeriph_Driver/src/stm32f2xx_cryp_des.c ****   * @param  Mode: encryption or decryption Mode.
 177:../STM32F2xx_StdPeriph_Driver/src/stm32f2xx_cryp_des.c ****   *          This parameter can be one of the following values:
 178:../STM32F2xx_StdPeriph_Driver/src/stm32f2xx_cryp_des.c ****   *            @arg MODE_ENCRYPT: Encryption
 179:../STM32F2xx_StdPeriph_Driver/src/stm32f2xx_cryp_des.c ****   *            @arg MODE_DECRYPT: Decryption
 180:../STM32F2xx_StdPeriph_Driver/src/stm32f2xx_cryp_des.c ****   * @param  Key: Key used for DES algorithm.
 181:../STM32F2xx_StdPeriph_Driver/src/stm32f2xx_cryp_des.c ****   * @param  InitVectors: Initialisation Vectors used for DES algorithm.
 182:../STM32F2xx_StdPeriph_Driver/src/stm32f2xx_cryp_des.c ****   * @param  Ilength: length of the Input buffer, must be a multiple of 8.
 183:../STM32F2xx_StdPeriph_Driver/src/stm32f2xx_cryp_des.c ****   * @param  Input: pointer to the Input buffer.
 184:../STM32F2xx_StdPeriph_Driver/src/stm32f2xx_cryp_des.c ****   * @param  Output: pointer to the returned buffer.
 185:../STM32F2xx_StdPeriph_Driver/src/stm32f2xx_cryp_des.c ****   * @retval An ErrorStatus enumeration value:
 186:../STM32F2xx_StdPeriph_Driver/src/stm32f2xx_cryp_des.c ****   *          - SUCCESS: Operation done
 187:../STM32F2xx_StdPeriph_Driver/src/stm32f2xx_cryp_des.c ****   *          - ERROR: Operation failed
 188:../STM32F2xx_StdPeriph_Driver/src/stm32f2xx_cryp_des.c ****   */
 189:../STM32F2xx_StdPeriph_Driver/src/stm32f2xx_cryp_des.c **** ErrorStatus CRYP_DES_CBC(uint8_t Mode, uint8_t Key[8], uint8_t InitVectors[8],
 190:../STM32F2xx_StdPeriph_Driver/src/stm32f2xx_cryp_des.c ****                          uint8_t *Input, uint32_t Ilength, uint8_t *Output)
 191:../STM32F2xx_StdPeriph_Driver/src/stm32f2xx_cryp_des.c **** {
 23571              		.loc 1 191 0
 23572              		.cfi_startproc
 23573              		@ args = 8, pretend = 0, frame = 104
 23574              		@ frame_needed = 1, uses_anonymous_args = 0
 23575 015c 90B5     		push	{r4, r7, lr}
 23576              	.LCFI3:
 23577              		.cfi_def_cfa_offset 12
 23578 015e 9BB0     		sub	sp, sp, #108
 23579              	.LCFI4:
 23580              		.cfi_def_cfa_offset 120
 23581 0160 00AF     		add	r7, sp, #0
 23582              		.cfi_offset 14, -4
 23583              		.cfi_offset 7, -8
 23584              		.cfi_offset 4, -12
 23585              	.LCFI5:
 23586              		.cfi_def_cfa_register 7
 23587 0162 B960     		str	r1, [r7, #8]
 23588 0164 7A60     		str	r2, [r7, #4]
 23589 0166 3B60     		str	r3, [r7, #0]
 23590 0168 0346     		mov	r3, r0
 23591 016a FB73     		strb	r3, [r7, #15]
 192:../STM32F2xx_StdPeriph_Driver/src/stm32f2xx_cryp_des.c ****   CRYP_InitTypeDef DES_CRYP_InitStructure;
 193:../STM32F2xx_StdPeriph_Driver/src/stm32f2xx_cryp_des.c ****   CRYP_KeyInitTypeDef DES_CRYP_KeyInitStructure;
 194:../STM32F2xx_StdPeriph_Driver/src/stm32f2xx_cryp_des.c ****   CRYP_IVInitTypeDef DES_CRYP_IVInitStructure;
 195:../STM32F2xx_StdPeriph_Driver/src/stm32f2xx_cryp_des.c ****   __IO uint32_t counter = 0;
 23592              		.loc 1 195 0
 23593 016c 4FF00003 		mov	r3, #0
 23594 0170 3B61     		str	r3, [r7, #16]
 196:../STM32F2xx_StdPeriph_Driver/src/stm32f2xx_cryp_des.c ****   uint32_t busystatus = 0;
 23595              		.loc 1 196 0
 23596 0172 4FF00003 		mov	r3, #0
 23597 0176 7B65     		str	r3, [r7, #84]
 197:../STM32F2xx_StdPeriph_Driver/src/stm32f2xx_cryp_des.c ****   ErrorStatus status = SUCCESS;
 23598              		.loc 1 197 0
 23599 0178 4FF00103 		mov	r3, #1
 23600 017c 87F86730 		strb	r3, [r7, #103]
 198:../STM32F2xx_StdPeriph_Driver/src/stm32f2xx_cryp_des.c ****   uint32_t keyaddr    = (uint32_t)Key;
 23601              		.loc 1 198 0
 23602 0180 BB68     		ldr	r3, [r7, #8]
 23603 0182 3B65     		str	r3, [r7, #80]
 199:../STM32F2xx_StdPeriph_Driver/src/stm32f2xx_cryp_des.c ****   uint32_t inputaddr  = (uint32_t)Input;
 23604              		.loc 1 199 0
 23605 0184 3B68     		ldr	r3, [r7, #0]
 23606 0186 3B66     		str	r3, [r7, #96]
 200:../STM32F2xx_StdPeriph_Driver/src/stm32f2xx_cryp_des.c ****   uint32_t outputaddr = (uint32_t)Output;
 23607              		.loc 1 200 0
 23608 0188 FB6F     		ldr	r3, [r7, #124]
 23609 018a FB65     		str	r3, [r7, #92]
 201:../STM32F2xx_StdPeriph_Driver/src/stm32f2xx_cryp_des.c ****   uint32_t ivaddr     = (uint32_t)InitVectors;
 23610              		.loc 1 201 0
 23611 018c 7B68     		ldr	r3, [r7, #4]
 23612 018e FB64     		str	r3, [r7, #76]
 202:../STM32F2xx_StdPeriph_Driver/src/stm32f2xx_cryp_des.c ****   uint32_t i = 0;
 23613              		.loc 1 202 0
 23614 0190 4FF00003 		mov	r3, #0
 23615 0194 BB65     		str	r3, [r7, #88]
 203:../STM32F2xx_StdPeriph_Driver/src/stm32f2xx_cryp_des.c **** 
 204:../STM32F2xx_StdPeriph_Driver/src/stm32f2xx_cryp_des.c ****   /* Crypto structures initialisation*/
 205:../STM32F2xx_StdPeriph_Driver/src/stm32f2xx_cryp_des.c ****   CRYP_KeyStructInit(&DES_CRYP_KeyInitStructure);
 23616              		.loc 1 205 0
 23617 0196 07F12403 		add	r3, r7, #36
 23618 019a 1846     		mov	r0, r3
 23619 019c FFF7FEFF 		bl	CRYP_KeyStructInit
 206:../STM32F2xx_StdPeriph_Driver/src/stm32f2xx_cryp_des.c **** 
 207:../STM32F2xx_StdPeriph_Driver/src/stm32f2xx_cryp_des.c ****   /* Crypto Init for Encryption process */
 208:../STM32F2xx_StdPeriph_Driver/src/stm32f2xx_cryp_des.c ****   if(Mode == MODE_ENCRYPT) /* DES encryption */
 23620              		.loc 1 208 0
 23621 01a0 FB7B     		ldrb	r3, [r7, #15]	@ zero_extendqisi2
 23622 01a2 012B     		cmp	r3, #1
 23623 01a4 04D1     		bne	.L12
 209:../STM32F2xx_StdPeriph_Driver/src/stm32f2xx_cryp_des.c ****   {
 210:../STM32F2xx_StdPeriph_Driver/src/stm32f2xx_cryp_des.c ****      DES_CRYP_InitStructure.CRYP_AlgoDir  = CRYP_AlgoDir_Encrypt;
 23624              		.loc 1 210 0
 23625 01a6 4FF00003 		mov	r3, #0
 23626 01aa A7F84430 		strh	r3, [r7, #68]	@ movhi
 23627 01ae 03E0     		b	.L13
 23628              	.L12:
 211:../STM32F2xx_StdPeriph_Driver/src/stm32f2xx_cryp_des.c ****   }
 212:../STM32F2xx_StdPeriph_Driver/src/stm32f2xx_cryp_des.c ****   else /*if(Mode == MODE_DECRYPT)*/ /* DES decryption */
 213:../STM32F2xx_StdPeriph_Driver/src/stm32f2xx_cryp_des.c ****   {
 214:../STM32F2xx_StdPeriph_Driver/src/stm32f2xx_cryp_des.c ****      DES_CRYP_InitStructure.CRYP_AlgoDir  = CRYP_AlgoDir_Decrypt;
 23629              		.loc 1 214 0
 23630 01b0 4FF00403 		mov	r3, #4
 23631 01b4 A7F84430 		strh	r3, [r7, #68]	@ movhi
 23632              	.L13:
 215:../STM32F2xx_StdPeriph_Driver/src/stm32f2xx_cryp_des.c ****   }
 216:../STM32F2xx_StdPeriph_Driver/src/stm32f2xx_cryp_des.c **** 
 217:../STM32F2xx_StdPeriph_Driver/src/stm32f2xx_cryp_des.c ****   DES_CRYP_InitStructure.CRYP_AlgoMode = CRYP_AlgoMode_DES_CBC;
 23633              		.loc 1 217 0
 23634 01b8 4FF01803 		mov	r3, #24
 23635 01bc A7F84630 		strh	r3, [r7, #70]	@ movhi
 218:../STM32F2xx_StdPeriph_Driver/src/stm32f2xx_cryp_des.c ****   DES_CRYP_InitStructure.CRYP_DataType = CRYP_DataType_8b;
 23636              		.loc 1 218 0
 23637 01c0 4FF08003 		mov	r3, #128
 23638 01c4 A7F84830 		strh	r3, [r7, #72]	@ movhi
 219:../STM32F2xx_StdPeriph_Driver/src/stm32f2xx_cryp_des.c ****   CRYP_Init(&DES_CRYP_InitStructure);
 23639              		.loc 1 219 0
 23640 01c8 07F14403 		add	r3, r7, #68
 23641 01cc 1846     		mov	r0, r3
 23642 01ce FFF7FEFF 		bl	CRYP_Init
 220:../STM32F2xx_StdPeriph_Driver/src/stm32f2xx_cryp_des.c **** 
 221:../STM32F2xx_StdPeriph_Driver/src/stm32f2xx_cryp_des.c ****   /* Key Initialisation */
 222:../STM32F2xx_StdPeriph_Driver/src/stm32f2xx_cryp_des.c ****   DES_CRYP_KeyInitStructure.CRYP_Key1Left = __REV(*(uint32_t*)(keyaddr));
 23643              		.loc 1 222 0
 23644 01d2 3B6D     		ldr	r3, [r7, #80]
 23645 01d4 1B68     		ldr	r3, [r3, #0]
 23646 01d6 1846     		mov	r0, r3
 23647 01d8 FFF7FEFF 		bl	__REV
 23648 01dc 0346     		mov	r3, r0
 23649 01de FB62     		str	r3, [r7, #44]
 223:../STM32F2xx_StdPeriph_Driver/src/stm32f2xx_cryp_des.c ****   keyaddr+=4;
 23650              		.loc 1 223 0
 23651 01e0 3B6D     		ldr	r3, [r7, #80]
 23652 01e2 03F10403 		add	r3, r3, #4
 23653 01e6 3B65     		str	r3, [r7, #80]
 224:../STM32F2xx_StdPeriph_Driver/src/stm32f2xx_cryp_des.c ****   DES_CRYP_KeyInitStructure.CRYP_Key1Right= __REV(*(uint32_t*)(keyaddr));
 23654              		.loc 1 224 0
 23655 01e8 3B6D     		ldr	r3, [r7, #80]
 23656 01ea 1B68     		ldr	r3, [r3, #0]
 23657 01ec 1846     		mov	r0, r3
 23658 01ee FFF7FEFF 		bl	__REV
 23659 01f2 0346     		mov	r3, r0
 23660 01f4 3B63     		str	r3, [r7, #48]
 225:../STM32F2xx_StdPeriph_Driver/src/stm32f2xx_cryp_des.c ****   CRYP_KeyInit(& DES_CRYP_KeyInitStructure);
 23661              		.loc 1 225 0
 23662 01f6 07F12403 		add	r3, r7, #36
 23663 01fa 1846     		mov	r0, r3
 23664 01fc FFF7FEFF 		bl	CRYP_KeyInit
 226:../STM32F2xx_StdPeriph_Driver/src/stm32f2xx_cryp_des.c **** 
 227:../STM32F2xx_StdPeriph_Driver/src/stm32f2xx_cryp_des.c ****   /* Initialization Vectors */
 228:../STM32F2xx_StdPeriph_Driver/src/stm32f2xx_cryp_des.c ****   DES_CRYP_IVInitStructure.CRYP_IV0Left = __REV(*(uint32_t*)(ivaddr));
 23665              		.loc 1 228 0
 23666 0200 FB6C     		ldr	r3, [r7, #76]
 23667 0202 1B68     		ldr	r3, [r3, #0]
 23668 0204 1846     		mov	r0, r3
 23669 0206 FFF7FEFF 		bl	__REV
 23670 020a 0346     		mov	r3, r0
 23671 020c 7B61     		str	r3, [r7, #20]
 229:../STM32F2xx_StdPeriph_Driver/src/stm32f2xx_cryp_des.c ****   ivaddr+=4;
 23672              		.loc 1 229 0
 23673 020e FB6C     		ldr	r3, [r7, #76]
 23674 0210 03F10403 		add	r3, r3, #4
 23675 0214 FB64     		str	r3, [r7, #76]
 230:../STM32F2xx_StdPeriph_Driver/src/stm32f2xx_cryp_des.c ****   DES_CRYP_IVInitStructure.CRYP_IV0Right= __REV(*(uint32_t*)(ivaddr));
 23676              		.loc 1 230 0
 23677 0216 FB6C     		ldr	r3, [r7, #76]
 23678 0218 1B68     		ldr	r3, [r3, #0]
 23679 021a 1846     		mov	r0, r3
 23680 021c FFF7FEFF 		bl	__REV
 23681 0220 0346     		mov	r3, r0
 23682 0222 BB61     		str	r3, [r7, #24]
 231:../STM32F2xx_StdPeriph_Driver/src/stm32f2xx_cryp_des.c ****   CRYP_IVInit(&DES_CRYP_IVInitStructure);
 23683              		.loc 1 231 0
 23684 0224 07F11403 		add	r3, r7, #20
 23685 0228 1846     		mov	r0, r3
 23686 022a FFF7FEFF 		bl	CRYP_IVInit
 232:../STM32F2xx_StdPeriph_Driver/src/stm32f2xx_cryp_des.c **** 
 233:../STM32F2xx_StdPeriph_Driver/src/stm32f2xx_cryp_des.c ****   /* Flush IN/OUT FIFO */
 234:../STM32F2xx_StdPeriph_Driver/src/stm32f2xx_cryp_des.c ****   CRYP_FIFOFlush();
 23687              		.loc 1 234 0
 23688 022e FFF7FEFF 		bl	CRYP_FIFOFlush
 235:../STM32F2xx_StdPeriph_Driver/src/stm32f2xx_cryp_des.c ****   
 236:../STM32F2xx_StdPeriph_Driver/src/stm32f2xx_cryp_des.c ****   /* Enable Crypto processor */
 237:../STM32F2xx_StdPeriph_Driver/src/stm32f2xx_cryp_des.c ****   CRYP_Cmd(ENABLE);
 23689              		.loc 1 237 0
 23690 0232 4FF00100 		mov	r0, #1
 23691 0236 FFF7FEFF 		bl	CRYP_Cmd
 238:../STM32F2xx_StdPeriph_Driver/src/stm32f2xx_cryp_des.c **** 
 239:../STM32F2xx_StdPeriph_Driver/src/stm32f2xx_cryp_des.c ****   for(i=0; ((i<Ilength) && (status != ERROR)); i+=8)
 23692              		.loc 1 239 0
 23693 023a 4FF00003 		mov	r3, #0
 23694 023e BB65     		str	r3, [r7, #88]
 23695 0240 43E0     		b	.L14
 23696              	.L20:
 240:../STM32F2xx_StdPeriph_Driver/src/stm32f2xx_cryp_des.c ****   {
 241:../STM32F2xx_StdPeriph_Driver/src/stm32f2xx_cryp_des.c ****     /* Write the Input block in the Input FIFO */
 242:../STM32F2xx_StdPeriph_Driver/src/stm32f2xx_cryp_des.c ****     CRYP_DataIn(*(uint32_t*)(inputaddr));
 23697              		.loc 1 242 0
 23698 0242 3B6E     		ldr	r3, [r7, #96]
 23699 0244 1B68     		ldr	r3, [r3, #0]
 23700 0246 1846     		mov	r0, r3
 23701 0248 FFF7FEFF 		bl	CRYP_DataIn
 243:../STM32F2xx_StdPeriph_Driver/src/stm32f2xx_cryp_des.c ****     inputaddr+=4;
 23702              		.loc 1 243 0
 23703 024c 3B6E     		ldr	r3, [r7, #96]
 23704 024e 03F10403 		add	r3, r3, #4
 23705 0252 3B66     		str	r3, [r7, #96]
 244:../STM32F2xx_StdPeriph_Driver/src/stm32f2xx_cryp_des.c ****     CRYP_DataIn(*(uint32_t*)(inputaddr));
 23706              		.loc 1 244 0
 23707 0254 3B6E     		ldr	r3, [r7, #96]
 23708 0256 1B68     		ldr	r3, [r3, #0]
 23709 0258 1846     		mov	r0, r3
 23710 025a FFF7FEFF 		bl	CRYP_DataIn
 245:../STM32F2xx_StdPeriph_Driver/src/stm32f2xx_cryp_des.c ****     inputaddr+=4;
 23711              		.loc 1 245 0
 23712 025e 3B6E     		ldr	r3, [r7, #96]
 23713 0260 03F10403 		add	r3, r3, #4
 23714 0264 3B66     		str	r3, [r7, #96]
 246:../STM32F2xx_StdPeriph_Driver/src/stm32f2xx_cryp_des.c **** 
 247:../STM32F2xx_StdPeriph_Driver/src/stm32f2xx_cryp_des.c ****     /* Wait until the complete message has been processed */
 248:../STM32F2xx_StdPeriph_Driver/src/stm32f2xx_cryp_des.c ****     counter = 0;
 23715              		.loc 1 248 0
 23716 0266 4FF00003 		mov	r3, #0
 23717 026a 3B61     		str	r3, [r7, #16]
 23718              	.L16:
 249:../STM32F2xx_StdPeriph_Driver/src/stm32f2xx_cryp_des.c ****     do
 250:../STM32F2xx_StdPeriph_Driver/src/stm32f2xx_cryp_des.c ****     {
 251:../STM32F2xx_StdPeriph_Driver/src/stm32f2xx_cryp_des.c ****       busystatus = CRYP_GetFlagStatus(CRYP_FLAG_BUSY);
 23719              		.loc 1 251 0 discriminator 1
 23720 026c 4FF01000 		mov	r0, #16
 23721 0270 FFF7FEFF 		bl	CRYP_GetFlagStatus
 23722 0274 0346     		mov	r3, r0
 23723 0276 7B65     		str	r3, [r7, #84]
 252:../STM32F2xx_StdPeriph_Driver/src/stm32f2xx_cryp_des.c ****       counter++;
 23724              		.loc 1 252 0 discriminator 1
 23725 0278 3B69     		ldr	r3, [r7, #16]
 23726 027a 03F10103 		add	r3, r3, #1
 23727 027e 3B61     		str	r3, [r7, #16]
 253:../STM32F2xx_StdPeriph_Driver/src/stm32f2xx_cryp_des.c ****     }while ((counter != DESBUSY_TIMEOUT) && (busystatus != RESET));
 23728              		.loc 1 253 0 discriminator 1
 23729 0280 3B69     		ldr	r3, [r7, #16]
 23730 0282 B3F5803F 		cmp	r3, #65536
 23731 0286 02D0     		beq	.L15
 23732 0288 7B6D     		ldr	r3, [r7, #84]
 23733 028a 002B     		cmp	r3, #0
 23734 028c EED1     		bne	.L16
 23735              	.L15:
 254:../STM32F2xx_StdPeriph_Driver/src/stm32f2xx_cryp_des.c **** 
 255:../STM32F2xx_StdPeriph_Driver/src/stm32f2xx_cryp_des.c ****     if (busystatus != RESET)
 23736              		.loc 1 255 0
 23737 028e 7B6D     		ldr	r3, [r7, #84]
 23738 0290 002B     		cmp	r3, #0
 23739 0292 04D0     		beq	.L17
 256:../STM32F2xx_StdPeriph_Driver/src/stm32f2xx_cryp_des.c ****    {
 257:../STM32F2xx_StdPeriph_Driver/src/stm32f2xx_cryp_des.c ****        status = ERROR;
 23740              		.loc 1 257 0
 23741 0294 4FF00003 		mov	r3, #0
 23742 0298 87F86730 		strb	r3, [r7, #103]
 23743 029c 11E0     		b	.L18
 23744              	.L17:
 258:../STM32F2xx_StdPeriph_Driver/src/stm32f2xx_cryp_des.c ****     }
 259:../STM32F2xx_StdPeriph_Driver/src/stm32f2xx_cryp_des.c ****     else
 260:../STM32F2xx_StdPeriph_Driver/src/stm32f2xx_cryp_des.c ****     {
 261:../STM32F2xx_StdPeriph_Driver/src/stm32f2xx_cryp_des.c ****       /* Read the Output block from the Output FIFO */
 262:../STM32F2xx_StdPeriph_Driver/src/stm32f2xx_cryp_des.c ****       *(uint32_t*)(outputaddr) = CRYP_DataOut();
 23745              		.loc 1 262 0
 23746 029e FC6D     		ldr	r4, [r7, #92]
 23747 02a0 FFF7FEFF 		bl	CRYP_DataOut
 23748 02a4 0346     		mov	r3, r0
 23749 02a6 2360     		str	r3, [r4, #0]
 263:../STM32F2xx_StdPeriph_Driver/src/stm32f2xx_cryp_des.c ****       outputaddr+=4;
 23750              		.loc 1 263 0
 23751 02a8 FB6D     		ldr	r3, [r7, #92]
 23752 02aa 03F10403 		add	r3, r3, #4
 23753 02ae FB65     		str	r3, [r7, #92]
 264:../STM32F2xx_StdPeriph_Driver/src/stm32f2xx_cryp_des.c ****       *(uint32_t*)(outputaddr) = CRYP_DataOut();
 23754              		.loc 1 264 0
 23755 02b0 FC6D     		ldr	r4, [r7, #92]
 23756 02b2 FFF7FEFF 		bl	CRYP_DataOut
 23757 02b6 0346     		mov	r3, r0
 23758 02b8 2360     		str	r3, [r4, #0]
 265:../STM32F2xx_StdPeriph_Driver/src/stm32f2xx_cryp_des.c ****       outputaddr+=4;
 23759              		.loc 1 265 0
 23760 02ba FB6D     		ldr	r3, [r7, #92]
 23761 02bc 03F10403 		add	r3, r3, #4
 23762 02c0 FB65     		str	r3, [r7, #92]
 23763              	.L18:
 239:../STM32F2xx_StdPeriph_Driver/src/stm32f2xx_cryp_des.c ****   for(i=0; ((i<Ilength) && (status != ERROR)); i+=8)
 23764              		.loc 1 239 0
 23765 02c2 BB6D     		ldr	r3, [r7, #88]
 23766 02c4 03F10803 		add	r3, r3, #8
 23767 02c8 BB65     		str	r3, [r7, #88]
 23768              	.L14:
 239:../STM32F2xx_StdPeriph_Driver/src/stm32f2xx_cryp_des.c ****   for(i=0; ((i<Ilength) && (status != ERROR)); i+=8)
 23769              		.loc 1 239 0 is_stmt 0 discriminator 1
 23770 02ca BA6D     		ldr	r2, [r7, #88]
 23771 02cc BB6F     		ldr	r3, [r7, #120]
 23772 02ce 9A42     		cmp	r2, r3
 23773 02d0 03D2     		bcs	.L19
 239:../STM32F2xx_StdPeriph_Driver/src/stm32f2xx_cryp_des.c ****   for(i=0; ((i<Ilength) && (status != ERROR)); i+=8)
 23774              		.loc 1 239 0 discriminator 2
 23775 02d2 97F86730 		ldrb	r3, [r7, #103]	@ zero_extendqisi2
 23776 02d6 002B     		cmp	r3, #0
 23777 02d8 B3D1     		bne	.L20
 23778              	.L19:
 266:../STM32F2xx_StdPeriph_Driver/src/stm32f2xx_cryp_des.c ****     }
 267:../STM32F2xx_StdPeriph_Driver/src/stm32f2xx_cryp_des.c ****   }
 268:../STM32F2xx_StdPeriph_Driver/src/stm32f2xx_cryp_des.c **** 
 269:../STM32F2xx_StdPeriph_Driver/src/stm32f2xx_cryp_des.c ****   /* Disable Crypto */
 270:../STM32F2xx_StdPeriph_Driver/src/stm32f2xx_cryp_des.c ****   CRYP_Cmd(DISABLE);
 23779              		.loc 1 270 0 is_stmt 1
 23780 02da 4FF00000 		mov	r0, #0
 23781 02de FFF7FEFF 		bl	CRYP_Cmd
 271:../STM32F2xx_StdPeriph_Driver/src/stm32f2xx_cryp_des.c **** 
 272:../STM32F2xx_StdPeriph_Driver/src/stm32f2xx_cryp_des.c ****   return status; 
 23782              		.loc 1 272 0
 23783 02e2 97F86730 		ldrb	r3, [r7, #103]	@ zero_extendqisi2
 273:../STM32F2xx_StdPeriph_Driver/src/stm32f2xx_cryp_des.c **** }
 23784              		.loc 1 273 0
 23785 02e6 1846     		mov	r0, r3
 23786 02e8 07F16C07 		add	r7, r7, #108
 23787 02ec BD46     		mov	sp, r7
 23788 02ee 90BD     		pop	{r4, r7, pc}
 23789              		.cfi_endproc
 23790              	.LFE30:
 23792              	.Letext0: