   1              		.syntax unified
   2              		.cpu cortex-m3
   3              		.fpu softvfp
   4              		.eabi_attribute 20, 1
   5              		.eabi_attribute 21, 1
   6              		.eabi_attribute 23, 3
   7              		.eabi_attribute 24, 1
   8              		.eabi_attribute 25, 1
   9              		.eabi_attribute 26, 1
  10              		.eabi_attribute 30, 6
  11              		.eabi_attribute 18, 4
  12              		.thumb
  13              		.file	"stm32f2xx_usart.c"
  14              		.text
  15              	.Ltext0:
  16              		.cfi_sections	.debug_frame
  17              		.align	2
  18              		.global	USART_DeInit
  19              		.thumb
  20              		.thumb_func
  22              	USART_DeInit:
  23              	.LFB29:
  24              		.file 1 "../STM32F2xx_StdPeriph_Driver/src/stm32f2xx_usart.c"
   1:../STM32F2xx_StdPeriph_Driver/src/stm32f2xx_usart.c **** /**
   2:../STM32F2xx_StdPeriph_Driver/src/stm32f2xx_usart.c ****   ******************************************************************************
   3:../STM32F2xx_StdPeriph_Driver/src/stm32f2xx_usart.c ****   * @file    stm32f2xx_usart.c
   4:../STM32F2xx_StdPeriph_Driver/src/stm32f2xx_usart.c ****   * @author  MCD Application Team
   5:../STM32F2xx_StdPeriph_Driver/src/stm32f2xx_usart.c ****   * @version V1.0.0
   6:../STM32F2xx_StdPeriph_Driver/src/stm32f2xx_usart.c ****   * @date    18-April-2011
   7:../STM32F2xx_StdPeriph_Driver/src/stm32f2xx_usart.c ****   * @brief   This file provides firmware functions to manage the following 
   8:../STM32F2xx_StdPeriph_Driver/src/stm32f2xx_usart.c ****   *          functionalities of the Universal synchronous asynchronous receiver
   9:../STM32F2xx_StdPeriph_Driver/src/stm32f2xx_usart.c ****   *          transmitter (USART):           
  10:../STM32F2xx_StdPeriph_Driver/src/stm32f2xx_usart.c ****   *           - Initialization and Configuration
  11:../STM32F2xx_StdPeriph_Driver/src/stm32f2xx_usart.c ****   *           - Data transfers
  12:../STM32F2xx_StdPeriph_Driver/src/stm32f2xx_usart.c ****   *           - Multi-Processor Communication
  13:../STM32F2xx_StdPeriph_Driver/src/stm32f2xx_usart.c ****   *           - LIN mode
  14:../STM32F2xx_StdPeriph_Driver/src/stm32f2xx_usart.c ****   *           - Half-duplex mode
  15:../STM32F2xx_StdPeriph_Driver/src/stm32f2xx_usart.c ****   *           - Smartcard mode
  16:../STM32F2xx_StdPeriph_Driver/src/stm32f2xx_usart.c ****   *           - IrDA mode
  17:../STM32F2xx_StdPeriph_Driver/src/stm32f2xx_usart.c ****   *           - DMA transfers management
  18:../STM32F2xx_StdPeriph_Driver/src/stm32f2xx_usart.c ****   *           - Interrupts and flags management 
  19:../STM32F2xx_StdPeriph_Driver/src/stm32f2xx_usart.c ****   *           
  20:../STM32F2xx_StdPeriph_Driver/src/stm32f2xx_usart.c ****   *  @verbatim
  21:../STM32F2xx_StdPeriph_Driver/src/stm32f2xx_usart.c ****   *      
  22:../STM32F2xx_StdPeriph_Driver/src/stm32f2xx_usart.c ****   *          ===================================================================
  23:../STM32F2xx_StdPeriph_Driver/src/stm32f2xx_usart.c ****   *                                 How to use this driver
  24:../STM32F2xx_StdPeriph_Driver/src/stm32f2xx_usart.c ****   *          ===================================================================
  25:../STM32F2xx_StdPeriph_Driver/src/stm32f2xx_usart.c ****   *          1. Enable peripheral clock using the follwoing functions
  26:../STM32F2xx_StdPeriph_Driver/src/stm32f2xx_usart.c ****   *             RCC_APB2PeriphClockCmd(RCC_APB2Periph_USARTx, ENABLE) for USART1 and USART6 
  27:../STM32F2xx_StdPeriph_Driver/src/stm32f2xx_usart.c ****   *             RCC_APB1PeriphClockCmd(RCC_APB1Periph_USARTx, ENABLE) for USART2, USART3, UART4 or 
  28:../STM32F2xx_StdPeriph_Driver/src/stm32f2xx_usart.c ****   *
  29:../STM32F2xx_StdPeriph_Driver/src/stm32f2xx_usart.c ****   *          2.  According to the USART mode, enable the GPIO clocks using 
  30:../STM32F2xx_StdPeriph_Driver/src/stm32f2xx_usart.c ****   *              RCC_AHB1PeriphClockCmd() function. (The I/O can be TX, RX, CTS, 
  31:../STM32F2xx_StdPeriph_Driver/src/stm32f2xx_usart.c ****   *              or/and SCLK). 
  32:../STM32F2xx_StdPeriph_Driver/src/stm32f2xx_usart.c ****   *
  33:../STM32F2xx_StdPeriph_Driver/src/stm32f2xx_usart.c ****   *          3. Peripheral's alternate function: 
  34:../STM32F2xx_StdPeriph_Driver/src/stm32f2xx_usart.c ****   *                 - Connect the pin to the desired peripherals' Alternate 
  35:../STM32F2xx_StdPeriph_Driver/src/stm32f2xx_usart.c ****   *                   Function (AF) using GPIO_PinAFConfig() function
  36:../STM32F2xx_StdPeriph_Driver/src/stm32f2xx_usart.c ****   *                 - Configure the desired pin in alternate function by:
  37:../STM32F2xx_StdPeriph_Driver/src/stm32f2xx_usart.c ****   *                   GPIO_InitStruct->GPIO_Mode = GPIO_Mode_AF
  38:../STM32F2xx_StdPeriph_Driver/src/stm32f2xx_usart.c ****   *                 - Select the type, pull-up/pull-down and output speed via 
  39:../STM32F2xx_StdPeriph_Driver/src/stm32f2xx_usart.c ****   *                   GPIO_PuPd, GPIO_OType and GPIO_Speed members
  40:../STM32F2xx_StdPeriph_Driver/src/stm32f2xx_usart.c ****   *                 - Call GPIO_Init() function
  41:../STM32F2xx_StdPeriph_Driver/src/stm32f2xx_usart.c ****   *        
  42:../STM32F2xx_StdPeriph_Driver/src/stm32f2xx_usart.c ****   *          4. Program the Baud Rate, Word Length , Stop Bit, Parity, Hardware 
  43:../STM32F2xx_StdPeriph_Driver/src/stm32f2xx_usart.c ****   *             flow control and Mode(Receiver/Transmitter) using the USART_Init()
  44:../STM32F2xx_StdPeriph_Driver/src/stm32f2xx_usart.c ****   *             function.
  45:../STM32F2xx_StdPeriph_Driver/src/stm32f2xx_usart.c ****   *
  46:../STM32F2xx_StdPeriph_Driver/src/stm32f2xx_usart.c ****   *          5. For synchronous mode, enable the clock and program the polarity,
  47:../STM32F2xx_StdPeriph_Driver/src/stm32f2xx_usart.c ****   *             phase and last bit using the USART_ClockInit() function.
  48:../STM32F2xx_StdPeriph_Driver/src/stm32f2xx_usart.c ****   *
  49:../STM32F2xx_StdPeriph_Driver/src/stm32f2xx_usart.c ****   *          5. Enable the NVIC and the corresponding interrupt using the function 
  50:../STM32F2xx_StdPeriph_Driver/src/stm32f2xx_usart.c ****   *             USART_ITConfig() if you need to use interrupt mode. 
  51:../STM32F2xx_StdPeriph_Driver/src/stm32f2xx_usart.c ****   *
  52:../STM32F2xx_StdPeriph_Driver/src/stm32f2xx_usart.c ****   *          6. When using the DMA mode 
  53:../STM32F2xx_StdPeriph_Driver/src/stm32f2xx_usart.c ****   *                   - Configure the DMA using DMA_Init() function
  54:../STM32F2xx_StdPeriph_Driver/src/stm32f2xx_usart.c ****   *                   - Active the needed channel Request using USART_DMACmd() function
  55:../STM32F2xx_StdPeriph_Driver/src/stm32f2xx_usart.c ****   * 
  56:../STM32F2xx_StdPeriph_Driver/src/stm32f2xx_usart.c ****   *          7. Enable the USART using the USART_Cmd() function.
  57:../STM32F2xx_StdPeriph_Driver/src/stm32f2xx_usart.c ****   * 
  58:../STM32F2xx_StdPeriph_Driver/src/stm32f2xx_usart.c ****   *          8. Enable the DMA using the DMA_Cmd() function, when using DMA mode. 
  59:../STM32F2xx_StdPeriph_Driver/src/stm32f2xx_usart.c ****   *
  60:../STM32F2xx_StdPeriph_Driver/src/stm32f2xx_usart.c ****   *          Refer to Multi-Processor, LIN, half-duplex, Smartcard, IrDA sub-sections
  61:../STM32F2xx_StdPeriph_Driver/src/stm32f2xx_usart.c ****   *          for more details
  62:../STM32F2xx_StdPeriph_Driver/src/stm32f2xx_usart.c ****   *          
  63:../STM32F2xx_StdPeriph_Driver/src/stm32f2xx_usart.c ****   *          In order to reach higher communication baudrates, it is possible to
  64:../STM32F2xx_StdPeriph_Driver/src/stm32f2xx_usart.c ****   *          enable the oversampling by 8 mode using the function USART_OverSampling8Cmd().
  65:../STM32F2xx_StdPeriph_Driver/src/stm32f2xx_usart.c ****   *          This function should be called after enabling the USART clock (RCC_APBxPeriphClockCmd(
  66:../STM32F2xx_StdPeriph_Driver/src/stm32f2xx_usart.c ****   *          and before calling the function USART_Init().
  67:../STM32F2xx_StdPeriph_Driver/src/stm32f2xx_usart.c ****   *          
  68:../STM32F2xx_StdPeriph_Driver/src/stm32f2xx_usart.c ****   *  @endverbatim
  69:../STM32F2xx_StdPeriph_Driver/src/stm32f2xx_usart.c ****   *        
  70:../STM32F2xx_StdPeriph_Driver/src/stm32f2xx_usart.c ****   ******************************************************************************
  71:../STM32F2xx_StdPeriph_Driver/src/stm32f2xx_usart.c ****   * @attention
  72:../STM32F2xx_StdPeriph_Driver/src/stm32f2xx_usart.c ****   *
  73:../STM32F2xx_StdPeriph_Driver/src/stm32f2xx_usart.c ****   * THE PRESENT FIRMWARE WHICH IS FOR GUIDANCE ONLY AIMS AT PROVIDING CUSTOMERS
  74:../STM32F2xx_StdPeriph_Driver/src/stm32f2xx_usart.c ****   * WITH CODING INFORMATION REGARDING THEIR PRODUCTS IN ORDER FOR THEM TO SAVE
  75:../STM32F2xx_StdPeriph_Driver/src/stm32f2xx_usart.c ****   * TIME. AS A RESULT, STMICROELECTRONICS SHALL NOT BE HELD LIABLE FOR ANY
  76:../STM32F2xx_StdPeriph_Driver/src/stm32f2xx_usart.c ****   * DIRECT, INDIRECT OR CONSEQUENTIAL DAMAGES WITH RESPECT TO ANY CLAIMS ARISING
  77:../STM32F2xx_StdPeriph_Driver/src/stm32f2xx_usart.c ****   * FROM THE CONTENT OF SUCH FIRMWARE AND/OR THE USE MADE BY CUSTOMERS OF THE
  78:../STM32F2xx_StdPeriph_Driver/src/stm32f2xx_usart.c ****   * CODING INFORMATION CONTAINED HEREIN IN CONNECTION WITH THEIR PRODUCTS.
  79:../STM32F2xx_StdPeriph_Driver/src/stm32f2xx_usart.c ****   *
  80:../STM32F2xx_StdPeriph_Driver/src/stm32f2xx_usart.c ****   * <h2><center>&copy; COPYRIGHT 2011 STMicroelectronics</center></h2>
  81:../STM32F2xx_StdPeriph_Driver/src/stm32f2xx_usart.c ****   ******************************************************************************  
  82:../STM32F2xx_StdPeriph_Driver/src/stm32f2xx_usart.c ****   */ 
  83:../STM32F2xx_StdPeriph_Driver/src/stm32f2xx_usart.c **** 
  84:../STM32F2xx_StdPeriph_Driver/src/stm32f2xx_usart.c **** /* Includes ------------------------------------------------------------------*/
  85:../STM32F2xx_StdPeriph_Driver/src/stm32f2xx_usart.c **** #include "stm32f2xx_usart.h"
  86:../STM32F2xx_StdPeriph_Driver/src/stm32f2xx_usart.c **** #include "stm32f2xx_rcc.h"
  87:../STM32F2xx_StdPeriph_Driver/src/stm32f2xx_usart.c **** 
  88:../STM32F2xx_StdPeriph_Driver/src/stm32f2xx_usart.c **** /** @addtogroup STM32F2xx_StdPeriph_Driver
  89:../STM32F2xx_StdPeriph_Driver/src/stm32f2xx_usart.c ****   * @{
  90:../STM32F2xx_StdPeriph_Driver/src/stm32f2xx_usart.c ****   */
  91:../STM32F2xx_StdPeriph_Driver/src/stm32f2xx_usart.c **** 
  92:../STM32F2xx_StdPeriph_Driver/src/stm32f2xx_usart.c **** /** @defgroup USART 
  93:../STM32F2xx_StdPeriph_Driver/src/stm32f2xx_usart.c ****   * @brief USART driver modules
  94:../STM32F2xx_StdPeriph_Driver/src/stm32f2xx_usart.c ****   * @{
  95:../STM32F2xx_StdPeriph_Driver/src/stm32f2xx_usart.c ****   */
  96:../STM32F2xx_StdPeriph_Driver/src/stm32f2xx_usart.c **** 
  97:../STM32F2xx_StdPeriph_Driver/src/stm32f2xx_usart.c **** /* Private typedef -----------------------------------------------------------*/
  98:../STM32F2xx_StdPeriph_Driver/src/stm32f2xx_usart.c **** /* Private define ------------------------------------------------------------*/
  99:../STM32F2xx_StdPeriph_Driver/src/stm32f2xx_usart.c **** 
 100:../STM32F2xx_StdPeriph_Driver/src/stm32f2xx_usart.c **** /*!< USART CR1 register clear Mask ((~(uint16_t)0xE9F3)) */
 101:../STM32F2xx_StdPeriph_Driver/src/stm32f2xx_usart.c **** #define CR1_CLEAR_MASK            ((uint16_t)(USART_CR1_M | USART_CR1_PCE | \
 102:../STM32F2xx_StdPeriph_Driver/src/stm32f2xx_usart.c ****                                               USART_CR1_PS | USART_CR1_TE | \
 103:../STM32F2xx_StdPeriph_Driver/src/stm32f2xx_usart.c ****                                               USART_CR1_RE))
 104:../STM32F2xx_StdPeriph_Driver/src/stm32f2xx_usart.c **** 
 105:../STM32F2xx_StdPeriph_Driver/src/stm32f2xx_usart.c **** /*!< USART CR2 register clock bits clear Mask ((~(uint16_t)0xF0FF)) */
 106:../STM32F2xx_StdPeriph_Driver/src/stm32f2xx_usart.c **** #define CR2_CLOCK_CLEAR_MASK      ((uint16_t)(USART_CR2_CLKEN | USART_CR2_CPOL | \
 107:../STM32F2xx_StdPeriph_Driver/src/stm32f2xx_usart.c ****                                               USART_CR2_CPHA | USART_CR2_LBCL))
 108:../STM32F2xx_StdPeriph_Driver/src/stm32f2xx_usart.c **** 
 109:../STM32F2xx_StdPeriph_Driver/src/stm32f2xx_usart.c **** /*!< USART CR3 register clear Mask ((~(uint16_t)0xFCFF)) */
 110:../STM32F2xx_StdPeriph_Driver/src/stm32f2xx_usart.c **** #define CR3_CLEAR_MASK            ((uint16_t)(USART_CR3_RTSE | USART_CR3_CTSE))
 111:../STM32F2xx_StdPeriph_Driver/src/stm32f2xx_usart.c **** 
 112:../STM32F2xx_StdPeriph_Driver/src/stm32f2xx_usart.c **** /*!< USART Interrupts mask */
 113:../STM32F2xx_StdPeriph_Driver/src/stm32f2xx_usart.c **** #define IT_MASK                   ((uint16_t)0x001F)
 114:../STM32F2xx_StdPeriph_Driver/src/stm32f2xx_usart.c **** 
 115:../STM32F2xx_StdPeriph_Driver/src/stm32f2xx_usart.c **** /* Private macro -------------------------------------------------------------*/
 116:../STM32F2xx_StdPeriph_Driver/src/stm32f2xx_usart.c **** /* Private variables ---------------------------------------------------------*/
 117:../STM32F2xx_StdPeriph_Driver/src/stm32f2xx_usart.c **** /* Private function prototypes -----------------------------------------------*/
 118:../STM32F2xx_StdPeriph_Driver/src/stm32f2xx_usart.c **** /* Private functions ---------------------------------------------------------*/
 119:../STM32F2xx_StdPeriph_Driver/src/stm32f2xx_usart.c **** 
 120:../STM32F2xx_StdPeriph_Driver/src/stm32f2xx_usart.c **** /** @defgroup USART_Private_Functions
 121:../STM32F2xx_StdPeriph_Driver/src/stm32f2xx_usart.c ****   * @{
 122:../STM32F2xx_StdPeriph_Driver/src/stm32f2xx_usart.c ****   */
 123:../STM32F2xx_StdPeriph_Driver/src/stm32f2xx_usart.c **** 
 124:../STM32F2xx_StdPeriph_Driver/src/stm32f2xx_usart.c **** /** @defgroup USART_Group1 Initialization and Configuration functions
 125:../STM32F2xx_StdPeriph_Driver/src/stm32f2xx_usart.c ****  *  @brief   Initialization and Configuration functions 
 126:../STM32F2xx_StdPeriph_Driver/src/stm32f2xx_usart.c ****  *
 127:../STM32F2xx_StdPeriph_Driver/src/stm32f2xx_usart.c **** @verbatim   
 128:../STM32F2xx_StdPeriph_Driver/src/stm32f2xx_usart.c ****  ===============================================================================
 129:../STM32F2xx_StdPeriph_Driver/src/stm32f2xx_usart.c ****                   Initialization and Configuration functions
 130:../STM32F2xx_StdPeriph_Driver/src/stm32f2xx_usart.c ****  ===============================================================================  
 131:../STM32F2xx_StdPeriph_Driver/src/stm32f2xx_usart.c **** 
 132:../STM32F2xx_StdPeriph_Driver/src/stm32f2xx_usart.c ****   This subsection provides a set of functions allowing to initialize the USART 
 133:../STM32F2xx_StdPeriph_Driver/src/stm32f2xx_usart.c ****   in asynchronous and in synchronous modes.
 134:../STM32F2xx_StdPeriph_Driver/src/stm32f2xx_usart.c ****    - For the asynchronous mode only these parameters can be configured: 
 135:../STM32F2xx_StdPeriph_Driver/src/stm32f2xx_usart.c ****         - Baud Rate
 136:../STM32F2xx_StdPeriph_Driver/src/stm32f2xx_usart.c ****         - Word Length 
 137:../STM32F2xx_StdPeriph_Driver/src/stm32f2xx_usart.c ****         - Stop Bit
 138:../STM32F2xx_StdPeriph_Driver/src/stm32f2xx_usart.c ****         - Parity: If the parity is enabled, then the MSB bit of the data written
 139:../STM32F2xx_StdPeriph_Driver/src/stm32f2xx_usart.c ****           in the data register is transmitted but is changed by the parity bit.
 140:../STM32F2xx_StdPeriph_Driver/src/stm32f2xx_usart.c ****           Depending on the frame length defined by the M bit (8-bits or 9-bits),
 141:../STM32F2xx_StdPeriph_Driver/src/stm32f2xx_usart.c ****           the possible USART frame formats are as listed in the following table:
 142:../STM32F2xx_StdPeriph_Driver/src/stm32f2xx_usart.c ****    +-------------------------------------------------------------+     
 143:../STM32F2xx_StdPeriph_Driver/src/stm32f2xx_usart.c ****    |   M bit |  PCE bit  |            USART frame                |
 144:../STM32F2xx_StdPeriph_Driver/src/stm32f2xx_usart.c ****    |---------------------|---------------------------------------|             
 145:../STM32F2xx_StdPeriph_Driver/src/stm32f2xx_usart.c ****    |    0    |    0      |    | SB | 8 bit data | STB |          |
 146:../STM32F2xx_StdPeriph_Driver/src/stm32f2xx_usart.c ****    |---------|-----------|---------------------------------------|  
 147:../STM32F2xx_StdPeriph_Driver/src/stm32f2xx_usart.c ****    |    0    |    1      |    | SB | 7 bit data | PB | STB |     |
 148:../STM32F2xx_StdPeriph_Driver/src/stm32f2xx_usart.c ****    |---------|-----------|---------------------------------------|  
 149:../STM32F2xx_StdPeriph_Driver/src/stm32f2xx_usart.c ****    |    1    |    0      |    | SB | 9 bit data | STB |          |
 150:../STM32F2xx_StdPeriph_Driver/src/stm32f2xx_usart.c ****    |---------|-----------|---------------------------------------|  
 151:../STM32F2xx_StdPeriph_Driver/src/stm32f2xx_usart.c ****    |    1    |    1      |    | SB | 8 bit data | PB | STB |     |
 152:../STM32F2xx_StdPeriph_Driver/src/stm32f2xx_usart.c ****    +-------------------------------------------------------------+            
 153:../STM32F2xx_StdPeriph_Driver/src/stm32f2xx_usart.c ****         - Hardware flow control
 154:../STM32F2xx_StdPeriph_Driver/src/stm32f2xx_usart.c ****         - Receiver/transmitter modes
 155:../STM32F2xx_StdPeriph_Driver/src/stm32f2xx_usart.c **** 
 156:../STM32F2xx_StdPeriph_Driver/src/stm32f2xx_usart.c ****   The USART_Init() function follows the USART  asynchronous configuration procedure
 157:../STM32F2xx_StdPeriph_Driver/src/stm32f2xx_usart.c ****   (details for the procedure are available in reference manual (RM0033)).
 158:../STM32F2xx_StdPeriph_Driver/src/stm32f2xx_usart.c **** 
 159:../STM32F2xx_StdPeriph_Driver/src/stm32f2xx_usart.c ****   - For the synchronous mode in addition to the asynchronous mode parameters these 
 160:../STM32F2xx_StdPeriph_Driver/src/stm32f2xx_usart.c ****     parameters should be also configured:
 161:../STM32F2xx_StdPeriph_Driver/src/stm32f2xx_usart.c ****         - USART Clock Enabled
 162:../STM32F2xx_StdPeriph_Driver/src/stm32f2xx_usart.c ****         - USART polarity
 163:../STM32F2xx_StdPeriph_Driver/src/stm32f2xx_usart.c ****         - USART phase
 164:../STM32F2xx_StdPeriph_Driver/src/stm32f2xx_usart.c ****         - USART LastBit
 165:../STM32F2xx_StdPeriph_Driver/src/stm32f2xx_usart.c ****   
 166:../STM32F2xx_StdPeriph_Driver/src/stm32f2xx_usart.c ****   These parameters can be configured using the USART_ClockInit() function.
 167:../STM32F2xx_StdPeriph_Driver/src/stm32f2xx_usart.c **** 
 168:../STM32F2xx_StdPeriph_Driver/src/stm32f2xx_usart.c **** @endverbatim
 169:../STM32F2xx_StdPeriph_Driver/src/stm32f2xx_usart.c ****   * @{
 170:../STM32F2xx_StdPeriph_Driver/src/stm32f2xx_usart.c ****   */
 171:../STM32F2xx_StdPeriph_Driver/src/stm32f2xx_usart.c ****   
 172:../STM32F2xx_StdPeriph_Driver/src/stm32f2xx_usart.c **** /**
 173:../STM32F2xx_StdPeriph_Driver/src/stm32f2xx_usart.c ****   * @brief  Deinitializes the USARTx peripheral registers to their default reset values.
 174:../STM32F2xx_StdPeriph_Driver/src/stm32f2xx_usart.c ****   * @param  USARTx: where x can be 1, 2, 3, 4, 5 or 6 to select the USART or 
 175:../STM32F2xx_StdPeriph_Driver/src/stm32f2xx_usart.c ****   *         UART peripheral.
 176:../STM32F2xx_StdPeriph_Driver/src/stm32f2xx_usart.c ****   * @retval None
 177:../STM32F2xx_StdPeriph_Driver/src/stm32f2xx_usart.c ****   */
 178:../STM32F2xx_StdPeriph_Driver/src/stm32f2xx_usart.c **** void USART_DeInit(USART_TypeDef* USARTx)
 179:../STM32F2xx_StdPeriph_Driver/src/stm32f2xx_usart.c **** {
  25              		.loc 1 179 0
  26              		.cfi_startproc
  27              		@ args = 0, pretend = 0, frame = 8
  28              		@ frame_needed = 1, uses_anonymous_args = 0
  29 0000 80B5     		push	{r7, lr}
  30              	.LCFI0:
  31              		.cfi_def_cfa_offset 8
  32              		.cfi_offset 14, -4
  33              		.cfi_offset 7, -8
  34 0002 82B0     		sub	sp, sp, #8
  35              	.LCFI1:
  36              		.cfi_def_cfa_offset 16
  37 0004 00AF     		add	r7, sp, #0
  38              	.LCFI2:
  39              		.cfi_def_cfa_register 7
  40 0006 7860     		str	r0, [r7, #4]
 180:../STM32F2xx_StdPeriph_Driver/src/stm32f2xx_usart.c ****   /* Check the parameters */
 181:../STM32F2xx_StdPeriph_Driver/src/stm32f2xx_usart.c ****   assert_param(IS_USART_ALL_PERIPH(USARTx));
 182:../STM32F2xx_StdPeriph_Driver/src/stm32f2xx_usart.c **** 
 183:../STM32F2xx_StdPeriph_Driver/src/stm32f2xx_usart.c ****   if (USARTx == USART1)
  41              		.loc 1 183 0
  42 0008 7A68     		ldr	r2, [r7, #4]
  43 000a 4FF48053 		mov	r3, #4096
  44 000e C4F20103 		movt	r3, 16385
  45 0012 9A42     		cmp	r2, r3
  46 0014 0CD1     		bne	.L2
 184:../STM32F2xx_StdPeriph_Driver/src/stm32f2xx_usart.c ****   {
 185:../STM32F2xx_StdPeriph_Driver/src/stm32f2xx_usart.c ****     RCC_APB2PeriphResetCmd(RCC_APB2Periph_USART1, ENABLE);
  47              		.loc 1 185 0
  48 0016 4FF01000 		mov	r0, #16
  49 001a 4FF00101 		mov	r1, #1
  50 001e FFF7FEFF 		bl	RCC_APB2PeriphResetCmd
 186:../STM32F2xx_StdPeriph_Driver/src/stm32f2xx_usart.c ****     RCC_APB2PeriphResetCmd(RCC_APB2Periph_USART1, DISABLE);
  51              		.loc 1 186 0
  52 0022 4FF01000 		mov	r0, #16
  53 0026 4FF00001 		mov	r1, #0
  54 002a FFF7FEFF 		bl	RCC_APB2PeriphResetCmd
  55 002e 62E0     		b	.L1
  56              	.L2:
 187:../STM32F2xx_StdPeriph_Driver/src/stm32f2xx_usart.c ****   }
 188:../STM32F2xx_StdPeriph_Driver/src/stm32f2xx_usart.c ****   else if (USARTx == USART2)
  57              		.loc 1 188 0
  58 0030 7A68     		ldr	r2, [r7, #4]
  59 0032 4FF48843 		mov	r3, #17408
  60 0036 C4F20003 		movt	r3, 16384
  61 003a 9A42     		cmp	r2, r3
  62 003c 0CD1     		bne	.L4
 189:../STM32F2xx_StdPeriph_Driver/src/stm32f2xx_usart.c ****   {
 190:../STM32F2xx_StdPeriph_Driver/src/stm32f2xx_usart.c ****     RCC_APB1PeriphResetCmd(RCC_APB1Periph_USART2, ENABLE);
  63              		.loc 1 190 0
  64 003e 4FF40030 		mov	r0, #131072
  65 0042 4FF00101 		mov	r1, #1
  66 0046 FFF7FEFF 		bl	RCC_APB1PeriphResetCmd
 191:../STM32F2xx_StdPeriph_Driver/src/stm32f2xx_usart.c ****     RCC_APB1PeriphResetCmd(RCC_APB1Periph_USART2, DISABLE);
  67              		.loc 1 191 0
  68 004a 4FF40030 		mov	r0, #131072
  69 004e 4FF00001 		mov	r1, #0
  70 0052 FFF7FEFF 		bl	RCC_APB1PeriphResetCmd
  71 0056 4EE0     		b	.L1
  72              	.L4:
 192:../STM32F2xx_StdPeriph_Driver/src/stm32f2xx_usart.c ****   }
 193:../STM32F2xx_StdPeriph_Driver/src/stm32f2xx_usart.c ****   else if (USARTx == USART3)
  73              		.loc 1 193 0
  74 0058 7A68     		ldr	r2, [r7, #4]
  75 005a 4FF49043 		mov	r3, #18432
  76 005e C4F20003 		movt	r3, 16384
  77 0062 9A42     		cmp	r2, r3
  78 0064 0CD1     		bne	.L5
 194:../STM32F2xx_StdPeriph_Driver/src/stm32f2xx_usart.c ****   {
 195:../STM32F2xx_StdPeriph_Driver/src/stm32f2xx_usart.c ****     RCC_APB1PeriphResetCmd(RCC_APB1Periph_USART3, ENABLE);
  79              		.loc 1 195 0
  80 0066 4FF48020 		mov	r0, #262144
  81 006a 4FF00101 		mov	r1, #1
  82 006e FFF7FEFF 		bl	RCC_APB1PeriphResetCmd
 196:../STM32F2xx_StdPeriph_Driver/src/stm32f2xx_usart.c ****     RCC_APB1PeriphResetCmd(RCC_APB1Periph_USART3, DISABLE);
  83              		.loc 1 196 0
  84 0072 4FF48020 		mov	r0, #262144
  85 0076 4FF00001 		mov	r1, #0
  86 007a FFF7FEFF 		bl	RCC_APB1PeriphResetCmd
  87 007e 3AE0     		b	.L1
  88              	.L5:
 197:../STM32F2xx_StdPeriph_Driver/src/stm32f2xx_usart.c ****   }    
 198:../STM32F2xx_StdPeriph_Driver/src/stm32f2xx_usart.c ****   else if (USARTx == UART4)
  89              		.loc 1 198 0
  90 0080 7A68     		ldr	r2, [r7, #4]
  91 0082 4FF49843 		mov	r3, #19456
  92 0086 C4F20003 		movt	r3, 16384
  93 008a 9A42     		cmp	r2, r3
  94 008c 0CD1     		bne	.L6
 199:../STM32F2xx_StdPeriph_Driver/src/stm32f2xx_usart.c ****   {
 200:../STM32F2xx_StdPeriph_Driver/src/stm32f2xx_usart.c ****     RCC_APB1PeriphResetCmd(RCC_APB1Periph_UART4, ENABLE);
  95              		.loc 1 200 0
  96 008e 4FF40020 		mov	r0, #524288
  97 0092 4FF00101 		mov	r1, #1
  98 0096 FFF7FEFF 		bl	RCC_APB1PeriphResetCmd
 201:../STM32F2xx_StdPeriph_Driver/src/stm32f2xx_usart.c ****     RCC_APB1PeriphResetCmd(RCC_APB1Periph_UART4, DISABLE);
  99              		.loc 1 201 0
 100 009a 4FF40020 		mov	r0, #524288
 101 009e 4FF00001 		mov	r1, #0
 102 00a2 FFF7FEFF 		bl	RCC_APB1PeriphResetCmd
 103 00a6 26E0     		b	.L1
 104              	.L6:
 202:../STM32F2xx_StdPeriph_Driver/src/stm32f2xx_usart.c ****   }
 203:../STM32F2xx_StdPeriph_Driver/src/stm32f2xx_usart.c ****   else if (USARTx == UART5)
 105              		.loc 1 203 0
 106 00a8 7A68     		ldr	r2, [r7, #4]
 107 00aa 4FF4A043 		mov	r3, #20480
 108 00ae C4F20003 		movt	r3, 16384
 109 00b2 9A42     		cmp	r2, r3
 110 00b4 0CD1     		bne	.L7
 204:../STM32F2xx_StdPeriph_Driver/src/stm32f2xx_usart.c ****   {
 205:../STM32F2xx_StdPeriph_Driver/src/stm32f2xx_usart.c ****     RCC_APB1PeriphResetCmd(RCC_APB1Periph_UART5, ENABLE);
 111              		.loc 1 205 0
 112 00b6 4FF48010 		mov	r0, #1048576
 113 00ba 4FF00101 		mov	r1, #1
 114 00be FFF7FEFF 		bl	RCC_APB1PeriphResetCmd
 206:../STM32F2xx_StdPeriph_Driver/src/stm32f2xx_usart.c ****     RCC_APB1PeriphResetCmd(RCC_APB1Periph_UART5, DISABLE);
 115              		.loc 1 206 0
 116 00c2 4FF48010 		mov	r0, #1048576
 117 00c6 4FF00001 		mov	r1, #0
 118 00ca FFF7FEFF 		bl	RCC_APB1PeriphResetCmd
 119 00ce 12E0     		b	.L1
 120              	.L7:
 207:../STM32F2xx_StdPeriph_Driver/src/stm32f2xx_usart.c ****   }     
 208:../STM32F2xx_StdPeriph_Driver/src/stm32f2xx_usart.c ****   else
 209:../STM32F2xx_StdPeriph_Driver/src/stm32f2xx_usart.c ****   {
 210:../STM32F2xx_StdPeriph_Driver/src/stm32f2xx_usart.c ****     if (USARTx == USART6)
 121              		.loc 1 210 0
 122 00d0 7A68     		ldr	r2, [r7, #4]
 123 00d2 4FF4A053 		mov	r3, #5120
 124 00d6 C4F20103 		movt	r3, 16385
 125 00da 9A42     		cmp	r2, r3
 126 00dc 0BD1     		bne	.L1
 211:../STM32F2xx_StdPeriph_Driver/src/stm32f2xx_usart.c ****     { 
 212:../STM32F2xx_StdPeriph_Driver/src/stm32f2xx_usart.c ****       RCC_APB2PeriphResetCmd(RCC_APB2Periph_USART6, ENABLE);
 127              		.loc 1 212 0
 128 00de 4FF02000 		mov	r0, #32
 129 00e2 4FF00101 		mov	r1, #1
 130 00e6 FFF7FEFF 		bl	RCC_APB2PeriphResetCmd
 213:../STM32F2xx_StdPeriph_Driver/src/stm32f2xx_usart.c ****       RCC_APB2PeriphResetCmd(RCC_APB2Periph_USART6, DISABLE);
 131              		.loc 1 213 0
 132 00ea 4FF02000 		mov	r0, #32
 133 00ee 4FF00001 		mov	r1, #0
 134 00f2 FFF7FEFF 		bl	RCC_APB2PeriphResetCmd
 135              	.L1:
 214:../STM32F2xx_StdPeriph_Driver/src/stm32f2xx_usart.c ****     }
 215:../STM32F2xx_StdPeriph_Driver/src/stm32f2xx_usart.c ****   }
 216:../STM32F2xx_StdPeriph_Driver/src/stm32f2xx_usart.c **** }
 136              		.loc 1 216 0
 137 00f6 07F10807 		add	r7, r7, #8
 138 00fa BD46     		mov	sp, r7
 139 00fc 80BD     		pop	{r7, pc}
 140              		.cfi_endproc
 141              	.LFE29:
 143 00fe 00BF     		.align	2
 144              		.global	USART_Init
 145              		.thumb
 146              		.thumb_func
 148              	USART_Init:
 149              	.LFB30:
 217:../STM32F2xx_StdPeriph_Driver/src/stm32f2xx_usart.c **** 
 218:../STM32F2xx_StdPeriph_Driver/src/stm32f2xx_usart.c **** /**
 219:../STM32F2xx_StdPeriph_Driver/src/stm32f2xx_usart.c ****   * @brief  Initializes the USARTx peripheral according to the specified
 220:../STM32F2xx_StdPeriph_Driver/src/stm32f2xx_usart.c ****   *         parameters in the USART_InitStruct .
 221:../STM32F2xx_StdPeriph_Driver/src/stm32f2xx_usart.c ****   * @param  USARTx: where x can be 1, 2, 3, 4, 5 or 6 to select the USART or 
 222:../STM32F2xx_StdPeriph_Driver/src/stm32f2xx_usart.c ****   *         UART peripheral.
 223:../STM32F2xx_StdPeriph_Driver/src/stm32f2xx_usart.c ****   * @param  USART_InitStruct: pointer to a USART_InitTypeDef structure that contains
 224:../STM32F2xx_StdPeriph_Driver/src/stm32f2xx_usart.c ****   *         the configuration information for the specified USART peripheral.
 225:../STM32F2xx_StdPeriph_Driver/src/stm32f2xx_usart.c ****   * @retval None
 226:../STM32F2xx_StdPeriph_Driver/src/stm32f2xx_usart.c ****   */
 227:../STM32F2xx_StdPeriph_Driver/src/stm32f2xx_usart.c **** void USART_Init(USART_TypeDef* USARTx, USART_InitTypeDef* USART_InitStruct)
 228:../STM32F2xx_StdPeriph_Driver/src/stm32f2xx_usart.c **** {
 150              		.loc 1 228 0
 151              		.cfi_startproc
 152              		@ args = 0, pretend = 0, frame = 40
 153              		@ frame_needed = 1, uses_anonymous_args = 0
 154 0100 80B5     		push	{r7, lr}
 155              	.LCFI3:
 156              		.cfi_def_cfa_offset 8
 157              		.cfi_offset 14, -4
 158              		.cfi_offset 7, -8
 159 0102 8AB0     		sub	sp, sp, #40
 160              	.LCFI4:
 161              		.cfi_def_cfa_offset 48
 162 0104 00AF     		add	r7, sp, #0
 163              	.LCFI5:
 164              		.cfi_def_cfa_register 7
 165 0106 7860     		str	r0, [r7, #4]
 166 0108 3960     		str	r1, [r7, #0]
 229:../STM32F2xx_StdPeriph_Driver/src/stm32f2xx_usart.c ****   uint32_t tmpreg = 0x00, apbclock = 0x00;
 167              		.loc 1 229 0
 168 010a 4FF00003 		mov	r3, #0
 169 010e 7B62     		str	r3, [r7, #36]
 170 0110 4FF00003 		mov	r3, #0
 171 0114 3B62     		str	r3, [r7, #32]
 230:../STM32F2xx_StdPeriph_Driver/src/stm32f2xx_usart.c ****   uint32_t integerdivider = 0x00;
 172              		.loc 1 230 0
 173 0116 4FF00003 		mov	r3, #0
 174 011a FB61     		str	r3, [r7, #28]
 231:../STM32F2xx_StdPeriph_Driver/src/stm32f2xx_usart.c ****   uint32_t fractionaldivider = 0x00;
 175              		.loc 1 231 0
 176 011c 4FF00003 		mov	r3, #0
 177 0120 BB61     		str	r3, [r7, #24]
 232:../STM32F2xx_StdPeriph_Driver/src/stm32f2xx_usart.c ****   RCC_ClocksTypeDef RCC_ClocksStatus;
 233:../STM32F2xx_StdPeriph_Driver/src/stm32f2xx_usart.c **** 
 234:../STM32F2xx_StdPeriph_Driver/src/stm32f2xx_usart.c ****   /* Check the parameters */
 235:../STM32F2xx_StdPeriph_Driver/src/stm32f2xx_usart.c ****   assert_param(IS_USART_ALL_PERIPH(USARTx));
 236:../STM32F2xx_StdPeriph_Driver/src/stm32f2xx_usart.c ****   assert_param(IS_USART_BAUDRATE(USART_InitStruct->USART_BaudRate));  
 237:../STM32F2xx_StdPeriph_Driver/src/stm32f2xx_usart.c ****   assert_param(IS_USART_WORD_LENGTH(USART_InitStruct->USART_WordLength));
 238:../STM32F2xx_StdPeriph_Driver/src/stm32f2xx_usart.c ****   assert_param(IS_USART_STOPBITS(USART_InitStruct->USART_StopBits));
 239:../STM32F2xx_StdPeriph_Driver/src/stm32f2xx_usart.c ****   assert_param(IS_USART_PARITY(USART_InitStruct->USART_Parity));
 240:../STM32F2xx_StdPeriph_Driver/src/stm32f2xx_usart.c ****   assert_param(IS_USART_MODE(USART_InitStruct->USART_Mode));
 241:../STM32F2xx_StdPeriph_Driver/src/stm32f2xx_usart.c ****   assert_param(IS_USART_HARDWARE_FLOW_CONTROL(USART_InitStruct->USART_HardwareFlowControl));
 242:../STM32F2xx_StdPeriph_Driver/src/stm32f2xx_usart.c **** 
 243:../STM32F2xx_StdPeriph_Driver/src/stm32f2xx_usart.c ****   /* The hardware flow control is available only for USART1, USART2, USART3 and USART6 */
 244:../STM32F2xx_StdPeriph_Driver/src/stm32f2xx_usart.c ****   if (USART_InitStruct->USART_HardwareFlowControl != USART_HardwareFlowControl_None)
 245:../STM32F2xx_StdPeriph_Driver/src/stm32f2xx_usart.c ****   {
 246:../STM32F2xx_StdPeriph_Driver/src/stm32f2xx_usart.c ****     assert_param(IS_USART_1236_PERIPH(USARTx));
 247:../STM32F2xx_StdPeriph_Driver/src/stm32f2xx_usart.c ****   }
 248:../STM32F2xx_StdPeriph_Driver/src/stm32f2xx_usart.c **** 
 249:../STM32F2xx_StdPeriph_Driver/src/stm32f2xx_usart.c **** /*---------------------------- USART CR2 Configuration -----------------------*/
 250:../STM32F2xx_StdPeriph_Driver/src/stm32f2xx_usart.c ****   tmpreg = USARTx->CR2;
 178              		.loc 1 250 0
 179 0122 7B68     		ldr	r3, [r7, #4]
 180 0124 1B8A     		ldrh	r3, [r3, #16]	@ movhi
 181 0126 9BB2     		uxth	r3, r3
 182 0128 7B62     		str	r3, [r7, #36]
 251:../STM32F2xx_StdPeriph_Driver/src/stm32f2xx_usart.c **** 
 252:../STM32F2xx_StdPeriph_Driver/src/stm32f2xx_usart.c ****   /* Clear STOP[13:12] bits */
 253:../STM32F2xx_StdPeriph_Driver/src/stm32f2xx_usart.c ****   tmpreg &= (uint32_t)~((uint32_t)USART_CR2_STOP);
 183              		.loc 1 253 0
 184 012a 7B6A     		ldr	r3, [r7, #36]
 185 012c 23F44053 		bic	r3, r3, #12288
 186 0130 7B62     		str	r3, [r7, #36]
 254:../STM32F2xx_StdPeriph_Driver/src/stm32f2xx_usart.c **** 
 255:../STM32F2xx_StdPeriph_Driver/src/stm32f2xx_usart.c ****   /* Configure the USART Stop Bits, Clock, CPOL, CPHA and LastBit :
 256:../STM32F2xx_StdPeriph_Driver/src/stm32f2xx_usart.c ****       Set STOP[13:12] bits according to USART_StopBits value */
 257:../STM32F2xx_StdPeriph_Driver/src/stm32f2xx_usart.c ****   tmpreg |= (uint32_t)USART_InitStruct->USART_StopBits;
 187              		.loc 1 257 0
 188 0132 3B68     		ldr	r3, [r7, #0]
 189 0134 DB88     		ldrh	r3, [r3, #6]
 190 0136 7A6A     		ldr	r2, [r7, #36]
 191 0138 1343     		orrs	r3, r3, r2
 192 013a 7B62     		str	r3, [r7, #36]
 258:../STM32F2xx_StdPeriph_Driver/src/stm32f2xx_usart.c ****   
 259:../STM32F2xx_StdPeriph_Driver/src/stm32f2xx_usart.c ****   /* Write to USART CR2 */
 260:../STM32F2xx_StdPeriph_Driver/src/stm32f2xx_usart.c ****   USARTx->CR2 = (uint16_t)tmpreg;
 193              		.loc 1 260 0
 194 013c 7B6A     		ldr	r3, [r7, #36]
 195 013e 9AB2     		uxth	r2, r3
 196 0140 7B68     		ldr	r3, [r7, #4]
 197 0142 1A82     		strh	r2, [r3, #16]	@ movhi
 261:../STM32F2xx_StdPeriph_Driver/src/stm32f2xx_usart.c **** 
 262:../STM32F2xx_StdPeriph_Driver/src/stm32f2xx_usart.c **** /*---------------------------- USART CR1 Configuration -----------------------*/
 263:../STM32F2xx_StdPeriph_Driver/src/stm32f2xx_usart.c ****   tmpreg = USARTx->CR1;
 198              		.loc 1 263 0
 199 0144 7B68     		ldr	r3, [r7, #4]
 200 0146 9B89     		ldrh	r3, [r3, #12]	@ movhi
 201 0148 9BB2     		uxth	r3, r3
 202 014a 7B62     		str	r3, [r7, #36]
 264:../STM32F2xx_StdPeriph_Driver/src/stm32f2xx_usart.c **** 
 265:../STM32F2xx_StdPeriph_Driver/src/stm32f2xx_usart.c ****   /* Clear M, PCE, PS, TE and RE bits */
 266:../STM32F2xx_StdPeriph_Driver/src/stm32f2xx_usart.c ****   tmpreg &= (uint32_t)~((uint32_t)CR1_CLEAR_MASK);
 203              		.loc 1 266 0
 204 014c 7B6A     		ldr	r3, [r7, #36]
 205 014e 23F4B053 		bic	r3, r3, #5632
 206 0152 23F00C03 		bic	r3, r3, #12
 207 0156 7B62     		str	r3, [r7, #36]
 267:../STM32F2xx_StdPeriph_Driver/src/stm32f2xx_usart.c **** 
 268:../STM32F2xx_StdPeriph_Driver/src/stm32f2xx_usart.c ****   /* Configure the USART Word Length, Parity and mode: 
 269:../STM32F2xx_StdPeriph_Driver/src/stm32f2xx_usart.c ****      Set the M bits according to USART_WordLength value 
 270:../STM32F2xx_StdPeriph_Driver/src/stm32f2xx_usart.c ****      Set PCE and PS bits according to USART_Parity value
 271:../STM32F2xx_StdPeriph_Driver/src/stm32f2xx_usart.c ****      Set TE and RE bits according to USART_Mode value */
 272:../STM32F2xx_StdPeriph_Driver/src/stm32f2xx_usart.c ****   tmpreg |= (uint32_t)USART_InitStruct->USART_WordLength | USART_InitStruct->USART_Parity |
 208              		.loc 1 272 0
 209 0158 3B68     		ldr	r3, [r7, #0]
 210 015a 9A88     		ldrh	r2, [r3, #4]
 211 015c 3B68     		ldr	r3, [r7, #0]
 212 015e 1B89     		ldrh	r3, [r3, #8]
 213 0160 1343     		orrs	r3, r3, r2
 214 0162 9AB2     		uxth	r2, r3
 273:../STM32F2xx_StdPeriph_Driver/src/stm32f2xx_usart.c ****             USART_InitStruct->USART_Mode;
 215              		.loc 1 273 0
 216 0164 3B68     		ldr	r3, [r7, #0]
 217 0166 5B89     		ldrh	r3, [r3, #10]
 272:../STM32F2xx_StdPeriph_Driver/src/stm32f2xx_usart.c ****   tmpreg |= (uint32_t)USART_InitStruct->USART_WordLength | USART_InitStruct->USART_Parity |
 218              		.loc 1 272 0
 219 0168 1343     		orrs	r3, r3, r2
 220 016a 9BB2     		uxth	r3, r3
 221 016c 7A6A     		ldr	r2, [r7, #36]
 222 016e 1343     		orrs	r3, r3, r2
 223 0170 7B62     		str	r3, [r7, #36]
 274:../STM32F2xx_StdPeriph_Driver/src/stm32f2xx_usart.c **** 
 275:../STM32F2xx_StdPeriph_Driver/src/stm32f2xx_usart.c ****   /* Write to USART CR1 */
 276:../STM32F2xx_StdPeriph_Driver/src/stm32f2xx_usart.c ****   USARTx->CR1 = (uint16_t)tmpreg;
 224              		.loc 1 276 0
 225 0172 7B6A     		ldr	r3, [r7, #36]
 226 0174 9AB2     		uxth	r2, r3
 227 0176 7B68     		ldr	r3, [r7, #4]
 228 0178 9A81     		strh	r2, [r3, #12]	@ movhi
 277:../STM32F2xx_StdPeriph_Driver/src/stm32f2xx_usart.c **** 
 278:../STM32F2xx_StdPeriph_Driver/src/stm32f2xx_usart.c **** /*---------------------------- USART CR3 Configuration -----------------------*/  
 279:../STM32F2xx_StdPeriph_Driver/src/stm32f2xx_usart.c ****   tmpreg = USARTx->CR3;
 229              		.loc 1 279 0
 230 017a 7B68     		ldr	r3, [r7, #4]
 231 017c 9B8A     		ldrh	r3, [r3, #20]	@ movhi
 232 017e 9BB2     		uxth	r3, r3
 233 0180 7B62     		str	r3, [r7, #36]
 280:../STM32F2xx_StdPeriph_Driver/src/stm32f2xx_usart.c **** 
 281:../STM32F2xx_StdPeriph_Driver/src/stm32f2xx_usart.c ****   /* Clear CTSE and RTSE bits */
 282:../STM32F2xx_StdPeriph_Driver/src/stm32f2xx_usart.c ****   tmpreg &= (uint32_t)~((uint32_t)CR3_CLEAR_MASK);
 234              		.loc 1 282 0
 235 0182 7B6A     		ldr	r3, [r7, #36]
 236 0184 23F44073 		bic	r3, r3, #768
 237 0188 7B62     		str	r3, [r7, #36]
 283:../STM32F2xx_StdPeriph_Driver/src/stm32f2xx_usart.c **** 
 284:../STM32F2xx_StdPeriph_Driver/src/stm32f2xx_usart.c ****   /* Configure the USART HFC : 
 285:../STM32F2xx_StdPeriph_Driver/src/stm32f2xx_usart.c ****       Set CTSE and RTSE bits according to USART_HardwareFlowControl value */
 286:../STM32F2xx_StdPeriph_Driver/src/stm32f2xx_usart.c ****   tmpreg |= USART_InitStruct->USART_HardwareFlowControl;
 238              		.loc 1 286 0
 239 018a 3B68     		ldr	r3, [r7, #0]
 240 018c 9B89     		ldrh	r3, [r3, #12]
 241 018e 7A6A     		ldr	r2, [r7, #36]
 242 0190 1343     		orrs	r3, r3, r2
 243 0192 7B62     		str	r3, [r7, #36]
 287:../STM32F2xx_StdPeriph_Driver/src/stm32f2xx_usart.c **** 
 288:../STM32F2xx_StdPeriph_Driver/src/stm32f2xx_usart.c ****   /* Write to USART CR3 */
 289:../STM32F2xx_StdPeriph_Driver/src/stm32f2xx_usart.c ****   USARTx->CR3 = (uint16_t)tmpreg;
 244              		.loc 1 289 0
 245 0194 7B6A     		ldr	r3, [r7, #36]
 246 0196 9AB2     		uxth	r2, r3
 247 0198 7B68     		ldr	r3, [r7, #4]
 248 019a 9A82     		strh	r2, [r3, #20]	@ movhi
 290:../STM32F2xx_StdPeriph_Driver/src/stm32f2xx_usart.c **** 
 291:../STM32F2xx_StdPeriph_Driver/src/stm32f2xx_usart.c **** /*---------------------------- USART BRR Configuration -----------------------*/
 292:../STM32F2xx_StdPeriph_Driver/src/stm32f2xx_usart.c ****   /* Configure the USART Baud Rate */
 293:../STM32F2xx_StdPeriph_Driver/src/stm32f2xx_usart.c ****   RCC_GetClocksFreq(&RCC_ClocksStatus);
 249              		.loc 1 293 0
 250 019c 07F10803 		add	r3, r7, #8
 251 01a0 1846     		mov	r0, r3
 252 01a2 FFF7FEFF 		bl	RCC_GetClocksFreq
 294:../STM32F2xx_StdPeriph_Driver/src/stm32f2xx_usart.c **** 
 295:../STM32F2xx_StdPeriph_Driver/src/stm32f2xx_usart.c ****   if ((USARTx == USART1) || (USARTx == USART6))
 253              		.loc 1 295 0
 254 01a6 7A68     		ldr	r2, [r7, #4]
 255 01a8 4FF48053 		mov	r3, #4096
 256 01ac C4F20103 		movt	r3, 16385
 257 01b0 9A42     		cmp	r2, r3
 258 01b2 06D0     		beq	.L9
 259              		.loc 1 295 0 is_stmt 0 discriminator 1
 260 01b4 7A68     		ldr	r2, [r7, #4]
 261 01b6 4FF4A053 		mov	r3, #5120
 262 01ba C4F20103 		movt	r3, 16385
 263 01be 9A42     		cmp	r2, r3
 264 01c0 02D1     		bne	.L10
 265              	.L9:
 296:../STM32F2xx_StdPeriph_Driver/src/stm32f2xx_usart.c ****   {
 297:../STM32F2xx_StdPeriph_Driver/src/stm32f2xx_usart.c ****     apbclock = RCC_ClocksStatus.PCLK2_Frequency;
 266              		.loc 1 297 0 is_stmt 1
 267 01c2 7B69     		ldr	r3, [r7, #20]
 268 01c4 3B62     		str	r3, [r7, #32]
 269 01c6 01E0     		b	.L11
 270              	.L10:
 298:../STM32F2xx_StdPeriph_Driver/src/stm32f2xx_usart.c ****   }
 299:../STM32F2xx_StdPeriph_Driver/src/stm32f2xx_usart.c ****   else
 300:../STM32F2xx_StdPeriph_Driver/src/stm32f2xx_usart.c ****   {
 301:../STM32F2xx_StdPeriph_Driver/src/stm32f2xx_usart.c ****     apbclock = RCC_ClocksStatus.PCLK1_Frequency;
 271              		.loc 1 301 0
 272 01c8 3B69     		ldr	r3, [r7, #16]
 273 01ca 3B62     		str	r3, [r7, #32]
 274              	.L11:
 302:../STM32F2xx_StdPeriph_Driver/src/stm32f2xx_usart.c ****   }
 303:../STM32F2xx_StdPeriph_Driver/src/stm32f2xx_usart.c ****   
 304:../STM32F2xx_StdPeriph_Driver/src/stm32f2xx_usart.c ****   /* Determine the integer part */
 305:../STM32F2xx_StdPeriph_Driver/src/stm32f2xx_usart.c ****   if ((USARTx->CR1 & USART_CR1_OVER8) != 0)
 275              		.loc 1 305 0
 276 01cc 7B68     		ldr	r3, [r7, #4]
 277 01ce 9B89     		ldrh	r3, [r3, #12]	@ movhi
 278 01d0 9BB2     		uxth	r3, r3
 279 01d2 9BB2     		uxth	r3, r3
 280 01d4 1BB2     		sxth	r3, r3
 281 01d6 002B     		cmp	r3, #0
 282 01d8 0FDA     		bge	.L12
 306:../STM32F2xx_StdPeriph_Driver/src/stm32f2xx_usart.c ****   {
 307:../STM32F2xx_StdPeriph_Driver/src/stm32f2xx_usart.c ****     /* Integer part computing in case Oversampling mode is 8 Samples */
 308:../STM32F2xx_StdPeriph_Driver/src/stm32f2xx_usart.c ****     integerdivider = ((25 * apbclock) / (2 * (USART_InitStruct->USART_BaudRate)));    
 283              		.loc 1 308 0
 284 01da 3A6A     		ldr	r2, [r7, #32]
 285 01dc 1346     		mov	r3, r2
 286 01de 4FEA8303 		lsl	r3, r3, #2
 287 01e2 9B18     		adds	r3, r3, r2
 288 01e4 4FEA8302 		lsl	r2, r3, #2
 289 01e8 9A18     		adds	r2, r3, r2
 290 01ea 3B68     		ldr	r3, [r7, #0]
 291 01ec 1B68     		ldr	r3, [r3, #0]
 292 01ee 4FEA4303 		lsl	r3, r3, #1
 293 01f2 B2FBF3F3 		udiv	r3, r2, r3
 294 01f6 FB61     		str	r3, [r7, #28]
 295 01f8 0EE0     		b	.L13
 296              	.L12:
 309:../STM32F2xx_StdPeriph_Driver/src/stm32f2xx_usart.c ****   }
 310:../STM32F2xx_StdPeriph_Driver/src/stm32f2xx_usart.c ****   else /* if ((USARTx->CR1 & USART_CR1_OVER8) == 0) */
 311:../STM32F2xx_StdPeriph_Driver/src/stm32f2xx_usart.c ****   {
 312:../STM32F2xx_StdPeriph_Driver/src/stm32f2xx_usart.c ****     /* Integer part computing in case Oversampling mode is 16 Samples */
 313:../STM32F2xx_StdPeriph_Driver/src/stm32f2xx_usart.c ****     integerdivider = ((25 * apbclock) / (4 * (USART_InitStruct->USART_BaudRate)));    
 297              		.loc 1 313 0
 298 01fa 3A6A     		ldr	r2, [r7, #32]
 299 01fc 1346     		mov	r3, r2
 300 01fe 4FEA8303 		lsl	r3, r3, #2
 301 0202 9B18     		adds	r3, r3, r2
 302 0204 4FEA8302 		lsl	r2, r3, #2
 303 0208 9A18     		adds	r2, r3, r2
 304 020a 3B68     		ldr	r3, [r7, #0]
 305 020c 1B68     		ldr	r3, [r3, #0]
 306 020e 4FEA8303 		lsl	r3, r3, #2
 307 0212 B2FBF3F3 		udiv	r3, r2, r3
 308 0216 FB61     		str	r3, [r7, #28]
 309              	.L13:
 314:../STM32F2xx_StdPeriph_Driver/src/stm32f2xx_usart.c ****   }
 315:../STM32F2xx_StdPeriph_Driver/src/stm32f2xx_usart.c ****   tmpreg = (integerdivider / 100) << 4;
 310              		.loc 1 315 0
 311 0218 FA69     		ldr	r2, [r7, #28]
 312 021a 48F21F53 		movw	r3, #34079
 313 021e C5F2EB13 		movt	r3, 20971
 314 0222 A3FB0213 		umull	r1, r3, r3, r2
 315 0226 4FEA5313 		lsr	r3, r3, #5
 316 022a 4FEA0313 		lsl	r3, r3, #4
 317 022e 7B62     		str	r3, [r7, #36]
 316:../STM32F2xx_StdPeriph_Driver/src/stm32f2xx_usart.c **** 
 317:../STM32F2xx_StdPeriph_Driver/src/stm32f2xx_usart.c ****   /* Determine the fractional part */
 318:../STM32F2xx_StdPeriph_Driver/src/stm32f2xx_usart.c ****   fractionaldivider = integerdivider - (100 * (tmpreg >> 4));
 318              		.loc 1 318 0
 319 0230 7B6A     		ldr	r3, [r7, #36]
 320 0232 4FEA1313 		lsr	r3, r3, #4
 321 0236 4FF06402 		mov	r2, #100
 322 023a 02FB03F3 		mul	r3, r2, r3
 323 023e FA69     		ldr	r2, [r7, #28]
 324 0240 D31A     		subs	r3, r2, r3
 325 0242 BB61     		str	r3, [r7, #24]
 319:../STM32F2xx_StdPeriph_Driver/src/stm32f2xx_usart.c **** 
 320:../STM32F2xx_StdPeriph_Driver/src/stm32f2xx_usart.c ****   /* Implement the fractional part in the register */
 321:../STM32F2xx_StdPeriph_Driver/src/stm32f2xx_usart.c ****   if ((USARTx->CR1 & USART_CR1_OVER8) != 0)
 326              		.loc 1 321 0
 327 0244 7B68     		ldr	r3, [r7, #4]
 328 0246 9B89     		ldrh	r3, [r3, #12]	@ movhi
 329 0248 9BB2     		uxth	r3, r3
 330 024a 9BB2     		uxth	r3, r3
 331 024c 1BB2     		sxth	r3, r3
 332 024e 002B     		cmp	r3, #0
 333 0250 12DA     		bge	.L14
 322:../STM32F2xx_StdPeriph_Driver/src/stm32f2xx_usart.c ****   {
 323:../STM32F2xx_StdPeriph_Driver/src/stm32f2xx_usart.c ****     tmpreg |= ((((fractionaldivider * 8) + 50) / 100)) & ((uint8_t)0x07);
 334              		.loc 1 323 0
 335 0252 BB69     		ldr	r3, [r7, #24]
 336 0254 4FEAC303 		lsl	r3, r3, #3
 337 0258 03F13202 		add	r2, r3, #50
 338 025c 48F21F53 		movw	r3, #34079
 339 0260 C5F2EB13 		movt	r3, 20971
 340 0264 A3FB0213 		umull	r1, r3, r3, r2
 341 0268 4FEA5313 		lsr	r3, r3, #5
 342 026c 03F00703 		and	r3, r3, #7
 343 0270 7A6A     		ldr	r2, [r7, #36]
 344 0272 1343     		orrs	r3, r3, r2
 345 0274 7B62     		str	r3, [r7, #36]
 346 0276 11E0     		b	.L15
 347              	.L14:
 324:../STM32F2xx_StdPeriph_Driver/src/stm32f2xx_usart.c ****   }
 325:../STM32F2xx_StdPeriph_Driver/src/stm32f2xx_usart.c ****   else /* if ((USARTx->CR1 & USART_CR1_OVER8) == 0) */
 326:../STM32F2xx_StdPeriph_Driver/src/stm32f2xx_usart.c ****   {
 327:../STM32F2xx_StdPeriph_Driver/src/stm32f2xx_usart.c ****     tmpreg |= ((((fractionaldivider * 16) + 50) / 100)) & ((uint8_t)0x0F);
 348              		.loc 1 327 0
 349 0278 BB69     		ldr	r3, [r7, #24]
 350 027a 4FEA0313 		lsl	r3, r3, #4
 351 027e 03F13202 		add	r2, r3, #50
 352 0282 48F21F53 		movw	r3, #34079
 353 0286 C5F2EB13 		movt	r3, 20971
 354 028a A3FB0213 		umull	r1, r3, r3, r2
 355 028e 4FEA5313 		lsr	r3, r3, #5
 356 0292 03F00F03 		and	r3, r3, #15
 357 0296 7A6A     		ldr	r2, [r7, #36]
 358 0298 1343     		orrs	r3, r3, r2
 359 029a 7B62     		str	r3, [r7, #36]
 360              	.L15:
 328:../STM32F2xx_StdPeriph_Driver/src/stm32f2xx_usart.c ****   }
 329:../STM32F2xx_StdPeriph_Driver/src/stm32f2xx_usart.c ****   
 330:../STM32F2xx_StdPeriph_Driver/src/stm32f2xx_usart.c ****   /* Write to USART BRR register */
 331:../STM32F2xx_StdPeriph_Driver/src/stm32f2xx_usart.c ****   USARTx->BRR = (uint16_t)tmpreg;
 361              		.loc 1 331 0
 362 029c 7B6A     		ldr	r3, [r7, #36]
 363 029e 9AB2     		uxth	r2, r3
 364 02a0 7B68     		ldr	r3, [r7, #4]
 365 02a2 1A81     		strh	r2, [r3, #8]	@ movhi
 332:../STM32F2xx_StdPeriph_Driver/src/stm32f2xx_usart.c **** }
 366              		.loc 1 332 0
 367 02a4 07F12807 		add	r7, r7, #40
 368 02a8 BD46     		mov	sp, r7
 369 02aa 80BD     		pop	{r7, pc}
 370              		.cfi_endproc
 371              	.LFE30:
 373              		.align	2
 374              		.global	USART_StructInit
 375              		.thumb
 376              		.thumb_func
 378              	USART_StructInit:
 379              	.LFB31:
 333:../STM32F2xx_StdPeriph_Driver/src/stm32f2xx_usart.c **** 
 334:../STM32F2xx_StdPeriph_Driver/src/stm32f2xx_usart.c **** /**
 335:../STM32F2xx_StdPeriph_Driver/src/stm32f2xx_usart.c ****   * @brief  Fills each USART_InitStruct member with its default value.
 336:../STM32F2xx_StdPeriph_Driver/src/stm32f2xx_usart.c ****   * @param  USART_InitStruct: pointer to a USART_InitTypeDef structure which will
 337:../STM32F2xx_StdPeriph_Driver/src/stm32f2xx_usart.c ****   *         be initialized.
 338:../STM32F2xx_StdPeriph_Driver/src/stm32f2xx_usart.c ****   * @retval None
 339:../STM32F2xx_StdPeriph_Driver/src/stm32f2xx_usart.c ****   */
 340:../STM32F2xx_StdPeriph_Driver/src/stm32f2xx_usart.c **** void USART_StructInit(USART_InitTypeDef* USART_InitStruct)
 341:../STM32F2xx_StdPeriph_Driver/src/stm32f2xx_usart.c **** {
 380              		.loc 1 341 0
 381              		.cfi_startproc
 382              		@ args = 0, pretend = 0, frame = 8
 383              		@ frame_needed = 1, uses_anonymous_args = 0
 384              		@ link register save eliminated.
 385 02ac 80B4     		push	{r7}
 386              	.LCFI6:
 387              		.cfi_def_cfa_offset 4
 388              		.cfi_offset 7, -4
 389 02ae 83B0     		sub	sp, sp, #12
 390              	.LCFI7:
 391              		.cfi_def_cfa_offset 16
 392 02b0 00AF     		add	r7, sp, #0
 393              	.LCFI8:
 394              		.cfi_def_cfa_register 7
 395 02b2 7860     		str	r0, [r7, #4]
 342:../STM32F2xx_StdPeriph_Driver/src/stm32f2xx_usart.c ****   /* USART_InitStruct members default value */
 343:../STM32F2xx_StdPeriph_Driver/src/stm32f2xx_usart.c ****   USART_InitStruct->USART_BaudRate = 9600;
 396              		.loc 1 343 0
 397 02b4 7B68     		ldr	r3, [r7, #4]
 398 02b6 4FF41652 		mov	r2, #9600
 399 02ba 1A60     		str	r2, [r3, #0]
 344:../STM32F2xx_StdPeriph_Driver/src/stm32f2xx_usart.c ****   USART_InitStruct->USART_WordLength = USART_WordLength_8b;
 400              		.loc 1 344 0
 401 02bc 7B68     		ldr	r3, [r7, #4]
 402 02be 4FF00002 		mov	r2, #0
 403 02c2 9A80     		strh	r2, [r3, #4]	@ movhi
 345:../STM32F2xx_StdPeriph_Driver/src/stm32f2xx_usart.c ****   USART_InitStruct->USART_StopBits = USART_StopBits_1;
 404              		.loc 1 345 0
 405 02c4 7B68     		ldr	r3, [r7, #4]
 406 02c6 4FF00002 		mov	r2, #0
 407 02ca DA80     		strh	r2, [r3, #6]	@ movhi
 346:../STM32F2xx_StdPeriph_Driver/src/stm32f2xx_usart.c ****   USART_InitStruct->USART_Parity = USART_Parity_No ;
 408              		.loc 1 346 0
 409 02cc 7B68     		ldr	r3, [r7, #4]
 410 02ce 4FF00002 		mov	r2, #0
 411 02d2 1A81     		strh	r2, [r3, #8]	@ movhi
 347:../STM32F2xx_StdPeriph_Driver/src/stm32f2xx_usart.c ****   USART_InitStruct->USART_Mode = USART_Mode_Rx | USART_Mode_Tx;
 412              		.loc 1 347 0
 413 02d4 7B68     		ldr	r3, [r7, #4]
 414 02d6 4FF00C02 		mov	r2, #12
 415 02da 5A81     		strh	r2, [r3, #10]	@ movhi
 348:../STM32F2xx_StdPeriph_Driver/src/stm32f2xx_usart.c ****   USART_InitStruct->USART_HardwareFlowControl = USART_HardwareFlowControl_None;  
 416              		.loc 1 348 0
 417 02dc 7B68     		ldr	r3, [r7, #4]
 418 02de 4FF00002 		mov	r2, #0
 419 02e2 9A81     		strh	r2, [r3, #12]	@ movhi
 349:../STM32F2xx_StdPeriph_Driver/src/stm32f2xx_usart.c **** }
 420              		.loc 1 349 0
 421 02e4 07F10C07 		add	r7, r7, #12
 422 02e8 BD46     		mov	sp, r7
 423 02ea 80BC     		pop	{r7}
 424 02ec 7047     		bx	lr
 425              		.cfi_endproc
 426              	.LFE31:
 428 02ee 00BF     		.align	2
 429              		.global	USART_ClockInit
 430              		.thumb
 431              		.thumb_func
 433              	USART_ClockInit:
 434              	.LFB32:
 350:../STM32F2xx_StdPeriph_Driver/src/stm32f2xx_usart.c **** 
 351:../STM32F2xx_StdPeriph_Driver/src/stm32f2xx_usart.c **** /**
 352:../STM32F2xx_StdPeriph_Driver/src/stm32f2xx_usart.c ****   * @brief  Initializes the USARTx peripheral Clock according to the 
 353:../STM32F2xx_StdPeriph_Driver/src/stm32f2xx_usart.c ****   *         specified parameters in the USART_ClockInitStruct .
 354:../STM32F2xx_StdPeriph_Driver/src/stm32f2xx_usart.c ****   * @param  USARTx: where x can be 1, 2, 3 or 6 to select the USART peripheral.
 355:../STM32F2xx_StdPeriph_Driver/src/stm32f2xx_usart.c ****   * @param  USART_ClockInitStruct: pointer to a USART_ClockInitTypeDef structure that
 356:../STM32F2xx_StdPeriph_Driver/src/stm32f2xx_usart.c ****   *         contains the configuration information for the specified  USART peripheral.
 357:../STM32F2xx_StdPeriph_Driver/src/stm32f2xx_usart.c ****   * @note   The Smart Card and Synchronous modes are not available for UART4 and UART5.    
 358:../STM32F2xx_StdPeriph_Driver/src/stm32f2xx_usart.c ****   * @retval None
 359:../STM32F2xx_StdPeriph_Driver/src/stm32f2xx_usart.c ****   */
 360:../STM32F2xx_StdPeriph_Driver/src/stm32f2xx_usart.c **** void USART_ClockInit(USART_TypeDef* USARTx, USART_ClockInitTypeDef* USART_ClockInitStruct)
 361:../STM32F2xx_StdPeriph_Driver/src/stm32f2xx_usart.c **** {
 435              		.loc 1 361 0
 436              		.cfi_startproc
 437              		@ args = 0, pretend = 0, frame = 16
 438              		@ frame_needed = 1, uses_anonymous_args = 0
 439              		@ link register save eliminated.
 440 02f0 80B4     		push	{r7}
 441              	.LCFI9:
 442              		.cfi_def_cfa_offset 4
 443              		.cfi_offset 7, -4
 444 02f2 85B0     		sub	sp, sp, #20
 445              	.LCFI10:
 446              		.cfi_def_cfa_offset 24
 447 02f4 00AF     		add	r7, sp, #0
 448              	.LCFI11:
 449              		.cfi_def_cfa_register 7
 450 02f6 7860     		str	r0, [r7, #4]
 451 02f8 3960     		str	r1, [r7, #0]
 362:../STM32F2xx_StdPeriph_Driver/src/stm32f2xx_usart.c ****   uint32_t tmpreg = 0x00;
 452              		.loc 1 362 0
 453 02fa 4FF00003 		mov	r3, #0
 454 02fe FB60     		str	r3, [r7, #12]
 363:../STM32F2xx_StdPeriph_Driver/src/stm32f2xx_usart.c ****   /* Check the parameters */
 364:../STM32F2xx_StdPeriph_Driver/src/stm32f2xx_usart.c ****   assert_param(IS_USART_1236_PERIPH(USARTx));
 365:../STM32F2xx_StdPeriph_Driver/src/stm32f2xx_usart.c ****   assert_param(IS_USART_CLOCK(USART_ClockInitStruct->USART_Clock));
 366:../STM32F2xx_StdPeriph_Driver/src/stm32f2xx_usart.c ****   assert_param(IS_USART_CPOL(USART_ClockInitStruct->USART_CPOL));
 367:../STM32F2xx_StdPeriph_Driver/src/stm32f2xx_usart.c ****   assert_param(IS_USART_CPHA(USART_ClockInitStruct->USART_CPHA));
 368:../STM32F2xx_StdPeriph_Driver/src/stm32f2xx_usart.c ****   assert_param(IS_USART_LASTBIT(USART_ClockInitStruct->USART_LastBit));
 369:../STM32F2xx_StdPeriph_Driver/src/stm32f2xx_usart.c ****   
 370:../STM32F2xx_StdPeriph_Driver/src/stm32f2xx_usart.c **** /*---------------------------- USART CR2 Configuration -----------------------*/
 371:../STM32F2xx_StdPeriph_Driver/src/stm32f2xx_usart.c ****   tmpreg = USARTx->CR2;
 455              		.loc 1 371 0
 456 0300 7B68     		ldr	r3, [r7, #4]
 457 0302 1B8A     		ldrh	r3, [r3, #16]	@ movhi
 458 0304 9BB2     		uxth	r3, r3
 459 0306 FB60     		str	r3, [r7, #12]
 372:../STM32F2xx_StdPeriph_Driver/src/stm32f2xx_usart.c ****   /* Clear CLKEN, CPOL, CPHA and LBCL bits */
 373:../STM32F2xx_StdPeriph_Driver/src/stm32f2xx_usart.c ****   tmpreg &= (uint32_t)~((uint32_t)CR2_CLOCK_CLEAR_MASK);
 460              		.loc 1 373 0
 461 0308 FB68     		ldr	r3, [r7, #12]
 462 030a 23F47063 		bic	r3, r3, #3840
 463 030e FB60     		str	r3, [r7, #12]
 374:../STM32F2xx_StdPeriph_Driver/src/stm32f2xx_usart.c ****   /* Configure the USART Clock, CPOL, CPHA and LastBit ------------*/
 375:../STM32F2xx_StdPeriph_Driver/src/stm32f2xx_usart.c ****   /* Set CLKEN bit according to USART_Clock value */
 376:../STM32F2xx_StdPeriph_Driver/src/stm32f2xx_usart.c ****   /* Set CPOL bit according to USART_CPOL value */
 377:../STM32F2xx_StdPeriph_Driver/src/stm32f2xx_usart.c ****   /* Set CPHA bit according to USART_CPHA value */
 378:../STM32F2xx_StdPeriph_Driver/src/stm32f2xx_usart.c ****   /* Set LBCL bit according to USART_LastBit value */
 379:../STM32F2xx_StdPeriph_Driver/src/stm32f2xx_usart.c ****   tmpreg |= (uint32_t)USART_ClockInitStruct->USART_Clock | USART_ClockInitStruct->USART_CPOL | 
 464              		.loc 1 379 0
 465 0310 3B68     		ldr	r3, [r7, #0]
 466 0312 1A88     		ldrh	r2, [r3, #0]
 467 0314 3B68     		ldr	r3, [r7, #0]
 468 0316 5B88     		ldrh	r3, [r3, #2]
 380:../STM32F2xx_StdPeriph_Driver/src/stm32f2xx_usart.c ****                  USART_ClockInitStruct->USART_CPHA | USART_ClockInitStruct->USART_LastBit;
 469              		.loc 1 380 0
 470 0318 1343     		orrs	r3, r3, r2
 471 031a 9AB2     		uxth	r2, r3
 472 031c 3B68     		ldr	r3, [r7, #0]
 473 031e 9B88     		ldrh	r3, [r3, #4]
 474 0320 1343     		orrs	r3, r3, r2
 475 0322 9AB2     		uxth	r2, r3
 476 0324 3B68     		ldr	r3, [r7, #0]
 477 0326 DB88     		ldrh	r3, [r3, #6]
 478 0328 1343     		orrs	r3, r3, r2
 479 032a 9BB2     		uxth	r3, r3
 379:../STM32F2xx_StdPeriph_Driver/src/stm32f2xx_usart.c ****   tmpreg |= (uint32_t)USART_ClockInitStruct->USART_Clock | USART_ClockInitStruct->USART_CPOL | 
 480              		.loc 1 379 0
 481 032c FA68     		ldr	r2, [r7, #12]
 482 032e 1343     		orrs	r3, r3, r2
 483 0330 FB60     		str	r3, [r7, #12]
 381:../STM32F2xx_StdPeriph_Driver/src/stm32f2xx_usart.c ****   /* Write to USART CR2 */
 382:../STM32F2xx_StdPeriph_Driver/src/stm32f2xx_usart.c ****   USARTx->CR2 = (uint16_t)tmpreg;
 484              		.loc 1 382 0
 485 0332 FB68     		ldr	r3, [r7, #12]
 486 0334 9AB2     		uxth	r2, r3
 487 0336 7B68     		ldr	r3, [r7, #4]
 488 0338 1A82     		strh	r2, [r3, #16]	@ movhi
 383:../STM32F2xx_StdPeriph_Driver/src/stm32f2xx_usart.c **** }
 489              		.loc 1 383 0
 490 033a 07F11407 		add	r7, r7, #20
 491 033e BD46     		mov	sp, r7
 492 0340 80BC     		pop	{r7}
 493 0342 7047     		bx	lr
 494              		.cfi_endproc
 495              	.LFE32:
 497              		.align	2
 498              		.global	USART_ClockStructInit
 499              		.thumb
 500              		.thumb_func
 502              	USART_ClockStructInit:
 503              	.LFB33:
 384:../STM32F2xx_StdPeriph_Driver/src/stm32f2xx_usart.c **** 
 385:../STM32F2xx_StdPeriph_Driver/src/stm32f2xx_usart.c **** /**
 386:../STM32F2xx_StdPeriph_Driver/src/stm32f2xx_usart.c ****   * @brief  Fills each USART_ClockInitStruct member with its default value.
 387:../STM32F2xx_StdPeriph_Driver/src/stm32f2xx_usart.c ****   * @param  USART_ClockInitStruct: pointer to a USART_ClockInitTypeDef structure
 388:../STM32F2xx_StdPeriph_Driver/src/stm32f2xx_usart.c ****   *         which will be initialized.
 389:../STM32F2xx_StdPeriph_Driver/src/stm32f2xx_usart.c ****   * @retval None
 390:../STM32F2xx_StdPeriph_Driver/src/stm32f2xx_usart.c ****   */
 391:../STM32F2xx_StdPeriph_Driver/src/stm32f2xx_usart.c **** void USART_ClockStructInit(USART_ClockInitTypeDef* USART_ClockInitStruct)
 392:../STM32F2xx_StdPeriph_Driver/src/stm32f2xx_usart.c **** {
 504              		.loc 1 392 0
 505              		.cfi_startproc
 506              		@ args = 0, pretend = 0, frame = 8
 507              		@ frame_needed = 1, uses_anonymous_args = 0
 508              		@ link register save eliminated.
 509 0344 80B4     		push	{r7}
 510              	.LCFI12:
 511              		.cfi_def_cfa_offset 4
 512              		.cfi_offset 7, -4
 513 0346 83B0     		sub	sp, sp, #12
 514              	.LCFI13:
 515              		.cfi_def_cfa_offset 16
 516 0348 00AF     		add	r7, sp, #0
 517              	.LCFI14:
 518              		.cfi_def_cfa_register 7
 519 034a 7860     		str	r0, [r7, #4]
 393:../STM32F2xx_StdPeriph_Driver/src/stm32f2xx_usart.c ****   /* USART_ClockInitStruct members default value */
 394:../STM32F2xx_StdPeriph_Driver/src/stm32f2xx_usart.c ****   USART_ClockInitStruct->USART_Clock = USART_Clock_Disable;
 520              		.loc 1 394 0
 521 034c 7B68     		ldr	r3, [r7, #4]
 522 034e 4FF00002 		mov	r2, #0
 523 0352 1A80     		strh	r2, [r3, #0]	@ movhi
 395:../STM32F2xx_StdPeriph_Driver/src/stm32f2xx_usart.c ****   USART_ClockInitStruct->USART_CPOL = USART_CPOL_Low;
 524              		.loc 1 395 0
 525 0354 7B68     		ldr	r3, [r7, #4]
 526 0356 4FF00002 		mov	r2, #0
 527 035a 5A80     		strh	r2, [r3, #2]	@ movhi
 396:../STM32F2xx_StdPeriph_Driver/src/stm32f2xx_usart.c ****   USART_ClockInitStruct->USART_CPHA = USART_CPHA_1Edge;
 528              		.loc 1 396 0
 529 035c 7B68     		ldr	r3, [r7, #4]
 530 035e 4FF00002 		mov	r2, #0
 531 0362 9A80     		strh	r2, [r3, #4]	@ movhi
 397:../STM32F2xx_StdPeriph_Driver/src/stm32f2xx_usart.c ****   USART_ClockInitStruct->USART_LastBit = USART_LastBit_Disable;
 532              		.loc 1 397 0
 533 0364 7B68     		ldr	r3, [r7, #4]
 534 0366 4FF00002 		mov	r2, #0
 535 036a DA80     		strh	r2, [r3, #6]	@ movhi
 398:../STM32F2xx_StdPeriph_Driver/src/stm32f2xx_usart.c **** }
 536              		.loc 1 398 0
 537 036c 07F10C07 		add	r7, r7, #12
 538 0370 BD46     		mov	sp, r7
 539 0372 80BC     		pop	{r7}
 540 0374 7047     		bx	lr
 541              		.cfi_endproc
 542              	.LFE33:
 544 0376 00BF     		.align	2
 545              		.global	USART_Cmd
 546              		.thumb
 547              		.thumb_func
 549              	USART_Cmd:
 550              	.LFB34:
 399:../STM32F2xx_StdPeriph_Driver/src/stm32f2xx_usart.c **** 
 400:../STM32F2xx_StdPeriph_Driver/src/stm32f2xx_usart.c **** /**
 401:../STM32F2xx_StdPeriph_Driver/src/stm32f2xx_usart.c ****   * @brief  Enables or disables the specified USART peripheral.
 402:../STM32F2xx_StdPeriph_Driver/src/stm32f2xx_usart.c ****   * @param  USARTx: where x can be 1, 2, 3, 4, 5 or 6 to select the USART or 
 403:../STM32F2xx_StdPeriph_Driver/src/stm32f2xx_usart.c ****   *         UART peripheral.
 404:../STM32F2xx_StdPeriph_Driver/src/stm32f2xx_usart.c ****   * @param  NewState: new state of the USARTx peripheral.
 405:../STM32F2xx_StdPeriph_Driver/src/stm32f2xx_usart.c ****   *          This parameter can be: ENABLE or DISABLE.
 406:../STM32F2xx_StdPeriph_Driver/src/stm32f2xx_usart.c ****   * @retval None
 407:../STM32F2xx_StdPeriph_Driver/src/stm32f2xx_usart.c ****   */
 408:../STM32F2xx_StdPeriph_Driver/src/stm32f2xx_usart.c **** void USART_Cmd(USART_TypeDef* USARTx, FunctionalState NewState)
 409:../STM32F2xx_StdPeriph_Driver/src/stm32f2xx_usart.c **** {
 551              		.loc 1 409 0
 552              		.cfi_startproc
 553              		@ args = 0, pretend = 0, frame = 8
 554              		@ frame_needed = 1, uses_anonymous_args = 0
 555              		@ link register save eliminated.
 556 0378 80B4     		push	{r7}
 557              	.LCFI15:
 558              		.cfi_def_cfa_offset 4
 559              		.cfi_offset 7, -4
 560 037a 83B0     		sub	sp, sp, #12
 561              	.LCFI16:
 562              		.cfi_def_cfa_offset 16
 563 037c 00AF     		add	r7, sp, #0
 564              	.LCFI17:
 565              		.cfi_def_cfa_register 7
 566 037e 7860     		str	r0, [r7, #4]
 567 0380 0B46     		mov	r3, r1
 568 0382 FB70     		strb	r3, [r7, #3]
 410:../STM32F2xx_StdPeriph_Driver/src/stm32f2xx_usart.c ****   /* Check the parameters */
 411:../STM32F2xx_StdPeriph_Driver/src/stm32f2xx_usart.c ****   assert_param(IS_USART_ALL_PERIPH(USARTx));
 412:../STM32F2xx_StdPeriph_Driver/src/stm32f2xx_usart.c ****   assert_param(IS_FUNCTIONAL_STATE(NewState));
 413:../STM32F2xx_StdPeriph_Driver/src/stm32f2xx_usart.c ****   
 414:../STM32F2xx_StdPeriph_Driver/src/stm32f2xx_usart.c ****   if (NewState != DISABLE)
 569              		.loc 1 414 0
 570 0384 FB78     		ldrb	r3, [r7, #3]	@ zero_extendqisi2
 571 0386 002B     		cmp	r3, #0
 572 0388 08D0     		beq	.L20
 415:../STM32F2xx_StdPeriph_Driver/src/stm32f2xx_usart.c ****   {
 416:../STM32F2xx_StdPeriph_Driver/src/stm32f2xx_usart.c ****     /* Enable the selected USART by setting the UE bit in the CR1 register */
 417:../STM32F2xx_StdPeriph_Driver/src/stm32f2xx_usart.c ****     USARTx->CR1 |= USART_CR1_UE;
 573              		.loc 1 417 0
 574 038a 7B68     		ldr	r3, [r7, #4]
 575 038c 9B89     		ldrh	r3, [r3, #12]	@ movhi
 576 038e 9BB2     		uxth	r3, r3
 577 0390 43F40053 		orr	r3, r3, #8192
 578 0394 9AB2     		uxth	r2, r3
 579 0396 7B68     		ldr	r3, [r7, #4]
 580 0398 9A81     		strh	r2, [r3, #12]	@ movhi
 581 039a 07E0     		b	.L19
 582              	.L20:
 418:../STM32F2xx_StdPeriph_Driver/src/stm32f2xx_usart.c ****   }
 419:../STM32F2xx_StdPeriph_Driver/src/stm32f2xx_usart.c ****   else
 420:../STM32F2xx_StdPeriph_Driver/src/stm32f2xx_usart.c ****   {
 421:../STM32F2xx_StdPeriph_Driver/src/stm32f2xx_usart.c ****     /* Disable the selected USART by clearing the UE bit in the CR1 register */
 422:../STM32F2xx_StdPeriph_Driver/src/stm32f2xx_usart.c ****     USARTx->CR1 &= (uint16_t)~((uint16_t)USART_CR1_UE);
 583              		.loc 1 422 0
 584 039c 7B68     		ldr	r3, [r7, #4]
 585 039e 9B89     		ldrh	r3, [r3, #12]	@ movhi
 586 03a0 9BB2     		uxth	r3, r3
 587 03a2 23F40053 		bic	r3, r3, #8192
 588 03a6 9AB2     		uxth	r2, r3
 589 03a8 7B68     		ldr	r3, [r7, #4]
 590 03aa 9A81     		strh	r2, [r3, #12]	@ movhi
 591              	.L19:
 423:../STM32F2xx_StdPeriph_Driver/src/stm32f2xx_usart.c ****   }
 424:../STM32F2xx_StdPeriph_Driver/src/stm32f2xx_usart.c **** }
 592              		.loc 1 424 0
 593 03ac 07F10C07 		add	r7, r7, #12
 594 03b0 BD46     		mov	sp, r7
 595 03b2 80BC     		pop	{r7}
 596 03b4 7047     		bx	lr
 597              		.cfi_endproc
 598              	.LFE34:
 600 03b6 00BF     		.align	2
 601              		.global	USART_SetPrescaler
 602              		.thumb
 603              		.thumb_func
 605              	USART_SetPrescaler:
 606              	.LFB35:
 425:../STM32F2xx_StdPeriph_Driver/src/stm32f2xx_usart.c **** 
 426:../STM32F2xx_StdPeriph_Driver/src/stm32f2xx_usart.c **** /**
 427:../STM32F2xx_StdPeriph_Driver/src/stm32f2xx_usart.c ****   * @brief  Sets the system clock prescaler.
 428:../STM32F2xx_StdPeriph_Driver/src/stm32f2xx_usart.c ****   * @param  USARTx: where x can be 1, 2, 3, 4, 5 or 6 to select the USART or 
 429:../STM32F2xx_StdPeriph_Driver/src/stm32f2xx_usart.c ****   *         UART peripheral.
 430:../STM32F2xx_StdPeriph_Driver/src/stm32f2xx_usart.c ****   * @param  USART_Prescaler: specifies the prescaler clock. 
 431:../STM32F2xx_StdPeriph_Driver/src/stm32f2xx_usart.c ****   * @note   The function is used for IrDA mode with UART4 and UART5.   
 432:../STM32F2xx_StdPeriph_Driver/src/stm32f2xx_usart.c ****   * @retval None
 433:../STM32F2xx_StdPeriph_Driver/src/stm32f2xx_usart.c ****   */
 434:../STM32F2xx_StdPeriph_Driver/src/stm32f2xx_usart.c **** void USART_SetPrescaler(USART_TypeDef* USARTx, uint8_t USART_Prescaler)
 435:../STM32F2xx_StdPeriph_Driver/src/stm32f2xx_usart.c **** { 
 607              		.loc 1 435 0
 608              		.cfi_startproc
 609              		@ args = 0, pretend = 0, frame = 8
 610              		@ frame_needed = 1, uses_anonymous_args = 0
 611              		@ link register save eliminated.
 612 03b8 80B4     		push	{r7}
 613              	.LCFI18:
 614              		.cfi_def_cfa_offset 4
 615              		.cfi_offset 7, -4
 616 03ba 83B0     		sub	sp, sp, #12
 617              	.LCFI19:
 618              		.cfi_def_cfa_offset 16
 619 03bc 00AF     		add	r7, sp, #0
 620              	.LCFI20:
 621              		.cfi_def_cfa_register 7
 622 03be 7860     		str	r0, [r7, #4]
 623 03c0 0B46     		mov	r3, r1
 624 03c2 FB70     		strb	r3, [r7, #3]
 436:../STM32F2xx_StdPeriph_Driver/src/stm32f2xx_usart.c ****   /* Check the parameters */
 437:../STM32F2xx_StdPeriph_Driver/src/stm32f2xx_usart.c ****   assert_param(IS_USART_ALL_PERIPH(USARTx));
 438:../STM32F2xx_StdPeriph_Driver/src/stm32f2xx_usart.c ****   
 439:../STM32F2xx_StdPeriph_Driver/src/stm32f2xx_usart.c ****   /* Clear the USART prescaler */
 440:../STM32F2xx_StdPeriph_Driver/src/stm32f2xx_usart.c ****   USARTx->GTPR &= USART_GTPR_GT;
 625              		.loc 1 440 0
 626 03c4 7B68     		ldr	r3, [r7, #4]
 627 03c6 1B8B     		ldrh	r3, [r3, #24]	@ movhi
 628 03c8 9BB2     		uxth	r3, r3
 629 03ca 23F0FF03 		bic	r3, r3, #255
 630 03ce 9AB2     		uxth	r2, r3
 631 03d0 7B68     		ldr	r3, [r7, #4]
 632 03d2 1A83     		strh	r2, [r3, #24]	@ movhi
 441:../STM32F2xx_StdPeriph_Driver/src/stm32f2xx_usart.c ****   /* Set the USART prescaler */
 442:../STM32F2xx_StdPeriph_Driver/src/stm32f2xx_usart.c ****   USARTx->GTPR |= USART_Prescaler;
 633              		.loc 1 442 0
 634 03d4 7B68     		ldr	r3, [r7, #4]
 635 03d6 1B8B     		ldrh	r3, [r3, #24]	@ movhi
 636 03d8 9AB2     		uxth	r2, r3
 637 03da FB78     		ldrb	r3, [r7, #3]	@ zero_extendqisi2
 638 03dc 9BB2     		uxth	r3, r3
 639 03de 1343     		orrs	r3, r3, r2
 640 03e0 9AB2     		uxth	r2, r3
 641 03e2 7B68     		ldr	r3, [r7, #4]
 642 03e4 1A83     		strh	r2, [r3, #24]	@ movhi
 443:../STM32F2xx_StdPeriph_Driver/src/stm32f2xx_usart.c **** }
 643              		.loc 1 443 0
 644 03e6 07F10C07 		add	r7, r7, #12
 645 03ea BD46     		mov	sp, r7
 646 03ec 80BC     		pop	{r7}
 647 03ee 7047     		bx	lr
 648              		.cfi_endproc
 649              	.LFE35:
 651              		.align	2
 652              		.global	USART_OverSampling8Cmd
 653              		.thumb
 654              		.thumb_func
 656              	USART_OverSampling8Cmd:
 657              	.LFB36:
 444:../STM32F2xx_StdPeriph_Driver/src/stm32f2xx_usart.c **** 
 445:../STM32F2xx_StdPeriph_Driver/src/stm32f2xx_usart.c **** /**
 446:../STM32F2xx_StdPeriph_Driver/src/stm32f2xx_usart.c ****   * @brief  Enables or disables the USART's 8x oversampling mode.
 447:../STM32F2xx_StdPeriph_Driver/src/stm32f2xx_usart.c ****   * @note   This function has to be called before calling USART_Init() function
 448:../STM32F2xx_StdPeriph_Driver/src/stm32f2xx_usart.c ****   *         in order to have correct baudrate Divider value.
 449:../STM32F2xx_StdPeriph_Driver/src/stm32f2xx_usart.c ****   * @param  USARTx: where x can be 1, 2, 3, 4, 5 or 6 to select the USART or 
 450:../STM32F2xx_StdPeriph_Driver/src/stm32f2xx_usart.c ****   *         UART peripheral.
 451:../STM32F2xx_StdPeriph_Driver/src/stm32f2xx_usart.c ****   * @param  NewState: new state of the USART 8x oversampling mode.
 452:../STM32F2xx_StdPeriph_Driver/src/stm32f2xx_usart.c ****   *          This parameter can be: ENABLE or DISABLE.
 453:../STM32F2xx_StdPeriph_Driver/src/stm32f2xx_usart.c ****   * @retval None
 454:../STM32F2xx_StdPeriph_Driver/src/stm32f2xx_usart.c ****   */
 455:../STM32F2xx_StdPeriph_Driver/src/stm32f2xx_usart.c **** void USART_OverSampling8Cmd(USART_TypeDef* USARTx, FunctionalState NewState)
 456:../STM32F2xx_StdPeriph_Driver/src/stm32f2xx_usart.c **** {
 658              		.loc 1 456 0
 659              		.cfi_startproc
 660              		@ args = 0, pretend = 0, frame = 8
 661              		@ frame_needed = 1, uses_anonymous_args = 0
 662              		@ link register save eliminated.
 663 03f0 80B4     		push	{r7}
 664              	.LCFI21:
 665              		.cfi_def_cfa_offset 4
 666              		.cfi_offset 7, -4
 667 03f2 83B0     		sub	sp, sp, #12
 668              	.LCFI22:
 669              		.cfi_def_cfa_offset 16
 670 03f4 00AF     		add	r7, sp, #0
 671              	.LCFI23:
 672              		.cfi_def_cfa_register 7
 673 03f6 7860     		str	r0, [r7, #4]
 674 03f8 0B46     		mov	r3, r1
 675 03fa FB70     		strb	r3, [r7, #3]
 457:../STM32F2xx_StdPeriph_Driver/src/stm32f2xx_usart.c ****   /* Check the parameters */
 458:../STM32F2xx_StdPeriph_Driver/src/stm32f2xx_usart.c ****   assert_param(IS_USART_ALL_PERIPH(USARTx));
 459:../STM32F2xx_StdPeriph_Driver/src/stm32f2xx_usart.c ****   assert_param(IS_FUNCTIONAL_STATE(NewState));
 460:../STM32F2xx_StdPeriph_Driver/src/stm32f2xx_usart.c ****   
 461:../STM32F2xx_StdPeriph_Driver/src/stm32f2xx_usart.c ****   if (NewState != DISABLE)
 676              		.loc 1 461 0
 677 03fc FB78     		ldrb	r3, [r7, #3]	@ zero_extendqisi2
 678 03fe 002B     		cmp	r3, #0
 679 0400 0AD0     		beq	.L24
 462:../STM32F2xx_StdPeriph_Driver/src/stm32f2xx_usart.c ****   {
 463:../STM32F2xx_StdPeriph_Driver/src/stm32f2xx_usart.c ****     /* Enable the 8x Oversampling mode by setting the OVER8 bit in the CR1 register */
 464:../STM32F2xx_StdPeriph_Driver/src/stm32f2xx_usart.c ****     USARTx->CR1 |= USART_CR1_OVER8;
 680              		.loc 1 464 0
 681 0402 7B68     		ldr	r3, [r7, #4]
 682 0404 9B89     		ldrh	r3, [r3, #12]	@ movhi
 683 0406 9BB2     		uxth	r3, r3
 684 0408 6FEA4343 		mvn	r3, r3, lsl #17
 685 040c 6FEA5343 		mvn	r3, r3, lsr #17
 686 0410 9AB2     		uxth	r2, r3
 687 0412 7B68     		ldr	r3, [r7, #4]
 688 0414 9A81     		strh	r2, [r3, #12]	@ movhi
 689 0416 09E0     		b	.L23
 690              	.L24:
 465:../STM32F2xx_StdPeriph_Driver/src/stm32f2xx_usart.c ****   }
 466:../STM32F2xx_StdPeriph_Driver/src/stm32f2xx_usart.c ****   else
 467:../STM32F2xx_StdPeriph_Driver/src/stm32f2xx_usart.c ****   {
 468:../STM32F2xx_StdPeriph_Driver/src/stm32f2xx_usart.c ****     /* Disable the 8x Oversampling mode by clearing the OVER8 bit in the CR1 register */
 469:../STM32F2xx_StdPeriph_Driver/src/stm32f2xx_usart.c ****     USARTx->CR1 &= (uint16_t)~((uint16_t)USART_CR1_OVER8);
 691              		.loc 1 469 0
 692 0418 7B68     		ldr	r3, [r7, #4]
 693 041a 9B89     		ldrh	r3, [r3, #12]	@ movhi
 694 041c 9BB2     		uxth	r3, r3
 695 041e 4FEA4343 		lsl	r3, r3, #17
 696 0422 4FEA5343 		lsr	r3, r3, #17
 697 0426 9AB2     		uxth	r2, r3
 698 0428 7B68     		ldr	r3, [r7, #4]
 699 042a 9A81     		strh	r2, [r3, #12]	@ movhi
 700              	.L23:
 470:../STM32F2xx_StdPeriph_Driver/src/stm32f2xx_usart.c ****   }
 471:../STM32F2xx_StdPeriph_Driver/src/stm32f2xx_usart.c **** }  
 701              		.loc 1 471 0
 702 042c 07F10C07 		add	r7, r7, #12
 703 0430 BD46     		mov	sp, r7
 704 0432 80BC     		pop	{r7}
 705 0434 7047     		bx	lr
 706              		.cfi_endproc
 707              	.LFE36:
 709 0436 00BF     		.align	2
 710              		.global	USART_OneBitMethodCmd
 711              		.thumb
 712              		.thumb_func
 714              	USART_OneBitMethodCmd:
 715              	.LFB37:
 472:../STM32F2xx_StdPeriph_Driver/src/stm32f2xx_usart.c **** 
 473:../STM32F2xx_StdPeriph_Driver/src/stm32f2xx_usart.c **** /**
 474:../STM32F2xx_StdPeriph_Driver/src/stm32f2xx_usart.c ****   * @brief  Enables or disables the USART's one bit sampling method.
 475:../STM32F2xx_StdPeriph_Driver/src/stm32f2xx_usart.c ****   * @param  USARTx: where x can be 1, 2, 3, 4, 5 or 6 to select the USART or 
 476:../STM32F2xx_StdPeriph_Driver/src/stm32f2xx_usart.c ****   *         UART peripheral.
 477:../STM32F2xx_StdPeriph_Driver/src/stm32f2xx_usart.c ****   * @param  NewState: new state of the USART one bit sampling method.
 478:../STM32F2xx_StdPeriph_Driver/src/stm32f2xx_usart.c ****   *          This parameter can be: ENABLE or DISABLE.
 479:../STM32F2xx_StdPeriph_Driver/src/stm32f2xx_usart.c ****   * @retval None
 480:../STM32F2xx_StdPeriph_Driver/src/stm32f2xx_usart.c ****   */
 481:../STM32F2xx_StdPeriph_Driver/src/stm32f2xx_usart.c **** void USART_OneBitMethodCmd(USART_TypeDef* USARTx, FunctionalState NewState)
 482:../STM32F2xx_StdPeriph_Driver/src/stm32f2xx_usart.c **** {
 716              		.loc 1 482 0
 717              		.cfi_startproc
 718              		@ args = 0, pretend = 0, frame = 8
 719              		@ frame_needed = 1, uses_anonymous_args = 0
 720              		@ link register save eliminated.
 721 0438 80B4     		push	{r7}
 722              	.LCFI24:
 723              		.cfi_def_cfa_offset 4
 724              		.cfi_offset 7, -4
 725 043a 83B0     		sub	sp, sp, #12
 726              	.LCFI25:
 727              		.cfi_def_cfa_offset 16
 728 043c 00AF     		add	r7, sp, #0
 729              	.LCFI26:
 730              		.cfi_def_cfa_register 7
 731 043e 7860     		str	r0, [r7, #4]
 732 0440 0B46     		mov	r3, r1
 733 0442 FB70     		strb	r3, [r7, #3]
 483:../STM32F2xx_StdPeriph_Driver/src/stm32f2xx_usart.c ****   /* Check the parameters */
 484:../STM32F2xx_StdPeriph_Driver/src/stm32f2xx_usart.c ****   assert_param(IS_USART_ALL_PERIPH(USARTx));
 485:../STM32F2xx_StdPeriph_Driver/src/stm32f2xx_usart.c ****   assert_param(IS_FUNCTIONAL_STATE(NewState));
 486:../STM32F2xx_StdPeriph_Driver/src/stm32f2xx_usart.c ****   
 487:../STM32F2xx_StdPeriph_Driver/src/stm32f2xx_usart.c ****   if (NewState != DISABLE)
 734              		.loc 1 487 0
 735 0444 FB78     		ldrb	r3, [r7, #3]	@ zero_extendqisi2
 736 0446 002B     		cmp	r3, #0
 737 0448 08D0     		beq	.L27
 488:../STM32F2xx_StdPeriph_Driver/src/stm32f2xx_usart.c ****   {
 489:../STM32F2xx_StdPeriph_Driver/src/stm32f2xx_usart.c ****     /* Enable the one bit method by setting the ONEBITE bit in the CR3 register */
 490:../STM32F2xx_StdPeriph_Driver/src/stm32f2xx_usart.c ****     USARTx->CR3 |= USART_CR3_ONEBIT;
 738              		.loc 1 490 0
 739 044a 7B68     		ldr	r3, [r7, #4]
 740 044c 9B8A     		ldrh	r3, [r3, #20]	@ movhi
 741 044e 9BB2     		uxth	r3, r3
 742 0450 43F40063 		orr	r3, r3, #2048
 743 0454 9AB2     		uxth	r2, r3
 744 0456 7B68     		ldr	r3, [r7, #4]
 745 0458 9A82     		strh	r2, [r3, #20]	@ movhi
 746 045a 07E0     		b	.L26
 747              	.L27:
 491:../STM32F2xx_StdPeriph_Driver/src/stm32f2xx_usart.c ****   }
 492:../STM32F2xx_StdPeriph_Driver/src/stm32f2xx_usart.c ****   else
 493:../STM32F2xx_StdPeriph_Driver/src/stm32f2xx_usart.c ****   {
 494:../STM32F2xx_StdPeriph_Driver/src/stm32f2xx_usart.c ****     /* Disable the one bit method by clearing the ONEBITE bit in the CR3 register */
 495:../STM32F2xx_StdPeriph_Driver/src/stm32f2xx_usart.c ****     USARTx->CR3 &= (uint16_t)~((uint16_t)USART_CR3_ONEBIT);
 748              		.loc 1 495 0
 749 045c 7B68     		ldr	r3, [r7, #4]
 750 045e 9B8A     		ldrh	r3, [r3, #20]	@ movhi
 751 0460 9BB2     		uxth	r3, r3
 752 0462 23F40063 		bic	r3, r3, #2048
 753 0466 9AB2     		uxth	r2, r3
 754 0468 7B68     		ldr	r3, [r7, #4]
 755 046a 9A82     		strh	r2, [r3, #20]	@ movhi
 756              	.L26:
 496:../STM32F2xx_StdPeriph_Driver/src/stm32f2xx_usart.c ****   }
 497:../STM32F2xx_StdPeriph_Driver/src/stm32f2xx_usart.c **** }
 757              		.loc 1 497 0
 758 046c 07F10C07 		add	r7, r7, #12
 759 0470 BD46     		mov	sp, r7
 760 0472 80BC     		pop	{r7}
 761 0474 7047     		bx	lr
 762              		.cfi_endproc
 763              	.LFE37:
 765 0476 00BF     		.align	2
 766              		.global	USART_SendData
 767              		.thumb
 768              		.thumb_func
 770              	USART_SendData:
 771              	.LFB38:
 498:../STM32F2xx_StdPeriph_Driver/src/stm32f2xx_usart.c **** 
 499:../STM32F2xx_StdPeriph_Driver/src/stm32f2xx_usart.c **** /**
 500:../STM32F2xx_StdPeriph_Driver/src/stm32f2xx_usart.c ****   * @}
 501:../STM32F2xx_StdPeriph_Driver/src/stm32f2xx_usart.c ****   */
 502:../STM32F2xx_StdPeriph_Driver/src/stm32f2xx_usart.c **** 
 503:../STM32F2xx_StdPeriph_Driver/src/stm32f2xx_usart.c **** /** @defgroup USART_Group2 Data transfers functions
 504:../STM32F2xx_StdPeriph_Driver/src/stm32f2xx_usart.c ****  *  @brief   Data transfers functions 
 505:../STM32F2xx_StdPeriph_Driver/src/stm32f2xx_usart.c ****  *
 506:../STM32F2xx_StdPeriph_Driver/src/stm32f2xx_usart.c **** @verbatim   
 507:../STM32F2xx_StdPeriph_Driver/src/stm32f2xx_usart.c ****  ===============================================================================
 508:../STM32F2xx_StdPeriph_Driver/src/stm32f2xx_usart.c ****                             Data transfers functions
 509:../STM32F2xx_StdPeriph_Driver/src/stm32f2xx_usart.c ****  ===============================================================================  
 510:../STM32F2xx_StdPeriph_Driver/src/stm32f2xx_usart.c **** 
 511:../STM32F2xx_StdPeriph_Driver/src/stm32f2xx_usart.c ****   This subsection provides a set of functions allowing to manage the USART data 
 512:../STM32F2xx_StdPeriph_Driver/src/stm32f2xx_usart.c ****   transfers.
 513:../STM32F2xx_StdPeriph_Driver/src/stm32f2xx_usart.c ****   
 514:../STM32F2xx_StdPeriph_Driver/src/stm32f2xx_usart.c ****   During an USART reception, data shifts in least significant bit first through 
 515:../STM32F2xx_StdPeriph_Driver/src/stm32f2xx_usart.c ****   the RX pin. In this mode, the USART_DR register consists of a buffer (RDR) 
 516:../STM32F2xx_StdPeriph_Driver/src/stm32f2xx_usart.c ****   between the internal bus and the received shift register.
 517:../STM32F2xx_StdPeriph_Driver/src/stm32f2xx_usart.c **** 
 518:../STM32F2xx_StdPeriph_Driver/src/stm32f2xx_usart.c ****   When a transmission is taking place, a write instruction to the USART_DR register 
 519:../STM32F2xx_StdPeriph_Driver/src/stm32f2xx_usart.c ****   stores the data in the TDR register and which is copied in the shift register 
 520:../STM32F2xx_StdPeriph_Driver/src/stm32f2xx_usart.c ****   at the end of the current transmission.
 521:../STM32F2xx_StdPeriph_Driver/src/stm32f2xx_usart.c **** 
 522:../STM32F2xx_StdPeriph_Driver/src/stm32f2xx_usart.c ****   The read access of the USART_DR register can be done using the USART_ReceiveData()
 523:../STM32F2xx_StdPeriph_Driver/src/stm32f2xx_usart.c ****   function and returns the RDR buffered value. Whereas a write access to the USART_DR 
 524:../STM32F2xx_StdPeriph_Driver/src/stm32f2xx_usart.c ****   can be done using USART_SendData() function and stores the written data into 
 525:../STM32F2xx_StdPeriph_Driver/src/stm32f2xx_usart.c ****   TDR buffer.
 526:../STM32F2xx_StdPeriph_Driver/src/stm32f2xx_usart.c **** 
 527:../STM32F2xx_StdPeriph_Driver/src/stm32f2xx_usart.c **** @endverbatim
 528:../STM32F2xx_StdPeriph_Driver/src/stm32f2xx_usart.c ****   * @{
 529:../STM32F2xx_StdPeriph_Driver/src/stm32f2xx_usart.c ****   */
 530:../STM32F2xx_StdPeriph_Driver/src/stm32f2xx_usart.c **** 
 531:../STM32F2xx_StdPeriph_Driver/src/stm32f2xx_usart.c **** /**
 532:../STM32F2xx_StdPeriph_Driver/src/stm32f2xx_usart.c ****   * @brief  Transmits single data through the USARTx peripheral.
 533:../STM32F2xx_StdPeriph_Driver/src/stm32f2xx_usart.c ****   * @param  USARTx: where x can be 1, 2, 3, 4, 5 or 6 to select the USART or 
 534:../STM32F2xx_StdPeriph_Driver/src/stm32f2xx_usart.c ****   *         UART peripheral.
 535:../STM32F2xx_StdPeriph_Driver/src/stm32f2xx_usart.c ****   * @param  Data: the data to transmit.
 536:../STM32F2xx_StdPeriph_Driver/src/stm32f2xx_usart.c ****   * @retval None
 537:../STM32F2xx_StdPeriph_Driver/src/stm32f2xx_usart.c ****   */
 538:../STM32F2xx_StdPeriph_Driver/src/stm32f2xx_usart.c **** void USART_SendData(USART_TypeDef* USARTx, uint16_t Data)
 539:../STM32F2xx_StdPeriph_Driver/src/stm32f2xx_usart.c **** {
 772              		.loc 1 539 0
 773              		.cfi_startproc
 774              		@ args = 0, pretend = 0, frame = 8
 775              		@ frame_needed = 1, uses_anonymous_args = 0
 776              		@ link register save eliminated.
 777 0478 80B4     		push	{r7}
 778              	.LCFI27:
 779              		.cfi_def_cfa_offset 4
 780              		.cfi_offset 7, -4
 781 047a 83B0     		sub	sp, sp, #12
 782              	.LCFI28:
 783              		.cfi_def_cfa_offset 16
 784 047c 00AF     		add	r7, sp, #0
 785              	.LCFI29:
 786              		.cfi_def_cfa_register 7
 787 047e 7860     		str	r0, [r7, #4]
 788 0480 0B46     		mov	r3, r1
 789 0482 7B80     		strh	r3, [r7, #2]	@ movhi
 540:../STM32F2xx_StdPeriph_Driver/src/stm32f2xx_usart.c ****   /* Check the parameters */
 541:../STM32F2xx_StdPeriph_Driver/src/stm32f2xx_usart.c ****   assert_param(IS_USART_ALL_PERIPH(USARTx));
 542:../STM32F2xx_StdPeriph_Driver/src/stm32f2xx_usart.c ****   assert_param(IS_USART_DATA(Data)); 
 543:../STM32F2xx_StdPeriph_Driver/src/stm32f2xx_usart.c ****     
 544:../STM32F2xx_StdPeriph_Driver/src/stm32f2xx_usart.c ****   /* Transmit Data */
 545:../STM32F2xx_StdPeriph_Driver/src/stm32f2xx_usart.c ****   USARTx->DR = (Data & (uint16_t)0x01FF);
 790              		.loc 1 545 0
 791 0484 7B88     		ldrh	r3, [r7, #2]	@ movhi
 792 0486 4FEAC353 		lsl	r3, r3, #23
 793 048a 4FEAD353 		lsr	r3, r3, #23
 794 048e 9AB2     		uxth	r2, r3
 795 0490 7B68     		ldr	r3, [r7, #4]
 796 0492 9A80     		strh	r2, [r3, #4]	@ movhi
 546:../STM32F2xx_StdPeriph_Driver/src/stm32f2xx_usart.c **** }
 797              		.loc 1 546 0
 798 0494 07F10C07 		add	r7, r7, #12
 799 0498 BD46     		mov	sp, r7
 800 049a 80BC     		pop	{r7}
 801 049c 7047     		bx	lr
 802              		.cfi_endproc
 803              	.LFE38:
 805 049e 00BF     		.align	2
 806              		.global	USART_ReceiveData
 807              		.thumb
 808              		.thumb_func
 810              	USART_ReceiveData:
 811              	.LFB39:
 547:../STM32F2xx_StdPeriph_Driver/src/stm32f2xx_usart.c **** 
 548:../STM32F2xx_StdPeriph_Driver/src/stm32f2xx_usart.c **** /**
 549:../STM32F2xx_StdPeriph_Driver/src/stm32f2xx_usart.c ****   * @brief  Returns the most recent received data by the USARTx peripheral.
 550:../STM32F2xx_StdPeriph_Driver/src/stm32f2xx_usart.c ****   * @param  USARTx: where x can be 1, 2, 3, 4, 5 or 6 to select the USART or 
 551:../STM32F2xx_StdPeriph_Driver/src/stm32f2xx_usart.c ****   *         UART peripheral.
 552:../STM32F2xx_StdPeriph_Driver/src/stm32f2xx_usart.c ****   * @retval The received data.
 553:../STM32F2xx_StdPeriph_Driver/src/stm32f2xx_usart.c ****   */
 554:../STM32F2xx_StdPeriph_Driver/src/stm32f2xx_usart.c **** uint16_t USART_ReceiveData(USART_TypeDef* USARTx)
 555:../STM32F2xx_StdPeriph_Driver/src/stm32f2xx_usart.c **** {
 812              		.loc 1 555 0
 813              		.cfi_startproc
 814              		@ args = 0, pretend = 0, frame = 8
 815              		@ frame_needed = 1, uses_anonymous_args = 0
 816              		@ link register save eliminated.
 817 04a0 80B4     		push	{r7}
 818              	.LCFI30:
 819              		.cfi_def_cfa_offset 4
 820              		.cfi_offset 7, -4
 821 04a2 83B0     		sub	sp, sp, #12
 822              	.LCFI31:
 823              		.cfi_def_cfa_offset 16
 824 04a4 00AF     		add	r7, sp, #0
 825              	.LCFI32:
 826              		.cfi_def_cfa_register 7
 827 04a6 7860     		str	r0, [r7, #4]
 556:../STM32F2xx_StdPeriph_Driver/src/stm32f2xx_usart.c ****   /* Check the parameters */
 557:../STM32F2xx_StdPeriph_Driver/src/stm32f2xx_usart.c ****   assert_param(IS_USART_ALL_PERIPH(USARTx));
 558:../STM32F2xx_StdPeriph_Driver/src/stm32f2xx_usart.c ****   
 559:../STM32F2xx_StdPeriph_Driver/src/stm32f2xx_usart.c ****   /* Receive Data */
 560:../STM32F2xx_StdPeriph_Driver/src/stm32f2xx_usart.c ****   return (uint16_t)(USARTx->DR & (uint16_t)0x01FF);
 828              		.loc 1 560 0
 829 04a8 7B68     		ldr	r3, [r7, #4]
 830 04aa 9B88     		ldrh	r3, [r3, #4]	@ movhi
 831 04ac 9BB2     		uxth	r3, r3
 832 04ae 4FEAC353 		lsl	r3, r3, #23
 833 04b2 4FEAD353 		lsr	r3, r3, #23
 834 04b6 9BB2     		uxth	r3, r3
 561:../STM32F2xx_StdPeriph_Driver/src/stm32f2xx_usart.c **** }
 835              		.loc 1 561 0
 836 04b8 1846     		mov	r0, r3
 837 04ba 07F10C07 		add	r7, r7, #12
 838 04be BD46     		mov	sp, r7
 839 04c0 80BC     		pop	{r7}
 840 04c2 7047     		bx	lr
 841              		.cfi_endproc
 842              	.LFE39:
 844              		.align	2
 845              		.global	USART_SetAddress
 846              		.thumb
 847              		.thumb_func
 849              	USART_SetAddress:
 850              	.LFB40:
 562:../STM32F2xx_StdPeriph_Driver/src/stm32f2xx_usart.c **** 
 563:../STM32F2xx_StdPeriph_Driver/src/stm32f2xx_usart.c **** /**
 564:../STM32F2xx_StdPeriph_Driver/src/stm32f2xx_usart.c ****   * @}
 565:../STM32F2xx_StdPeriph_Driver/src/stm32f2xx_usart.c ****   */
 566:../STM32F2xx_StdPeriph_Driver/src/stm32f2xx_usart.c **** 
 567:../STM32F2xx_StdPeriph_Driver/src/stm32f2xx_usart.c **** /** @defgroup USART_Group3 MultiProcessor Communication functions
 568:../STM32F2xx_StdPeriph_Driver/src/stm32f2xx_usart.c ****  *  @brief   Multi-Processor Communication functions 
 569:../STM32F2xx_StdPeriph_Driver/src/stm32f2xx_usart.c ****  *
 570:../STM32F2xx_StdPeriph_Driver/src/stm32f2xx_usart.c **** @verbatim   
 571:../STM32F2xx_StdPeriph_Driver/src/stm32f2xx_usart.c ****  ===============================================================================
 572:../STM32F2xx_StdPeriph_Driver/src/stm32f2xx_usart.c ****                     Multi-Processor Communication functions
 573:../STM32F2xx_StdPeriph_Driver/src/stm32f2xx_usart.c ****  ===============================================================================  
 574:../STM32F2xx_StdPeriph_Driver/src/stm32f2xx_usart.c **** 
 575:../STM32F2xx_StdPeriph_Driver/src/stm32f2xx_usart.c ****   This subsection provides a set of functions allowing to manage the USART 
 576:../STM32F2xx_StdPeriph_Driver/src/stm32f2xx_usart.c ****   multiprocessor communication.
 577:../STM32F2xx_StdPeriph_Driver/src/stm32f2xx_usart.c ****   
 578:../STM32F2xx_StdPeriph_Driver/src/stm32f2xx_usart.c ****   For instance one of the USARTs can be the master, its TX output is connected to 
 579:../STM32F2xx_StdPeriph_Driver/src/stm32f2xx_usart.c ****   the RX input of the other USART. The others are slaves, their respective TX outputs 
 580:../STM32F2xx_StdPeriph_Driver/src/stm32f2xx_usart.c ****   are logically ANDed together and connected to the RX input of the master.
 581:../STM32F2xx_StdPeriph_Driver/src/stm32f2xx_usart.c **** 
 582:../STM32F2xx_StdPeriph_Driver/src/stm32f2xx_usart.c ****   USART multiprocessor communication is possible through the following procedure:
 583:../STM32F2xx_StdPeriph_Driver/src/stm32f2xx_usart.c ****      1. Program the Baud rate, Word length = 9 bits, Stop bits, Parity, Mode transmitter 
 584:../STM32F2xx_StdPeriph_Driver/src/stm32f2xx_usart.c ****         or Mode receiver and hardware flow control values using the USART_Init()
 585:../STM32F2xx_StdPeriph_Driver/src/stm32f2xx_usart.c ****         function.
 586:../STM32F2xx_StdPeriph_Driver/src/stm32f2xx_usart.c ****      2. Configures the USART address using the USART_SetAddress() function.
 587:../STM32F2xx_StdPeriph_Driver/src/stm32f2xx_usart.c ****      3. Configures the wake up method (USART_WakeUp_IdleLine or USART_WakeUp_AddressMark)
 588:../STM32F2xx_StdPeriph_Driver/src/stm32f2xx_usart.c ****         using USART_WakeUpConfig() function only for the slaves.
 589:../STM32F2xx_StdPeriph_Driver/src/stm32f2xx_usart.c ****      4. Enable the USART using the USART_Cmd() function.
 590:../STM32F2xx_StdPeriph_Driver/src/stm32f2xx_usart.c ****      5. Enter the USART slaves in mute mode using USART_ReceiverWakeUpCmd() function.
 591:../STM32F2xx_StdPeriph_Driver/src/stm32f2xx_usart.c **** 
 592:../STM32F2xx_StdPeriph_Driver/src/stm32f2xx_usart.c ****   The USART Slave exit from mute mode when receive the wake up condition.
 593:../STM32F2xx_StdPeriph_Driver/src/stm32f2xx_usart.c **** 
 594:../STM32F2xx_StdPeriph_Driver/src/stm32f2xx_usart.c **** @endverbatim
 595:../STM32F2xx_StdPeriph_Driver/src/stm32f2xx_usart.c ****   * @{
 596:../STM32F2xx_StdPeriph_Driver/src/stm32f2xx_usart.c ****   */
 597:../STM32F2xx_StdPeriph_Driver/src/stm32f2xx_usart.c **** 
 598:../STM32F2xx_StdPeriph_Driver/src/stm32f2xx_usart.c **** /**
 599:../STM32F2xx_StdPeriph_Driver/src/stm32f2xx_usart.c ****   * @brief  Sets the address of the USART node.
 600:../STM32F2xx_StdPeriph_Driver/src/stm32f2xx_usart.c ****   * @param  USARTx: where x can be 1, 2, 3, 4, 5 or 6 to select the USART or 
 601:../STM32F2xx_StdPeriph_Driver/src/stm32f2xx_usart.c ****   *         UART peripheral.
 602:../STM32F2xx_StdPeriph_Driver/src/stm32f2xx_usart.c ****   * @param  USART_Address: Indicates the address of the USART node.
 603:../STM32F2xx_StdPeriph_Driver/src/stm32f2xx_usart.c ****   * @retval None
 604:../STM32F2xx_StdPeriph_Driver/src/stm32f2xx_usart.c ****   */
 605:../STM32F2xx_StdPeriph_Driver/src/stm32f2xx_usart.c **** void USART_SetAddress(USART_TypeDef* USARTx, uint8_t USART_Address)
 606:../STM32F2xx_StdPeriph_Driver/src/stm32f2xx_usart.c **** {
 851              		.loc 1 606 0
 852              		.cfi_startproc
 853              		@ args = 0, pretend = 0, frame = 8
 854              		@ frame_needed = 1, uses_anonymous_args = 0
 855              		@ link register save eliminated.
 856 04c4 80B4     		push	{r7}
 857              	.LCFI33:
 858              		.cfi_def_cfa_offset 4
 859              		.cfi_offset 7, -4
 860 04c6 83B0     		sub	sp, sp, #12
 861              	.LCFI34:
 862              		.cfi_def_cfa_offset 16
 863 04c8 00AF     		add	r7, sp, #0
 864              	.LCFI35:
 865              		.cfi_def_cfa_register 7
 866 04ca 7860     		str	r0, [r7, #4]
 867 04cc 0B46     		mov	r3, r1
 868 04ce FB70     		strb	r3, [r7, #3]
 607:../STM32F2xx_StdPeriph_Driver/src/stm32f2xx_usart.c ****   /* Check the parameters */
 608:../STM32F2xx_StdPeriph_Driver/src/stm32f2xx_usart.c ****   assert_param(IS_USART_ALL_PERIPH(USARTx));
 609:../STM32F2xx_StdPeriph_Driver/src/stm32f2xx_usart.c ****   assert_param(IS_USART_ADDRESS(USART_Address)); 
 610:../STM32F2xx_StdPeriph_Driver/src/stm32f2xx_usart.c ****     
 611:../STM32F2xx_StdPeriph_Driver/src/stm32f2xx_usart.c ****   /* Clear the USART address */
 612:../STM32F2xx_StdPeriph_Driver/src/stm32f2xx_usart.c ****   USARTx->CR2 &= (uint16_t)~((uint16_t)USART_CR2_ADD);
 869              		.loc 1 612 0
 870 04d0 7B68     		ldr	r3, [r7, #4]
 871 04d2 1B8A     		ldrh	r3, [r3, #16]	@ movhi
 872 04d4 9BB2     		uxth	r3, r3
 873 04d6 23F00F03 		bic	r3, r3, #15
 874 04da 9AB2     		uxth	r2, r3
 875 04dc 7B68     		ldr	r3, [r7, #4]
 876 04de 1A82     		strh	r2, [r3, #16]	@ movhi
 613:../STM32F2xx_StdPeriph_Driver/src/stm32f2xx_usart.c ****   /* Set the USART address node */
 614:../STM32F2xx_StdPeriph_Driver/src/stm32f2xx_usart.c ****   USARTx->CR2 |= USART_Address;
 877              		.loc 1 614 0
 878 04e0 7B68     		ldr	r3, [r7, #4]
 879 04e2 1B8A     		ldrh	r3, [r3, #16]	@ movhi
 880 04e4 9AB2     		uxth	r2, r3
 881 04e6 FB78     		ldrb	r3, [r7, #3]	@ zero_extendqisi2
 882 04e8 9BB2     		uxth	r3, r3
 883 04ea 1343     		orrs	r3, r3, r2
 884 04ec 9AB2     		uxth	r2, r3
 885 04ee 7B68     		ldr	r3, [r7, #4]
 886 04f0 1A82     		strh	r2, [r3, #16]	@ movhi
 615:../STM32F2xx_StdPeriph_Driver/src/stm32f2xx_usart.c **** }
 887              		.loc 1 615 0
 888 04f2 07F10C07 		add	r7, r7, #12
 889 04f6 BD46     		mov	sp, r7
 890 04f8 80BC     		pop	{r7}
 891 04fa 7047     		bx	lr
 892              		.cfi_endproc
 893              	.LFE40:
 895              		.align	2
 896              		.global	USART_ReceiverWakeUpCmd
 897              		.thumb
 898              		.thumb_func
 900              	USART_ReceiverWakeUpCmd:
 901              	.LFB41:
 616:../STM32F2xx_StdPeriph_Driver/src/stm32f2xx_usart.c **** 
 617:../STM32F2xx_StdPeriph_Driver/src/stm32f2xx_usart.c **** /**
 618:../STM32F2xx_StdPeriph_Driver/src/stm32f2xx_usart.c ****   * @brief  Determines if the USART is in mute mode or not.
 619:../STM32F2xx_StdPeriph_Driver/src/stm32f2xx_usart.c ****   * @param  USARTx: where x can be 1, 2, 3, 4, 5 or 6 to select the USART or 
 620:../STM32F2xx_StdPeriph_Driver/src/stm32f2xx_usart.c ****   *         UART peripheral.
 621:../STM32F2xx_StdPeriph_Driver/src/stm32f2xx_usart.c ****   * @param  NewState: new state of the USART mute mode.
 622:../STM32F2xx_StdPeriph_Driver/src/stm32f2xx_usart.c ****   *          This parameter can be: ENABLE or DISABLE.
 623:../STM32F2xx_StdPeriph_Driver/src/stm32f2xx_usart.c ****   * @retval None
 624:../STM32F2xx_StdPeriph_Driver/src/stm32f2xx_usart.c ****   */
 625:../STM32F2xx_StdPeriph_Driver/src/stm32f2xx_usart.c **** void USART_ReceiverWakeUpCmd(USART_TypeDef* USARTx, FunctionalState NewState)
 626:../STM32F2xx_StdPeriph_Driver/src/stm32f2xx_usart.c **** {
 902              		.loc 1 626 0
 903              		.cfi_startproc
 904              		@ args = 0, pretend = 0, frame = 8
 905              		@ frame_needed = 1, uses_anonymous_args = 0
 906              		@ link register save eliminated.
 907 04fc 80B4     		push	{r7}
 908              	.LCFI36:
 909              		.cfi_def_cfa_offset 4
 910              		.cfi_offset 7, -4
 911 04fe 83B0     		sub	sp, sp, #12
 912              	.LCFI37:
 913              		.cfi_def_cfa_offset 16
 914 0500 00AF     		add	r7, sp, #0
 915              	.LCFI38:
 916              		.cfi_def_cfa_register 7
 917 0502 7860     		str	r0, [r7, #4]
 918 0504 0B46     		mov	r3, r1
 919 0506 FB70     		strb	r3, [r7, #3]
 627:../STM32F2xx_StdPeriph_Driver/src/stm32f2xx_usart.c ****   /* Check the parameters */
 628:../STM32F2xx_StdPeriph_Driver/src/stm32f2xx_usart.c ****   assert_param(IS_USART_ALL_PERIPH(USARTx));
 629:../STM32F2xx_StdPeriph_Driver/src/stm32f2xx_usart.c ****   assert_param(IS_FUNCTIONAL_STATE(NewState)); 
 630:../STM32F2xx_StdPeriph_Driver/src/stm32f2xx_usart.c ****   
 631:../STM32F2xx_StdPeriph_Driver/src/stm32f2xx_usart.c ****   if (NewState != DISABLE)
 920              		.loc 1 631 0
 921 0508 FB78     		ldrb	r3, [r7, #3]	@ zero_extendqisi2
 922 050a 002B     		cmp	r3, #0
 923 050c 08D0     		beq	.L33
 632:../STM32F2xx_StdPeriph_Driver/src/stm32f2xx_usart.c ****   {
 633:../STM32F2xx_StdPeriph_Driver/src/stm32f2xx_usart.c ****     /* Enable the USART mute mode  by setting the RWU bit in the CR1 register */
 634:../STM32F2xx_StdPeriph_Driver/src/stm32f2xx_usart.c ****     USARTx->CR1 |= USART_CR1_RWU;
 924              		.loc 1 634 0
 925 050e 7B68     		ldr	r3, [r7, #4]
 926 0510 9B89     		ldrh	r3, [r3, #12]	@ movhi
 927 0512 9BB2     		uxth	r3, r3
 928 0514 43F00203 		orr	r3, r3, #2
 929 0518 9AB2     		uxth	r2, r3
 930 051a 7B68     		ldr	r3, [r7, #4]
 931 051c 9A81     		strh	r2, [r3, #12]	@ movhi
 932 051e 07E0     		b	.L32
 933              	.L33:
 635:../STM32F2xx_StdPeriph_Driver/src/stm32f2xx_usart.c ****   }
 636:../STM32F2xx_StdPeriph_Driver/src/stm32f2xx_usart.c ****   else
 637:../STM32F2xx_StdPeriph_Driver/src/stm32f2xx_usart.c ****   {
 638:../STM32F2xx_StdPeriph_Driver/src/stm32f2xx_usart.c ****     /* Disable the USART mute mode by clearing the RWU bit in the CR1 register */
 639:../STM32F2xx_StdPeriph_Driver/src/stm32f2xx_usart.c ****     USARTx->CR1 &= (uint16_t)~((uint16_t)USART_CR1_RWU);
 934              		.loc 1 639 0
 935 0520 7B68     		ldr	r3, [r7, #4]
 936 0522 9B89     		ldrh	r3, [r3, #12]	@ movhi
 937 0524 9BB2     		uxth	r3, r3
 938 0526 23F00203 		bic	r3, r3, #2
 939 052a 9AB2     		uxth	r2, r3
 940 052c 7B68     		ldr	r3, [r7, #4]
 941 052e 9A81     		strh	r2, [r3, #12]	@ movhi
 942              	.L32:
 640:../STM32F2xx_StdPeriph_Driver/src/stm32f2xx_usart.c ****   }
 641:../STM32F2xx_StdPeriph_Driver/src/stm32f2xx_usart.c **** }
 943              		.loc 1 641 0
 944 0530 07F10C07 		add	r7, r7, #12
 945 0534 BD46     		mov	sp, r7
 946 0536 80BC     		pop	{r7}
 947 0538 7047     		bx	lr
 948              		.cfi_endproc
 949              	.LFE41:
 951 053a 00BF     		.align	2
 952              		.global	USART_WakeUpConfig
 953              		.thumb
 954              		.thumb_func
 956              	USART_WakeUpConfig:
 957              	.LFB42:
 642:../STM32F2xx_StdPeriph_Driver/src/stm32f2xx_usart.c **** /**
 643:../STM32F2xx_StdPeriph_Driver/src/stm32f2xx_usart.c ****   * @brief  Selects the USART WakeUp method.
 644:../STM32F2xx_StdPeriph_Driver/src/stm32f2xx_usart.c ****   * @param  USARTx: where x can be 1, 2, 3, 4, 5 or 6 to select the USART or 
 645:../STM32F2xx_StdPeriph_Driver/src/stm32f2xx_usart.c ****   *         UART peripheral.
 646:../STM32F2xx_StdPeriph_Driver/src/stm32f2xx_usart.c ****   * @param  USART_WakeUp: specifies the USART wakeup method.
 647:../STM32F2xx_StdPeriph_Driver/src/stm32f2xx_usart.c ****   *          This parameter can be one of the following values:
 648:../STM32F2xx_StdPeriph_Driver/src/stm32f2xx_usart.c ****   *            @arg USART_WakeUp_IdleLine: WakeUp by an idle line detection
 649:../STM32F2xx_StdPeriph_Driver/src/stm32f2xx_usart.c ****   *            @arg USART_WakeUp_AddressMark: WakeUp by an address mark
 650:../STM32F2xx_StdPeriph_Driver/src/stm32f2xx_usart.c ****   * @retval None
 651:../STM32F2xx_StdPeriph_Driver/src/stm32f2xx_usart.c ****   */
 652:../STM32F2xx_StdPeriph_Driver/src/stm32f2xx_usart.c **** void USART_WakeUpConfig(USART_TypeDef* USARTx, uint16_t USART_WakeUp)
 653:../STM32F2xx_StdPeriph_Driver/src/stm32f2xx_usart.c **** {
 958              		.loc 1 653 0
 959              		.cfi_startproc
 960              		@ args = 0, pretend = 0, frame = 8
 961              		@ frame_needed = 1, uses_anonymous_args = 0
 962              		@ link register save eliminated.
 963 053c 80B4     		push	{r7}
 964              	.LCFI39:
 965              		.cfi_def_cfa_offset 4
 966              		.cfi_offset 7, -4
 967 053e 83B0     		sub	sp, sp, #12
 968              	.LCFI40:
 969              		.cfi_def_cfa_offset 16
 970 0540 00AF     		add	r7, sp, #0
 971              	.LCFI41:
 972              		.cfi_def_cfa_register 7
 973 0542 7860     		str	r0, [r7, #4]
 974 0544 0B46     		mov	r3, r1
 975 0546 7B80     		strh	r3, [r7, #2]	@ movhi
 654:../STM32F2xx_StdPeriph_Driver/src/stm32f2xx_usart.c ****   /* Check the parameters */
 655:../STM32F2xx_StdPeriph_Driver/src/stm32f2xx_usart.c ****   assert_param(IS_USART_ALL_PERIPH(USARTx));
 656:../STM32F2xx_StdPeriph_Driver/src/stm32f2xx_usart.c ****   assert_param(IS_USART_WAKEUP(USART_WakeUp));
 657:../STM32F2xx_StdPeriph_Driver/src/stm32f2xx_usart.c ****   
 658:../STM32F2xx_StdPeriph_Driver/src/stm32f2xx_usart.c ****   USARTx->CR1 &= (uint16_t)~((uint16_t)USART_CR1_WAKE);
 976              		.loc 1 658 0
 977 0548 7B68     		ldr	r3, [r7, #4]
 978 054a 9B89     		ldrh	r3, [r3, #12]	@ movhi
 979 054c 9BB2     		uxth	r3, r3
 980 054e 23F40063 		bic	r3, r3, #2048
 981 0552 9AB2     		uxth	r2, r3
 982 0554 7B68     		ldr	r3, [r7, #4]
 983 0556 9A81     		strh	r2, [r3, #12]	@ movhi
 659:../STM32F2xx_StdPeriph_Driver/src/stm32f2xx_usart.c ****   USARTx->CR1 |= USART_WakeUp;
 984              		.loc 1 659 0
 985 0558 7B68     		ldr	r3, [r7, #4]
 986 055a 9B89     		ldrh	r3, [r3, #12]	@ movhi
 987 055c 9AB2     		uxth	r2, r3
 988 055e 7B88     		ldrh	r3, [r7, #2]	@ movhi
 989 0560 1343     		orrs	r3, r3, r2
 990 0562 9AB2     		uxth	r2, r3
 991 0564 7B68     		ldr	r3, [r7, #4]
 992 0566 9A81     		strh	r2, [r3, #12]	@ movhi
 660:../STM32F2xx_StdPeriph_Driver/src/stm32f2xx_usart.c **** }
 993              		.loc 1 660 0
 994 0568 07F10C07 		add	r7, r7, #12
 995 056c BD46     		mov	sp, r7
 996 056e 80BC     		pop	{r7}
 997 0570 7047     		bx	lr
 998              		.cfi_endproc
 999              	.LFE42:
 1001 0572 00BF     		.align	2
 1002              		.global	USART_LINBreakDetectLengthConfig
 1003              		.thumb
 1004              		.thumb_func
 1006              	USART_LINBreakDetectLengthConfig:
 1007              	.LFB43:
 661:../STM32F2xx_StdPeriph_Driver/src/stm32f2xx_usart.c **** 
 662:../STM32F2xx_StdPeriph_Driver/src/stm32f2xx_usart.c **** /**
 663:../STM32F2xx_StdPeriph_Driver/src/stm32f2xx_usart.c ****   * @}
 664:../STM32F2xx_StdPeriph_Driver/src/stm32f2xx_usart.c ****   */
 665:../STM32F2xx_StdPeriph_Driver/src/stm32f2xx_usart.c **** 
 666:../STM32F2xx_StdPeriph_Driver/src/stm32f2xx_usart.c **** /** @defgroup USART_Group4 LIN mode functions
 667:../STM32F2xx_StdPeriph_Driver/src/stm32f2xx_usart.c ****  *  @brief   LIN mode functions 
 668:../STM32F2xx_StdPeriph_Driver/src/stm32f2xx_usart.c ****  *
 669:../STM32F2xx_StdPeriph_Driver/src/stm32f2xx_usart.c **** @verbatim   
 670:../STM32F2xx_StdPeriph_Driver/src/stm32f2xx_usart.c ****  ===============================================================================
 671:../STM32F2xx_StdPeriph_Driver/src/stm32f2xx_usart.c ****                                 LIN mode functions
 672:../STM32F2xx_StdPeriph_Driver/src/stm32f2xx_usart.c ****  ===============================================================================  
 673:../STM32F2xx_StdPeriph_Driver/src/stm32f2xx_usart.c **** 
 674:../STM32F2xx_StdPeriph_Driver/src/stm32f2xx_usart.c ****   This subsection provides a set of functions allowing to manage the USART LIN 
 675:../STM32F2xx_StdPeriph_Driver/src/stm32f2xx_usart.c ****   Mode communication.
 676:../STM32F2xx_StdPeriph_Driver/src/stm32f2xx_usart.c ****   
 677:../STM32F2xx_StdPeriph_Driver/src/stm32f2xx_usart.c ****   In LIN mode, 8-bit data format with 1 stop bit is required in accordance with 
 678:../STM32F2xx_StdPeriph_Driver/src/stm32f2xx_usart.c ****   the LIN standard.
 679:../STM32F2xx_StdPeriph_Driver/src/stm32f2xx_usart.c **** 
 680:../STM32F2xx_StdPeriph_Driver/src/stm32f2xx_usart.c ****   Only this LIN Feature is supported by the USART IP:
 681:../STM32F2xx_StdPeriph_Driver/src/stm32f2xx_usart.c ****     - LIN Master Synchronous Break send capability and LIN slave break detection
 682:../STM32F2xx_StdPeriph_Driver/src/stm32f2xx_usart.c ****       capability :  13-bit break generation and 10/11 bit break detection
 683:../STM32F2xx_StdPeriph_Driver/src/stm32f2xx_usart.c **** 
 684:../STM32F2xx_StdPeriph_Driver/src/stm32f2xx_usart.c **** 
 685:../STM32F2xx_StdPeriph_Driver/src/stm32f2xx_usart.c ****   USART LIN Master transmitter communication is possible through the following procedure:
 686:../STM32F2xx_StdPeriph_Driver/src/stm32f2xx_usart.c ****      1. Program the Baud rate, Word length = 8bits, Stop bits = 1bit, Parity, 
 687:../STM32F2xx_StdPeriph_Driver/src/stm32f2xx_usart.c ****         Mode transmitter or Mode receiver and hardware flow control values using 
 688:../STM32F2xx_StdPeriph_Driver/src/stm32f2xx_usart.c ****         the USART_Init() function.
 689:../STM32F2xx_StdPeriph_Driver/src/stm32f2xx_usart.c ****      2. Enable the USART using the USART_Cmd() function.
 690:../STM32F2xx_StdPeriph_Driver/src/stm32f2xx_usart.c ****      3. Enable the LIN mode using the USART_LINCmd() function.
 691:../STM32F2xx_StdPeriph_Driver/src/stm32f2xx_usart.c ****      4. Send the break character using USART_SendBreak() function.
 692:../STM32F2xx_StdPeriph_Driver/src/stm32f2xx_usart.c **** 
 693:../STM32F2xx_StdPeriph_Driver/src/stm32f2xx_usart.c ****   USART LIN Master receiver communication is possible through the following procedure:
 694:../STM32F2xx_StdPeriph_Driver/src/stm32f2xx_usart.c ****      1. Program the Baud rate, Word length = 8bits, Stop bits = 1bit, Parity, 
 695:../STM32F2xx_StdPeriph_Driver/src/stm32f2xx_usart.c ****         Mode transmitter or Mode receiver and hardware flow control values using 
 696:../STM32F2xx_StdPeriph_Driver/src/stm32f2xx_usart.c ****         the USART_Init() function.
 697:../STM32F2xx_StdPeriph_Driver/src/stm32f2xx_usart.c ****      2. Enable the USART using the USART_Cmd() function.
 698:../STM32F2xx_StdPeriph_Driver/src/stm32f2xx_usart.c ****      3. Configures the break detection length using the USART_LINBreakDetectLengthConfig()
 699:../STM32F2xx_StdPeriph_Driver/src/stm32f2xx_usart.c ****         function.
 700:../STM32F2xx_StdPeriph_Driver/src/stm32f2xx_usart.c ****      4. Enable the LIN mode using the USART_LINCmd() function.
 701:../STM32F2xx_StdPeriph_Driver/src/stm32f2xx_usart.c **** 
 702:../STM32F2xx_StdPeriph_Driver/src/stm32f2xx_usart.c **** 
 703:../STM32F2xx_StdPeriph_Driver/src/stm32f2xx_usart.c **** @note In LIN mode, the following bits must be kept cleared:
 704:../STM32F2xx_StdPeriph_Driver/src/stm32f2xx_usart.c ****         - CLKEN in the USART_CR2 register,
 705:../STM32F2xx_StdPeriph_Driver/src/stm32f2xx_usart.c ****         - STOP[1:0], SCEN, HDSEL and IREN in the USART_CR3 register.
 706:../STM32F2xx_StdPeriph_Driver/src/stm32f2xx_usart.c **** 
 707:../STM32F2xx_StdPeriph_Driver/src/stm32f2xx_usart.c **** @endverbatim
 708:../STM32F2xx_StdPeriph_Driver/src/stm32f2xx_usart.c ****   * @{
 709:../STM32F2xx_StdPeriph_Driver/src/stm32f2xx_usart.c ****   */
 710:../STM32F2xx_StdPeriph_Driver/src/stm32f2xx_usart.c **** 
 711:../STM32F2xx_StdPeriph_Driver/src/stm32f2xx_usart.c **** /**
 712:../STM32F2xx_StdPeriph_Driver/src/stm32f2xx_usart.c ****   * @brief  Sets the USART LIN Break detection length.
 713:../STM32F2xx_StdPeriph_Driver/src/stm32f2xx_usart.c ****   * @param  USARTx: where x can be 1, 2, 3, 4, 5 or 6 to select the USART or 
 714:../STM32F2xx_StdPeriph_Driver/src/stm32f2xx_usart.c ****   *         UART peripheral.
 715:../STM32F2xx_StdPeriph_Driver/src/stm32f2xx_usart.c ****   * @param  USART_LINBreakDetectLength: specifies the LIN break detection length.
 716:../STM32F2xx_StdPeriph_Driver/src/stm32f2xx_usart.c ****   *          This parameter can be one of the following values:
 717:../STM32F2xx_StdPeriph_Driver/src/stm32f2xx_usart.c ****   *            @arg USART_LINBreakDetectLength_10b: 10-bit break detection
 718:../STM32F2xx_StdPeriph_Driver/src/stm32f2xx_usart.c ****   *            @arg USART_LINBreakDetectLength_11b: 11-bit break detection
 719:../STM32F2xx_StdPeriph_Driver/src/stm32f2xx_usart.c ****   * @retval None
 720:../STM32F2xx_StdPeriph_Driver/src/stm32f2xx_usart.c ****   */
 721:../STM32F2xx_StdPeriph_Driver/src/stm32f2xx_usart.c **** void USART_LINBreakDetectLengthConfig(USART_TypeDef* USARTx, uint16_t USART_LINBreakDetectLength)
 722:../STM32F2xx_StdPeriph_Driver/src/stm32f2xx_usart.c **** {
 1008              		.loc 1 722 0
 1009              		.cfi_startproc
 1010              		@ args = 0, pretend = 0, frame = 8
 1011              		@ frame_needed = 1, uses_anonymous_args = 0
 1012              		@ link register save eliminated.
 1013 0574 80B4     		push	{r7}
 1014              	.LCFI42:
 1015              		.cfi_def_cfa_offset 4
 1016              		.cfi_offset 7, -4
 1017 0576 83B0     		sub	sp, sp, #12
 1018              	.LCFI43:
 1019              		.cfi_def_cfa_offset 16
 1020 0578 00AF     		add	r7, sp, #0
 1021              	.LCFI44:
 1022              		.cfi_def_cfa_register 7
 1023 057a 7860     		str	r0, [r7, #4]
 1024 057c 0B46     		mov	r3, r1
 1025 057e 7B80     		strh	r3, [r7, #2]	@ movhi
 723:../STM32F2xx_StdPeriph_Driver/src/stm32f2xx_usart.c ****   /* Check the parameters */
 724:../STM32F2xx_StdPeriph_Driver/src/stm32f2xx_usart.c ****   assert_param(IS_USART_ALL_PERIPH(USARTx));
 725:../STM32F2xx_StdPeriph_Driver/src/stm32f2xx_usart.c ****   assert_param(IS_USART_LIN_BREAK_DETECT_LENGTH(USART_LINBreakDetectLength));
 726:../STM32F2xx_StdPeriph_Driver/src/stm32f2xx_usart.c ****   
 727:../STM32F2xx_StdPeriph_Driver/src/stm32f2xx_usart.c ****   USARTx->CR2 &= (uint16_t)~((uint16_t)USART_CR2_LBDL);
 1026              		.loc 1 727 0
 1027 0580 7B68     		ldr	r3, [r7, #4]
 1028 0582 1B8A     		ldrh	r3, [r3, #16]	@ movhi
 1029 0584 9BB2     		uxth	r3, r3
 1030 0586 23F02003 		bic	r3, r3, #32
 1031 058a 9AB2     		uxth	r2, r3
 1032 058c 7B68     		ldr	r3, [r7, #4]
 1033 058e 1A82     		strh	r2, [r3, #16]	@ movhi
 728:../STM32F2xx_StdPeriph_Driver/src/stm32f2xx_usart.c ****   USARTx->CR2 |= USART_LINBreakDetectLength;  
 1034              		.loc 1 728 0
 1035 0590 7B68     		ldr	r3, [r7, #4]
 1036 0592 1B8A     		ldrh	r3, [r3, #16]	@ movhi
 1037 0594 9AB2     		uxth	r2, r3
 1038 0596 7B88     		ldrh	r3, [r7, #2]	@ movhi
 1039 0598 1343     		orrs	r3, r3, r2
 1040 059a 9AB2     		uxth	r2, r3
 1041 059c 7B68     		ldr	r3, [r7, #4]
 1042 059e 1A82     		strh	r2, [r3, #16]	@ movhi
 729:../STM32F2xx_StdPeriph_Driver/src/stm32f2xx_usart.c **** }
 1043              		.loc 1 729 0
 1044 05a0 07F10C07 		add	r7, r7, #12
 1045 05a4 BD46     		mov	sp, r7
 1046 05a6 80BC     		pop	{r7}
 1047 05a8 7047     		bx	lr
 1048              		.cfi_endproc
 1049              	.LFE43:
 1051 05aa 00BF     		.align	2
 1052              		.global	USART_LINCmd
 1053              		.thumb
 1054              		.thumb_func
 1056              	USART_LINCmd:
 1057              	.LFB44:
 730:../STM32F2xx_StdPeriph_Driver/src/stm32f2xx_usart.c **** 
 731:../STM32F2xx_StdPeriph_Driver/src/stm32f2xx_usart.c **** /**
 732:../STM32F2xx_StdPeriph_Driver/src/stm32f2xx_usart.c ****   * @brief  Enables or disables the USART's LIN mode.
 733:../STM32F2xx_StdPeriph_Driver/src/stm32f2xx_usart.c ****   * @param  USARTx: where x can be 1, 2, 3, 4, 5 or 6 to select the USART or 
 734:../STM32F2xx_StdPeriph_Driver/src/stm32f2xx_usart.c ****   *         UART peripheral.
 735:../STM32F2xx_StdPeriph_Driver/src/stm32f2xx_usart.c ****   * @param  NewState: new state of the USART LIN mode.
 736:../STM32F2xx_StdPeriph_Driver/src/stm32f2xx_usart.c ****   *          This parameter can be: ENABLE or DISABLE.
 737:../STM32F2xx_StdPeriph_Driver/src/stm32f2xx_usart.c ****   * @retval None
 738:../STM32F2xx_StdPeriph_Driver/src/stm32f2xx_usart.c ****   */
 739:../STM32F2xx_StdPeriph_Driver/src/stm32f2xx_usart.c **** void USART_LINCmd(USART_TypeDef* USARTx, FunctionalState NewState)
 740:../STM32F2xx_StdPeriph_Driver/src/stm32f2xx_usart.c **** {
 1058              		.loc 1 740 0
 1059              		.cfi_startproc
 1060              		@ args = 0, pretend = 0, frame = 8
 1061              		@ frame_needed = 1, uses_anonymous_args = 0
 1062              		@ link register save eliminated.
 1063 05ac 80B4     		push	{r7}
 1064              	.LCFI45:
 1065              		.cfi_def_cfa_offset 4
 1066              		.cfi_offset 7, -4
 1067 05ae 83B0     		sub	sp, sp, #12
 1068              	.LCFI46:
 1069              		.cfi_def_cfa_offset 16
 1070 05b0 00AF     		add	r7, sp, #0
 1071              	.LCFI47:
 1072              		.cfi_def_cfa_register 7
 1073 05b2 7860     		str	r0, [r7, #4]
 1074 05b4 0B46     		mov	r3, r1
 1075 05b6 FB70     		strb	r3, [r7, #3]
 741:../STM32F2xx_StdPeriph_Driver/src/stm32f2xx_usart.c ****   /* Check the parameters */
 742:../STM32F2xx_StdPeriph_Driver/src/stm32f2xx_usart.c ****   assert_param(IS_USART_ALL_PERIPH(USARTx));
 743:../STM32F2xx_StdPeriph_Driver/src/stm32f2xx_usart.c ****   assert_param(IS_FUNCTIONAL_STATE(NewState));
 744:../STM32F2xx_StdPeriph_Driver/src/stm32f2xx_usart.c ****   
 745:../STM32F2xx_StdPeriph_Driver/src/stm32f2xx_usart.c ****   if (NewState != DISABLE)
 1076              		.loc 1 745 0
 1077 05b8 FB78     		ldrb	r3, [r7, #3]	@ zero_extendqisi2
 1078 05ba 002B     		cmp	r3, #0
 1079 05bc 08D0     		beq	.L38
 746:../STM32F2xx_StdPeriph_Driver/src/stm32f2xx_usart.c ****   {
 747:../STM32F2xx_StdPeriph_Driver/src/stm32f2xx_usart.c ****     /* Enable the LIN mode by setting the LINEN bit in the CR2 register */
 748:../STM32F2xx_StdPeriph_Driver/src/stm32f2xx_usart.c ****     USARTx->CR2 |= USART_CR2_LINEN;
 1080              		.loc 1 748 0
 1081 05be 7B68     		ldr	r3, [r7, #4]
 1082 05c0 1B8A     		ldrh	r3, [r3, #16]	@ movhi
 1083 05c2 9BB2     		uxth	r3, r3
 1084 05c4 43F48043 		orr	r3, r3, #16384
 1085 05c8 9AB2     		uxth	r2, r3
 1086 05ca 7B68     		ldr	r3, [r7, #4]
 1087 05cc 1A82     		strh	r2, [r3, #16]	@ movhi
 1088 05ce 07E0     		b	.L37
 1089              	.L38:
 749:../STM32F2xx_StdPeriph_Driver/src/stm32f2xx_usart.c ****   }
 750:../STM32F2xx_StdPeriph_Driver/src/stm32f2xx_usart.c ****   else
 751:../STM32F2xx_StdPeriph_Driver/src/stm32f2xx_usart.c ****   {
 752:../STM32F2xx_StdPeriph_Driver/src/stm32f2xx_usart.c ****     /* Disable the LIN mode by clearing the LINEN bit in the CR2 register */
 753:../STM32F2xx_StdPeriph_Driver/src/stm32f2xx_usart.c ****     USARTx->CR2 &= (uint16_t)~((uint16_t)USART_CR2_LINEN);
 1090              		.loc 1 753 0
 1091 05d0 7B68     		ldr	r3, [r7, #4]
 1092 05d2 1B8A     		ldrh	r3, [r3, #16]	@ movhi
 1093 05d4 9BB2     		uxth	r3, r3
 1094 05d6 23F48043 		bic	r3, r3, #16384
 1095 05da 9AB2     		uxth	r2, r3
 1096 05dc 7B68     		ldr	r3, [r7, #4]
 1097 05de 1A82     		strh	r2, [r3, #16]	@ movhi
 1098              	.L37:
 754:../STM32F2xx_StdPeriph_Driver/src/stm32f2xx_usart.c ****   }
 755:../STM32F2xx_StdPeriph_Driver/src/stm32f2xx_usart.c **** }
 1099              		.loc 1 755 0
 1100 05e0 07F10C07 		add	r7, r7, #12
 1101 05e4 BD46     		mov	sp, r7
 1102 05e6 80BC     		pop	{r7}
 1103 05e8 7047     		bx	lr
 1104              		.cfi_endproc
 1105              	.LFE44:
 1107 05ea 00BF     		.align	2
 1108              		.global	USART_SendBreak
 1109              		.thumb
 1110              		.thumb_func
 1112              	USART_SendBreak:
 1113              	.LFB45:
 756:../STM32F2xx_StdPeriph_Driver/src/stm32f2xx_usart.c **** 
 757:../STM32F2xx_StdPeriph_Driver/src/stm32f2xx_usart.c **** /**
 758:../STM32F2xx_StdPeriph_Driver/src/stm32f2xx_usart.c ****   * @brief  Transmits break characters.
 759:../STM32F2xx_StdPeriph_Driver/src/stm32f2xx_usart.c ****   * @param  USARTx: where x can be 1, 2, 3, 4, 5 or 6 to select the USART or 
 760:../STM32F2xx_StdPeriph_Driver/src/stm32f2xx_usart.c ****   *         UART peripheral.
 761:../STM32F2xx_StdPeriph_Driver/src/stm32f2xx_usart.c ****   * @retval None
 762:../STM32F2xx_StdPeriph_Driver/src/stm32f2xx_usart.c ****   */
 763:../STM32F2xx_StdPeriph_Driver/src/stm32f2xx_usart.c **** void USART_SendBreak(USART_TypeDef* USARTx)
 764:../STM32F2xx_StdPeriph_Driver/src/stm32f2xx_usart.c **** {
 1114              		.loc 1 764 0
 1115              		.cfi_startproc
 1116              		@ args = 0, pretend = 0, frame = 8
 1117              		@ frame_needed = 1, uses_anonymous_args = 0
 1118              		@ link register save eliminated.
 1119 05ec 80B4     		push	{r7}
 1120              	.LCFI48:
 1121              		.cfi_def_cfa_offset 4
 1122              		.cfi_offset 7, -4
 1123 05ee 83B0     		sub	sp, sp, #12
 1124              	.LCFI49:
 1125              		.cfi_def_cfa_offset 16
 1126 05f0 00AF     		add	r7, sp, #0
 1127              	.LCFI50:
 1128              		.cfi_def_cfa_register 7
 1129 05f2 7860     		str	r0, [r7, #4]
 765:../STM32F2xx_StdPeriph_Driver/src/stm32f2xx_usart.c ****   /* Check the parameters */
 766:../STM32F2xx_StdPeriph_Driver/src/stm32f2xx_usart.c ****   assert_param(IS_USART_ALL_PERIPH(USARTx));
 767:../STM32F2xx_StdPeriph_Driver/src/stm32f2xx_usart.c ****   
 768:../STM32F2xx_StdPeriph_Driver/src/stm32f2xx_usart.c ****   /* Send break characters */
 769:../STM32F2xx_StdPeriph_Driver/src/stm32f2xx_usart.c ****   USARTx->CR1 |= USART_CR1_SBK;
 1130              		.loc 1 769 0
 1131 05f4 7B68     		ldr	r3, [r7, #4]
 1132 05f6 9B89     		ldrh	r3, [r3, #12]	@ movhi
 1133 05f8 9BB2     		uxth	r3, r3
 1134 05fa 43F00103 		orr	r3, r3, #1
 1135 05fe 9AB2     		uxth	r2, r3
 1136 0600 7B68     		ldr	r3, [r7, #4]
 1137 0602 9A81     		strh	r2, [r3, #12]	@ movhi
 770:../STM32F2xx_StdPeriph_Driver/src/stm32f2xx_usart.c **** }
 1138              		.loc 1 770 0
 1139 0604 07F10C07 		add	r7, r7, #12
 1140 0608 BD46     		mov	sp, r7
 1141 060a 80BC     		pop	{r7}
 1142 060c 7047     		bx	lr
 1143              		.cfi_endproc
 1144              	.LFE45:
 1146 060e 00BF     		.align	2
 1147              		.global	USART_HalfDuplexCmd
 1148              		.thumb
 1149              		.thumb_func
 1151              	USART_HalfDuplexCmd:
 1152              	.LFB46:
 771:../STM32F2xx_StdPeriph_Driver/src/stm32f2xx_usart.c **** 
 772:../STM32F2xx_StdPeriph_Driver/src/stm32f2xx_usart.c **** /**
 773:../STM32F2xx_StdPeriph_Driver/src/stm32f2xx_usart.c ****   * @}
 774:../STM32F2xx_StdPeriph_Driver/src/stm32f2xx_usart.c ****   */
 775:../STM32F2xx_StdPeriph_Driver/src/stm32f2xx_usart.c **** 
 776:../STM32F2xx_StdPeriph_Driver/src/stm32f2xx_usart.c **** /** @defgroup USART_Group5 Halfduplex mode function
 777:../STM32F2xx_StdPeriph_Driver/src/stm32f2xx_usart.c ****  *  @brief   Half-duplex mode function 
 778:../STM32F2xx_StdPeriph_Driver/src/stm32f2xx_usart.c ****  *
 779:../STM32F2xx_StdPeriph_Driver/src/stm32f2xx_usart.c **** @verbatim   
 780:../STM32F2xx_StdPeriph_Driver/src/stm32f2xx_usart.c ****  ===============================================================================
 781:../STM32F2xx_StdPeriph_Driver/src/stm32f2xx_usart.c ****                          Half-duplex mode function
 782:../STM32F2xx_StdPeriph_Driver/src/stm32f2xx_usart.c ****  ===============================================================================  
 783:../STM32F2xx_StdPeriph_Driver/src/stm32f2xx_usart.c **** 
 784:../STM32F2xx_StdPeriph_Driver/src/stm32f2xx_usart.c ****   This subsection provides a set of functions allowing to manage the USART 
 785:../STM32F2xx_StdPeriph_Driver/src/stm32f2xx_usart.c ****   Half-duplex communication.
 786:../STM32F2xx_StdPeriph_Driver/src/stm32f2xx_usart.c ****   
 787:../STM32F2xx_StdPeriph_Driver/src/stm32f2xx_usart.c ****   The USART can be configured to follow a single-wire half-duplex protocol where 
 788:../STM32F2xx_StdPeriph_Driver/src/stm32f2xx_usart.c ****   the TX and RX lines are internally connected.
 789:../STM32F2xx_StdPeriph_Driver/src/stm32f2xx_usart.c **** 
 790:../STM32F2xx_StdPeriph_Driver/src/stm32f2xx_usart.c ****   USART Half duplex communication is possible through the following procedure:
 791:../STM32F2xx_StdPeriph_Driver/src/stm32f2xx_usart.c ****      1. Program the Baud rate, Word length, Stop bits, Parity, Mode transmitter 
 792:../STM32F2xx_StdPeriph_Driver/src/stm32f2xx_usart.c ****         or Mode receiver and hardware flow control values using the USART_Init()
 793:../STM32F2xx_StdPeriph_Driver/src/stm32f2xx_usart.c ****         function.
 794:../STM32F2xx_StdPeriph_Driver/src/stm32f2xx_usart.c ****      2. Configures the USART address using the USART_SetAddress() function.
 795:../STM32F2xx_StdPeriph_Driver/src/stm32f2xx_usart.c ****      3. Enable the USART using the USART_Cmd() function.
 796:../STM32F2xx_StdPeriph_Driver/src/stm32f2xx_usart.c ****      4. Enable the half duplex mode using USART_HalfDuplexCmd() function.
 797:../STM32F2xx_StdPeriph_Driver/src/stm32f2xx_usart.c **** 
 798:../STM32F2xx_StdPeriph_Driver/src/stm32f2xx_usart.c **** 
 799:../STM32F2xx_StdPeriph_Driver/src/stm32f2xx_usart.c **** @note The RX pin is no longer used
 800:../STM32F2xx_StdPeriph_Driver/src/stm32f2xx_usart.c **** @note In Half-duplex mode the following bits must be kept cleared:
 801:../STM32F2xx_StdPeriph_Driver/src/stm32f2xx_usart.c ****         - LINEN and CLKEN bits in the USART_CR2 register.
 802:../STM32F2xx_StdPeriph_Driver/src/stm32f2xx_usart.c ****         - SCEN and IREN bits in the USART_CR3 register.
 803:../STM32F2xx_StdPeriph_Driver/src/stm32f2xx_usart.c **** 
 804:../STM32F2xx_StdPeriph_Driver/src/stm32f2xx_usart.c **** @endverbatim
 805:../STM32F2xx_StdPeriph_Driver/src/stm32f2xx_usart.c ****   * @{
 806:../STM32F2xx_StdPeriph_Driver/src/stm32f2xx_usart.c ****   */
 807:../STM32F2xx_StdPeriph_Driver/src/stm32f2xx_usart.c **** 
 808:../STM32F2xx_StdPeriph_Driver/src/stm32f2xx_usart.c **** /**
 809:../STM32F2xx_StdPeriph_Driver/src/stm32f2xx_usart.c ****   * @brief  Enables or disables the USART's Half Duplex communication.
 810:../STM32F2xx_StdPeriph_Driver/src/stm32f2xx_usart.c ****   * @param  USARTx: where x can be 1, 2, 3, 4, 5 or 6 to select the USART or 
 811:../STM32F2xx_StdPeriph_Driver/src/stm32f2xx_usart.c ****   *         UART peripheral.
 812:../STM32F2xx_StdPeriph_Driver/src/stm32f2xx_usart.c ****   * @param  NewState: new state of the USART Communication.
 813:../STM32F2xx_StdPeriph_Driver/src/stm32f2xx_usart.c ****   *          This parameter can be: ENABLE or DISABLE.
 814:../STM32F2xx_StdPeriph_Driver/src/stm32f2xx_usart.c ****   * @retval None
 815:../STM32F2xx_StdPeriph_Driver/src/stm32f2xx_usart.c ****   */
 816:../STM32F2xx_StdPeriph_Driver/src/stm32f2xx_usart.c **** void USART_HalfDuplexCmd(USART_TypeDef* USARTx, FunctionalState NewState)
 817:../STM32F2xx_StdPeriph_Driver/src/stm32f2xx_usart.c **** {
 1153              		.loc 1 817 0
 1154              		.cfi_startproc
 1155              		@ args = 0, pretend = 0, frame = 8
 1156              		@ frame_needed = 1, uses_anonymous_args = 0
 1157              		@ link register save eliminated.
 1158 0610 80B4     		push	{r7}
 1159              	.LCFI51:
 1160              		.cfi_def_cfa_offset 4
 1161              		.cfi_offset 7, -4
 1162 0612 83B0     		sub	sp, sp, #12
 1163              	.LCFI52:
 1164              		.cfi_def_cfa_offset 16
 1165 0614 00AF     		add	r7, sp, #0
 1166              	.LCFI53:
 1167              		.cfi_def_cfa_register 7
 1168 0616 7860     		str	r0, [r7, #4]
 1169 0618 0B46     		mov	r3, r1
 1170 061a FB70     		strb	r3, [r7, #3]
 818:../STM32F2xx_StdPeriph_Driver/src/stm32f2xx_usart.c ****   /* Check the parameters */
 819:../STM32F2xx_StdPeriph_Driver/src/stm32f2xx_usart.c ****   assert_param(IS_USART_ALL_PERIPH(USARTx));
 820:../STM32F2xx_StdPeriph_Driver/src/stm32f2xx_usart.c ****   assert_param(IS_FUNCTIONAL_STATE(NewState));
 821:../STM32F2xx_StdPeriph_Driver/src/stm32f2xx_usart.c ****   
 822:../STM32F2xx_StdPeriph_Driver/src/stm32f2xx_usart.c ****   if (NewState != DISABLE)
 1171              		.loc 1 822 0
 1172 061c FB78     		ldrb	r3, [r7, #3]	@ zero_extendqisi2
 1173 061e 002B     		cmp	r3, #0
 1174 0620 08D0     		beq	.L42
 823:../STM32F2xx_StdPeriph_Driver/src/stm32f2xx_usart.c ****   {
 824:../STM32F2xx_StdPeriph_Driver/src/stm32f2xx_usart.c ****     /* Enable the Half-Duplex mode by setting the HDSEL bit in the CR3 register */
 825:../STM32F2xx_StdPeriph_Driver/src/stm32f2xx_usart.c ****     USARTx->CR3 |= USART_CR3_HDSEL;
 1175              		.loc 1 825 0
 1176 0622 7B68     		ldr	r3, [r7, #4]
 1177 0624 9B8A     		ldrh	r3, [r3, #20]	@ movhi
 1178 0626 9BB2     		uxth	r3, r3
 1179 0628 43F00803 		orr	r3, r3, #8
 1180 062c 9AB2     		uxth	r2, r3
 1181 062e 7B68     		ldr	r3, [r7, #4]
 1182 0630 9A82     		strh	r2, [r3, #20]	@ movhi
 1183 0632 07E0     		b	.L41
 1184              	.L42:
 826:../STM32F2xx_StdPeriph_Driver/src/stm32f2xx_usart.c ****   }
 827:../STM32F2xx_StdPeriph_Driver/src/stm32f2xx_usart.c ****   else
 828:../STM32F2xx_StdPeriph_Driver/src/stm32f2xx_usart.c ****   {
 829:../STM32F2xx_StdPeriph_Driver/src/stm32f2xx_usart.c ****     /* Disable the Half-Duplex mode by clearing the HDSEL bit in the CR3 register */
 830:../STM32F2xx_StdPeriph_Driver/src/stm32f2xx_usart.c ****     USARTx->CR3 &= (uint16_t)~((uint16_t)USART_CR3_HDSEL);
 1185              		.loc 1 830 0
 1186 0634 7B68     		ldr	r3, [r7, #4]
 1187 0636 9B8A     		ldrh	r3, [r3, #20]	@ movhi
 1188 0638 9BB2     		uxth	r3, r3
 1189 063a 23F00803 		bic	r3, r3, #8
 1190 063e 9AB2     		uxth	r2, r3
 1191 0640 7B68     		ldr	r3, [r7, #4]
 1192 0642 9A82     		strh	r2, [r3, #20]	@ movhi
 1193              	.L41:
 831:../STM32F2xx_StdPeriph_Driver/src/stm32f2xx_usart.c ****   }
 832:../STM32F2xx_StdPeriph_Driver/src/stm32f2xx_usart.c **** }
 1194              		.loc 1 832 0
 1195 0644 07F10C07 		add	r7, r7, #12
 1196 0648 BD46     		mov	sp, r7
 1197 064a 80BC     		pop	{r7}
 1198 064c 7047     		bx	lr
 1199              		.cfi_endproc
 1200              	.LFE46:
 1202 064e 00BF     		.align	2
 1203              		.global	USART_SetGuardTime
 1204              		.thumb
 1205              		.thumb_func
 1207              	USART_SetGuardTime:
 1208              	.LFB47:
 833:../STM32F2xx_StdPeriph_Driver/src/stm32f2xx_usart.c **** 
 834:../STM32F2xx_StdPeriph_Driver/src/stm32f2xx_usart.c **** /**
 835:../STM32F2xx_StdPeriph_Driver/src/stm32f2xx_usart.c ****   * @}
 836:../STM32F2xx_StdPeriph_Driver/src/stm32f2xx_usart.c ****   */
 837:../STM32F2xx_StdPeriph_Driver/src/stm32f2xx_usart.c **** 
 838:../STM32F2xx_StdPeriph_Driver/src/stm32f2xx_usart.c **** 
 839:../STM32F2xx_StdPeriph_Driver/src/stm32f2xx_usart.c **** /** @defgroup USART_Group6 Smartcard mode functions
 840:../STM32F2xx_StdPeriph_Driver/src/stm32f2xx_usart.c ****  *  @brief   Smartcard mode functions 
 841:../STM32F2xx_StdPeriph_Driver/src/stm32f2xx_usart.c ****  *
 842:../STM32F2xx_StdPeriph_Driver/src/stm32f2xx_usart.c **** @verbatim   
 843:../STM32F2xx_StdPeriph_Driver/src/stm32f2xx_usart.c ****  ===============================================================================
 844:../STM32F2xx_StdPeriph_Driver/src/stm32f2xx_usart.c ****                                Smartcard mode functions
 845:../STM32F2xx_StdPeriph_Driver/src/stm32f2xx_usart.c ****  ===============================================================================  
 846:../STM32F2xx_StdPeriph_Driver/src/stm32f2xx_usart.c **** 
 847:../STM32F2xx_StdPeriph_Driver/src/stm32f2xx_usart.c ****   This subsection provides a set of functions allowing to manage the USART 
 848:../STM32F2xx_StdPeriph_Driver/src/stm32f2xx_usart.c ****   Smartcard communication.
 849:../STM32F2xx_StdPeriph_Driver/src/stm32f2xx_usart.c ****   
 850:../STM32F2xx_StdPeriph_Driver/src/stm32f2xx_usart.c ****   The Smartcard interface is designed to support asynchronous protocol Smartcards as
 851:../STM32F2xx_StdPeriph_Driver/src/stm32f2xx_usart.c ****   defined in the ISO 7816-3 standard.
 852:../STM32F2xx_StdPeriph_Driver/src/stm32f2xx_usart.c **** 
 853:../STM32F2xx_StdPeriph_Driver/src/stm32f2xx_usart.c ****   The USART can provide a clock to the smartcard through the SCLK output.
 854:../STM32F2xx_StdPeriph_Driver/src/stm32f2xx_usart.c ****   In smartcard mode, SCLK is not associated to the communication but is simply derived 
 855:../STM32F2xx_StdPeriph_Driver/src/stm32f2xx_usart.c ****   from the internal peripheral input clock through a 5-bit prescaler.
 856:../STM32F2xx_StdPeriph_Driver/src/stm32f2xx_usart.c **** 
 857:../STM32F2xx_StdPeriph_Driver/src/stm32f2xx_usart.c ****   Smartcard communication is possible through the following procedure:
 858:../STM32F2xx_StdPeriph_Driver/src/stm32f2xx_usart.c ****      1. Configures the Smartcard Prescaler using the USART_SetPrescaler() function.
 859:../STM32F2xx_StdPeriph_Driver/src/stm32f2xx_usart.c ****      2. Configures the Smartcard Guard Time using the USART_SetGuardTime() function.
 860:../STM32F2xx_StdPeriph_Driver/src/stm32f2xx_usart.c ****      3. Program the USART clock using the USART_ClockInit() function as following:
 861:../STM32F2xx_StdPeriph_Driver/src/stm32f2xx_usart.c ****         - USART Clock enabled
 862:../STM32F2xx_StdPeriph_Driver/src/stm32f2xx_usart.c ****         - USART CPOL Low
 863:../STM32F2xx_StdPeriph_Driver/src/stm32f2xx_usart.c ****         - USART CPHA on first edge
 864:../STM32F2xx_StdPeriph_Driver/src/stm32f2xx_usart.c ****         - USART Last Bit Clock Enabled
 865:../STM32F2xx_StdPeriph_Driver/src/stm32f2xx_usart.c ****      4. Program the Smartcard interface using the USART_Init() function as following:
 866:../STM32F2xx_StdPeriph_Driver/src/stm32f2xx_usart.c ****         - Word Length = 9 Bits
 867:../STM32F2xx_StdPeriph_Driver/src/stm32f2xx_usart.c ****         - 1.5 Stop Bit
 868:../STM32F2xx_StdPeriph_Driver/src/stm32f2xx_usart.c ****         - Even parity
 869:../STM32F2xx_StdPeriph_Driver/src/stm32f2xx_usart.c ****         - BaudRate = 12096 baud
 870:../STM32F2xx_StdPeriph_Driver/src/stm32f2xx_usart.c ****         - Hardware flow control disabled (RTS and CTS signals)
 871:../STM32F2xx_StdPeriph_Driver/src/stm32f2xx_usart.c ****         - Tx and Rx enabled
 872:../STM32F2xx_StdPeriph_Driver/src/stm32f2xx_usart.c ****      5. Optionally you can enable the parity error interrupt using the USART_ITConfig()
 873:../STM32F2xx_StdPeriph_Driver/src/stm32f2xx_usart.c ****         function
 874:../STM32F2xx_StdPeriph_Driver/src/stm32f2xx_usart.c ****      6. Enable the USART using the USART_Cmd() function.
 875:../STM32F2xx_StdPeriph_Driver/src/stm32f2xx_usart.c ****      7. Enable the Smartcard NACK using the USART_SmartCardNACKCmd() function.
 876:../STM32F2xx_StdPeriph_Driver/src/stm32f2xx_usart.c ****      8. Enable the Smartcard interface using the USART_SmartCardCmd() function.
 877:../STM32F2xx_StdPeriph_Driver/src/stm32f2xx_usart.c **** 
 878:../STM32F2xx_StdPeriph_Driver/src/stm32f2xx_usart.c ****   Please refer to the ISO 7816-3 specification for more details.
 879:../STM32F2xx_StdPeriph_Driver/src/stm32f2xx_usart.c **** 
 880:../STM32F2xx_StdPeriph_Driver/src/stm32f2xx_usart.c **** 
 881:../STM32F2xx_StdPeriph_Driver/src/stm32f2xx_usart.c **** @note It is also possible to choose 0.5 stop bit for receiving but it is recommended 
 882:../STM32F2xx_StdPeriph_Driver/src/stm32f2xx_usart.c ****       to use 1.5 stop bits for both transmitting and receiving to avoid switching 
 883:../STM32F2xx_StdPeriph_Driver/src/stm32f2xx_usart.c ****       between the two configurations.
 884:../STM32F2xx_StdPeriph_Driver/src/stm32f2xx_usart.c **** @note In smartcard mode, the following bits must be kept cleared:
 885:../STM32F2xx_StdPeriph_Driver/src/stm32f2xx_usart.c ****         - LINEN bit in the USART_CR2 register.
 886:../STM32F2xx_StdPeriph_Driver/src/stm32f2xx_usart.c ****         - HDSEL and IREN bits in the USART_CR3 register.
 887:../STM32F2xx_StdPeriph_Driver/src/stm32f2xx_usart.c **** @note Smartcard mode is available on USART peripherals only (not available on UART4 
 888:../STM32F2xx_StdPeriph_Driver/src/stm32f2xx_usart.c ****       and UART5 peripherals).
 889:../STM32F2xx_StdPeriph_Driver/src/stm32f2xx_usart.c **** 
 890:../STM32F2xx_StdPeriph_Driver/src/stm32f2xx_usart.c **** @endverbatim
 891:../STM32F2xx_StdPeriph_Driver/src/stm32f2xx_usart.c ****   * @{
 892:../STM32F2xx_StdPeriph_Driver/src/stm32f2xx_usart.c ****   */
 893:../STM32F2xx_StdPeriph_Driver/src/stm32f2xx_usart.c **** 
 894:../STM32F2xx_StdPeriph_Driver/src/stm32f2xx_usart.c **** /**
 895:../STM32F2xx_StdPeriph_Driver/src/stm32f2xx_usart.c ****   * @brief  Sets the specified USART guard time.
 896:../STM32F2xx_StdPeriph_Driver/src/stm32f2xx_usart.c ****   * @param  USARTx: where x can be 1, 2, 3 or 6 to select the USART or 
 897:../STM32F2xx_StdPeriph_Driver/src/stm32f2xx_usart.c ****   *         UART peripheral.
 898:../STM32F2xx_StdPeriph_Driver/src/stm32f2xx_usart.c ****   * @param  USART_GuardTime: specifies the guard time.   
 899:../STM32F2xx_StdPeriph_Driver/src/stm32f2xx_usart.c ****   * @retval None
 900:../STM32F2xx_StdPeriph_Driver/src/stm32f2xx_usart.c ****   */
 901:../STM32F2xx_StdPeriph_Driver/src/stm32f2xx_usart.c **** void USART_SetGuardTime(USART_TypeDef* USARTx, uint8_t USART_GuardTime)
 902:../STM32F2xx_StdPeriph_Driver/src/stm32f2xx_usart.c **** {    
 1209              		.loc 1 902 0
 1210              		.cfi_startproc
 1211              		@ args = 0, pretend = 0, frame = 8
 1212              		@ frame_needed = 1, uses_anonymous_args = 0
 1213              		@ link register save eliminated.
 1214 0650 80B4     		push	{r7}
 1215              	.LCFI54:
 1216              		.cfi_def_cfa_offset 4
 1217              		.cfi_offset 7, -4
 1218 0652 83B0     		sub	sp, sp, #12
 1219              	.LCFI55:
 1220              		.cfi_def_cfa_offset 16
 1221 0654 00AF     		add	r7, sp, #0
 1222              	.LCFI56:
 1223              		.cfi_def_cfa_register 7
 1224 0656 7860     		str	r0, [r7, #4]
 1225 0658 0B46     		mov	r3, r1
 1226 065a FB70     		strb	r3, [r7, #3]
 903:../STM32F2xx_StdPeriph_Driver/src/stm32f2xx_usart.c ****   /* Check the parameters */
 904:../STM32F2xx_StdPeriph_Driver/src/stm32f2xx_usart.c ****   assert_param(IS_USART_1236_PERIPH(USARTx));
 905:../STM32F2xx_StdPeriph_Driver/src/stm32f2xx_usart.c ****   
 906:../STM32F2xx_StdPeriph_Driver/src/stm32f2xx_usart.c ****   /* Clear the USART Guard time */
 907:../STM32F2xx_StdPeriph_Driver/src/stm32f2xx_usart.c ****   USARTx->GTPR &= USART_GTPR_PSC;
 1227              		.loc 1 907 0
 1228 065c 7B68     		ldr	r3, [r7, #4]
 1229 065e 1B8B     		ldrh	r3, [r3, #24]	@ movhi
 1230 0660 9BB2     		uxth	r3, r3
 1231 0662 DBB2     		uxtb	r3, r3
 1232 0664 9AB2     		uxth	r2, r3
 1233 0666 7B68     		ldr	r3, [r7, #4]
 1234 0668 1A83     		strh	r2, [r3, #24]	@ movhi
 908:../STM32F2xx_StdPeriph_Driver/src/stm32f2xx_usart.c ****   /* Set the USART guard time */
 909:../STM32F2xx_StdPeriph_Driver/src/stm32f2xx_usart.c ****   USARTx->GTPR |= (uint16_t)((uint16_t)USART_GuardTime << 0x08);
 1235              		.loc 1 909 0
 1236 066a 7B68     		ldr	r3, [r7, #4]
 1237 066c 1B8B     		ldrh	r3, [r3, #24]	@ movhi
 1238 066e 9AB2     		uxth	r2, r3
 1239 0670 FB78     		ldrb	r3, [r7, #3]	@ zero_extendqisi2
 1240 0672 9BB2     		uxth	r3, r3
 1241 0674 4FEA0323 		lsl	r3, r3, #8
 1242 0678 9BB2     		uxth	r3, r3
 1243 067a 1343     		orrs	r3, r3, r2
 1244 067c 9AB2     		uxth	r2, r3
 1245 067e 7B68     		ldr	r3, [r7, #4]
 1246 0680 1A83     		strh	r2, [r3, #24]	@ movhi
 910:../STM32F2xx_StdPeriph_Driver/src/stm32f2xx_usart.c **** }
 1247              		.loc 1 910 0
 1248 0682 07F10C07 		add	r7, r7, #12
 1249 0686 BD46     		mov	sp, r7
 1250 0688 80BC     		pop	{r7}
 1251 068a 7047     		bx	lr
 1252              		.cfi_endproc
 1253              	.LFE47:
 1255              		.align	2
 1256              		.global	USART_SmartCardCmd
 1257              		.thumb
 1258              		.thumb_func
 1260              	USART_SmartCardCmd:
 1261              	.LFB48:
 911:../STM32F2xx_StdPeriph_Driver/src/stm32f2xx_usart.c **** 
 912:../STM32F2xx_StdPeriph_Driver/src/stm32f2xx_usart.c **** /**
 913:../STM32F2xx_StdPeriph_Driver/src/stm32f2xx_usart.c ****   * @brief  Enables or disables the USART's Smart Card mode.
 914:../STM32F2xx_StdPeriph_Driver/src/stm32f2xx_usart.c ****   * @param  USARTx: where x can be 1, 2, 3 or 6 to select the USART or 
 915:../STM32F2xx_StdPeriph_Driver/src/stm32f2xx_usart.c ****   *         UART peripheral.
 916:../STM32F2xx_StdPeriph_Driver/src/stm32f2xx_usart.c ****   * @param  NewState: new state of the Smart Card mode.
 917:../STM32F2xx_StdPeriph_Driver/src/stm32f2xx_usart.c ****   *          This parameter can be: ENABLE or DISABLE.      
 918:../STM32F2xx_StdPeriph_Driver/src/stm32f2xx_usart.c ****   * @retval None
 919:../STM32F2xx_StdPeriph_Driver/src/stm32f2xx_usart.c ****   */
 920:../STM32F2xx_StdPeriph_Driver/src/stm32f2xx_usart.c **** void USART_SmartCardCmd(USART_TypeDef* USARTx, FunctionalState NewState)
 921:../STM32F2xx_StdPeriph_Driver/src/stm32f2xx_usart.c **** {
 1262              		.loc 1 921 0
 1263              		.cfi_startproc
 1264              		@ args = 0, pretend = 0, frame = 8
 1265              		@ frame_needed = 1, uses_anonymous_args = 0
 1266              		@ link register save eliminated.
 1267 068c 80B4     		push	{r7}
 1268              	.LCFI57:
 1269              		.cfi_def_cfa_offset 4
 1270              		.cfi_offset 7, -4
 1271 068e 83B0     		sub	sp, sp, #12
 1272              	.LCFI58:
 1273              		.cfi_def_cfa_offset 16
 1274 0690 00AF     		add	r7, sp, #0
 1275              	.LCFI59:
 1276              		.cfi_def_cfa_register 7
 1277 0692 7860     		str	r0, [r7, #4]
 1278 0694 0B46     		mov	r3, r1
 1279 0696 FB70     		strb	r3, [r7, #3]
 922:../STM32F2xx_StdPeriph_Driver/src/stm32f2xx_usart.c ****   /* Check the parameters */
 923:../STM32F2xx_StdPeriph_Driver/src/stm32f2xx_usart.c ****   assert_param(IS_USART_1236_PERIPH(USARTx));
 924:../STM32F2xx_StdPeriph_Driver/src/stm32f2xx_usart.c ****   assert_param(IS_FUNCTIONAL_STATE(NewState));
 925:../STM32F2xx_StdPeriph_Driver/src/stm32f2xx_usart.c ****   if (NewState != DISABLE)
 1280              		.loc 1 925 0
 1281 0698 FB78     		ldrb	r3, [r7, #3]	@ zero_extendqisi2
 1282 069a 002B     		cmp	r3, #0
 1283 069c 08D0     		beq	.L46
 926:../STM32F2xx_StdPeriph_Driver/src/stm32f2xx_usart.c ****   {
 927:../STM32F2xx_StdPeriph_Driver/src/stm32f2xx_usart.c ****     /* Enable the SC mode by setting the SCEN bit in the CR3 register */
 928:../STM32F2xx_StdPeriph_Driver/src/stm32f2xx_usart.c ****     USARTx->CR3 |= USART_CR3_SCEN;
 1284              		.loc 1 928 0
 1285 069e 7B68     		ldr	r3, [r7, #4]
 1286 06a0 9B8A     		ldrh	r3, [r3, #20]	@ movhi
 1287 06a2 9BB2     		uxth	r3, r3
 1288 06a4 43F02003 		orr	r3, r3, #32
 1289 06a8 9AB2     		uxth	r2, r3
 1290 06aa 7B68     		ldr	r3, [r7, #4]
 1291 06ac 9A82     		strh	r2, [r3, #20]	@ movhi
 1292 06ae 07E0     		b	.L45
 1293              	.L46:
 929:../STM32F2xx_StdPeriph_Driver/src/stm32f2xx_usart.c ****   }
 930:../STM32F2xx_StdPeriph_Driver/src/stm32f2xx_usart.c ****   else
 931:../STM32F2xx_StdPeriph_Driver/src/stm32f2xx_usart.c ****   {
 932:../STM32F2xx_StdPeriph_Driver/src/stm32f2xx_usart.c ****     /* Disable the SC mode by clearing the SCEN bit in the CR3 register */
 933:../STM32F2xx_StdPeriph_Driver/src/stm32f2xx_usart.c ****     USARTx->CR3 &= (uint16_t)~((uint16_t)USART_CR3_SCEN);
 1294              		.loc 1 933 0
 1295 06b0 7B68     		ldr	r3, [r7, #4]
 1296 06b2 9B8A     		ldrh	r3, [r3, #20]	@ movhi
 1297 06b4 9BB2     		uxth	r3, r3
 1298 06b6 23F02003 		bic	r3, r3, #32
 1299 06ba 9AB2     		uxth	r2, r3
 1300 06bc 7B68     		ldr	r3, [r7, #4]
 1301 06be 9A82     		strh	r2, [r3, #20]	@ movhi
 1302              	.L45:
 934:../STM32F2xx_StdPeriph_Driver/src/stm32f2xx_usart.c ****   }
 935:../STM32F2xx_StdPeriph_Driver/src/stm32f2xx_usart.c **** }
 1303              		.loc 1 935 0
 1304 06c0 07F10C07 		add	r7, r7, #12
 1305 06c4 BD46     		mov	sp, r7
 1306 06c6 80BC     		pop	{r7}
 1307 06c8 7047     		bx	lr
 1308              		.cfi_endproc
 1309              	.LFE48:
 1311 06ca 00BF     		.align	2
 1312              		.global	USART_SmartCardNACKCmd
 1313              		.thumb
 1314              		.thumb_func
 1316              	USART_SmartCardNACKCmd:
 1317              	.LFB49:
 936:../STM32F2xx_StdPeriph_Driver/src/stm32f2xx_usart.c **** 
 937:../STM32F2xx_StdPeriph_Driver/src/stm32f2xx_usart.c **** /**
 938:../STM32F2xx_StdPeriph_Driver/src/stm32f2xx_usart.c ****   * @brief  Enables or disables NACK transmission.
 939:../STM32F2xx_StdPeriph_Driver/src/stm32f2xx_usart.c ****   * @param  USARTx: where x can be 1, 2, 3 or 6 to select the USART or 
 940:../STM32F2xx_StdPeriph_Driver/src/stm32f2xx_usart.c ****   *         UART peripheral.
 941:../STM32F2xx_StdPeriph_Driver/src/stm32f2xx_usart.c ****   * @param  NewState: new state of the NACK transmission.
 942:../STM32F2xx_StdPeriph_Driver/src/stm32f2xx_usart.c ****   *          This parameter can be: ENABLE or DISABLE.  
 943:../STM32F2xx_StdPeriph_Driver/src/stm32f2xx_usart.c ****   * @retval None
 944:../STM32F2xx_StdPeriph_Driver/src/stm32f2xx_usart.c ****   */
 945:../STM32F2xx_StdPeriph_Driver/src/stm32f2xx_usart.c **** void USART_SmartCardNACKCmd(USART_TypeDef* USARTx, FunctionalState NewState)
 946:../STM32F2xx_StdPeriph_Driver/src/stm32f2xx_usart.c **** {
 1318              		.loc 1 946 0
 1319              		.cfi_startproc
 1320              		@ args = 0, pretend = 0, frame = 8
 1321              		@ frame_needed = 1, uses_anonymous_args = 0
 1322              		@ link register save eliminated.
 1323 06cc 80B4     		push	{r7}
 1324              	.LCFI60:
 1325              		.cfi_def_cfa_offset 4
 1326              		.cfi_offset 7, -4
 1327 06ce 83B0     		sub	sp, sp, #12
 1328              	.LCFI61:
 1329              		.cfi_def_cfa_offset 16
 1330 06d0 00AF     		add	r7, sp, #0
 1331              	.LCFI62:
 1332              		.cfi_def_cfa_register 7
 1333 06d2 7860     		str	r0, [r7, #4]
 1334 06d4 0B46     		mov	r3, r1
 1335 06d6 FB70     		strb	r3, [r7, #3]
 947:../STM32F2xx_StdPeriph_Driver/src/stm32f2xx_usart.c ****   /* Check the parameters */
 948:../STM32F2xx_StdPeriph_Driver/src/stm32f2xx_usart.c ****   assert_param(IS_USART_1236_PERIPH(USARTx)); 
 949:../STM32F2xx_StdPeriph_Driver/src/stm32f2xx_usart.c ****   assert_param(IS_FUNCTIONAL_STATE(NewState));
 950:../STM32F2xx_StdPeriph_Driver/src/stm32f2xx_usart.c ****   if (NewState != DISABLE)
 1336              		.loc 1 950 0
 1337 06d8 FB78     		ldrb	r3, [r7, #3]	@ zero_extendqisi2
 1338 06da 002B     		cmp	r3, #0
 1339 06dc 08D0     		beq	.L49
 951:../STM32F2xx_StdPeriph_Driver/src/stm32f2xx_usart.c ****   {
 952:../STM32F2xx_StdPeriph_Driver/src/stm32f2xx_usart.c ****     /* Enable the NACK transmission by setting the NACK bit in the CR3 register */
 953:../STM32F2xx_StdPeriph_Driver/src/stm32f2xx_usart.c ****     USARTx->CR3 |= USART_CR3_NACK;
 1340              		.loc 1 953 0
 1341 06de 7B68     		ldr	r3, [r7, #4]
 1342 06e0 9B8A     		ldrh	r3, [r3, #20]	@ movhi
 1343 06e2 9BB2     		uxth	r3, r3
 1344 06e4 43F01003 		orr	r3, r3, #16
 1345 06e8 9AB2     		uxth	r2, r3
 1346 06ea 7B68     		ldr	r3, [r7, #4]
 1347 06ec 9A82     		strh	r2, [r3, #20]	@ movhi
 1348 06ee 07E0     		b	.L48
 1349              	.L49:
 954:../STM32F2xx_StdPeriph_Driver/src/stm32f2xx_usart.c ****   }
 955:../STM32F2xx_StdPeriph_Driver/src/stm32f2xx_usart.c ****   else
 956:../STM32F2xx_StdPeriph_Driver/src/stm32f2xx_usart.c ****   {
 957:../STM32F2xx_StdPeriph_Driver/src/stm32f2xx_usart.c ****     /* Disable the NACK transmission by clearing the NACK bit in the CR3 register */
 958:../STM32F2xx_StdPeriph_Driver/src/stm32f2xx_usart.c ****     USARTx->CR3 &= (uint16_t)~((uint16_t)USART_CR3_NACK);
 1350              		.loc 1 958 0
 1351 06f0 7B68     		ldr	r3, [r7, #4]
 1352 06f2 9B8A     		ldrh	r3, [r3, #20]	@ movhi
 1353 06f4 9BB2     		uxth	r3, r3
 1354 06f6 23F01003 		bic	r3, r3, #16
 1355 06fa 9AB2     		uxth	r2, r3
 1356 06fc 7B68     		ldr	r3, [r7, #4]
 1357 06fe 9A82     		strh	r2, [r3, #20]	@ movhi
 1358              	.L48:
 959:../STM32F2xx_StdPeriph_Driver/src/stm32f2xx_usart.c ****   }
 960:../STM32F2xx_StdPeriph_Driver/src/stm32f2xx_usart.c **** }
 1359              		.loc 1 960 0
 1360 0700 07F10C07 		add	r7, r7, #12
 1361 0704 BD46     		mov	sp, r7
 1362 0706 80BC     		pop	{r7}
 1363 0708 7047     		bx	lr
 1364              		.cfi_endproc
 1365              	.LFE49:
 1367 070a 00BF     		.align	2
 1368              		.global	USART_IrDAConfig
 1369              		.thumb
 1370              		.thumb_func
 1372              	USART_IrDAConfig:
 1373              	.LFB50:
 961:../STM32F2xx_StdPeriph_Driver/src/stm32f2xx_usart.c **** 
 962:../STM32F2xx_StdPeriph_Driver/src/stm32f2xx_usart.c **** /**
 963:../STM32F2xx_StdPeriph_Driver/src/stm32f2xx_usart.c ****   * @}
 964:../STM32F2xx_StdPeriph_Driver/src/stm32f2xx_usart.c ****   */
 965:../STM32F2xx_StdPeriph_Driver/src/stm32f2xx_usart.c **** 
 966:../STM32F2xx_StdPeriph_Driver/src/stm32f2xx_usart.c **** /** @defgroup USART_Group7 IrDA mode functions
 967:../STM32F2xx_StdPeriph_Driver/src/stm32f2xx_usart.c ****  *  @brief   IrDA mode functions 
 968:../STM32F2xx_StdPeriph_Driver/src/stm32f2xx_usart.c ****  *
 969:../STM32F2xx_StdPeriph_Driver/src/stm32f2xx_usart.c **** @verbatim   
 970:../STM32F2xx_StdPeriph_Driver/src/stm32f2xx_usart.c ****  ===============================================================================
 971:../STM32F2xx_StdPeriph_Driver/src/stm32f2xx_usart.c ****                                 IrDA mode functions
 972:../STM32F2xx_StdPeriph_Driver/src/stm32f2xx_usart.c ****  ===============================================================================  
 973:../STM32F2xx_StdPeriph_Driver/src/stm32f2xx_usart.c **** 
 974:../STM32F2xx_StdPeriph_Driver/src/stm32f2xx_usart.c ****   This subsection provides a set of functions allowing to manage the USART 
 975:../STM32F2xx_StdPeriph_Driver/src/stm32f2xx_usart.c ****   IrDA communication.
 976:../STM32F2xx_StdPeriph_Driver/src/stm32f2xx_usart.c ****   
 977:../STM32F2xx_StdPeriph_Driver/src/stm32f2xx_usart.c ****   IrDA is a half duplex communication protocol. If the Transmitter is busy, any data
 978:../STM32F2xx_StdPeriph_Driver/src/stm32f2xx_usart.c ****   on the IrDA receive line will be ignored by the IrDA decoder and if the Receiver 
 979:../STM32F2xx_StdPeriph_Driver/src/stm32f2xx_usart.c ****   is busy, data on the TX from the USART to IrDA will not be encoded by IrDA.
 980:../STM32F2xx_StdPeriph_Driver/src/stm32f2xx_usart.c ****   While receiving data, transmission should be avoided as the data to be transmitted
 981:../STM32F2xx_StdPeriph_Driver/src/stm32f2xx_usart.c ****   could be corrupted.
 982:../STM32F2xx_StdPeriph_Driver/src/stm32f2xx_usart.c **** 
 983:../STM32F2xx_StdPeriph_Driver/src/stm32f2xx_usart.c ****   IrDA communication is possible through the following procedure:
 984:../STM32F2xx_StdPeriph_Driver/src/stm32f2xx_usart.c ****      1. Program the Baud rate, Word length = 8 bits, Stop bits, Parity, Transmitter/Receiver 
 985:../STM32F2xx_StdPeriph_Driver/src/stm32f2xx_usart.c ****         modes and hardware flow control values using the USART_Init() function.
 986:../STM32F2xx_StdPeriph_Driver/src/stm32f2xx_usart.c ****      2. Enable the USART using the USART_Cmd() function.
 987:../STM32F2xx_StdPeriph_Driver/src/stm32f2xx_usart.c ****      3. Configures the IrDA pulse width by configuring the prescaler using  
 988:../STM32F2xx_StdPeriph_Driver/src/stm32f2xx_usart.c ****         the USART_SetPrescaler() function.
 989:../STM32F2xx_StdPeriph_Driver/src/stm32f2xx_usart.c ****      4. Configures the IrDA  USART_IrDAMode_LowPower or USART_IrDAMode_Normal mode
 990:../STM32F2xx_StdPeriph_Driver/src/stm32f2xx_usart.c ****         using the USART_IrDAConfig() function.
 991:../STM32F2xx_StdPeriph_Driver/src/stm32f2xx_usart.c ****      5. Enable the IrDA using the USART_IrDACmd() function.
 992:../STM32F2xx_StdPeriph_Driver/src/stm32f2xx_usart.c **** 
 993:../STM32F2xx_StdPeriph_Driver/src/stm32f2xx_usart.c **** @note A pulse of width less than two and greater than one PSC period(s) may or may
 994:../STM32F2xx_StdPeriph_Driver/src/stm32f2xx_usart.c ****       not be rejected.
 995:../STM32F2xx_StdPeriph_Driver/src/stm32f2xx_usart.c **** @note The receiver set up time should be managed by software. The IrDA physical layer
 996:../STM32F2xx_StdPeriph_Driver/src/stm32f2xx_usart.c ****       specification specifies a minimum of 10 ms delay between transmission and 
 997:../STM32F2xx_StdPeriph_Driver/src/stm32f2xx_usart.c ****       reception (IrDA is a half duplex protocol).
 998:../STM32F2xx_StdPeriph_Driver/src/stm32f2xx_usart.c **** @note In IrDA mode, the following bits must be kept cleared:
 999:../STM32F2xx_StdPeriph_Driver/src/stm32f2xx_usart.c ****         - LINEN, STOP and CLKEN bits in the USART_CR2 register.
1000:../STM32F2xx_StdPeriph_Driver/src/stm32f2xx_usart.c ****         - SCEN and HDSEL bits in the USART_CR3 register.
1001:../STM32F2xx_StdPeriph_Driver/src/stm32f2xx_usart.c **** 
1002:../STM32F2xx_StdPeriph_Driver/src/stm32f2xx_usart.c **** @endverbatim
1003:../STM32F2xx_StdPeriph_Driver/src/stm32f2xx_usart.c ****   * @{
1004:../STM32F2xx_StdPeriph_Driver/src/stm32f2xx_usart.c ****   */
1005:../STM32F2xx_StdPeriph_Driver/src/stm32f2xx_usart.c **** 
1006:../STM32F2xx_StdPeriph_Driver/src/stm32f2xx_usart.c **** /**
1007:../STM32F2xx_StdPeriph_Driver/src/stm32f2xx_usart.c ****   * @brief  Configures the USART's IrDA interface.
1008:../STM32F2xx_StdPeriph_Driver/src/stm32f2xx_usart.c ****   * @param  USARTx: where x can be 1, 2, 3, 4, 5 or 6 to select the USART or 
1009:../STM32F2xx_StdPeriph_Driver/src/stm32f2xx_usart.c ****   *         UART peripheral.
1010:../STM32F2xx_StdPeriph_Driver/src/stm32f2xx_usart.c ****   * @param  USART_IrDAMode: specifies the IrDA mode.
1011:../STM32F2xx_StdPeriph_Driver/src/stm32f2xx_usart.c ****   *          This parameter can be one of the following values:
1012:../STM32F2xx_StdPeriph_Driver/src/stm32f2xx_usart.c ****   *            @arg USART_IrDAMode_LowPower
1013:../STM32F2xx_StdPeriph_Driver/src/stm32f2xx_usart.c ****   *            @arg USART_IrDAMode_Normal
1014:../STM32F2xx_StdPeriph_Driver/src/stm32f2xx_usart.c ****   * @retval None
1015:../STM32F2xx_StdPeriph_Driver/src/stm32f2xx_usart.c ****   */
1016:../STM32F2xx_StdPeriph_Driver/src/stm32f2xx_usart.c **** void USART_IrDAConfig(USART_TypeDef* USARTx, uint16_t USART_IrDAMode)
1017:../STM32F2xx_StdPeriph_Driver/src/stm32f2xx_usart.c **** {
 1374              		.loc 1 1017 0
 1375              		.cfi_startproc
 1376              		@ args = 0, pretend = 0, frame = 8
 1377              		@ frame_needed = 1, uses_anonymous_args = 0
 1378              		@ link register save eliminated.
 1379 070c 80B4     		push	{r7}
 1380              	.LCFI63:
 1381              		.cfi_def_cfa_offset 4
 1382              		.cfi_offset 7, -4
 1383 070e 83B0     		sub	sp, sp, #12
 1384              	.LCFI64:
 1385              		.cfi_def_cfa_offset 16
 1386 0710 00AF     		add	r7, sp, #0
 1387              	.LCFI65:
 1388              		.cfi_def_cfa_register 7
 1389 0712 7860     		str	r0, [r7, #4]
 1390 0714 0B46     		mov	r3, r1
 1391 0716 7B80     		strh	r3, [r7, #2]	@ movhi
1018:../STM32F2xx_StdPeriph_Driver/src/stm32f2xx_usart.c ****   /* Check the parameters */
1019:../STM32F2xx_StdPeriph_Driver/src/stm32f2xx_usart.c ****   assert_param(IS_USART_ALL_PERIPH(USARTx));
1020:../STM32F2xx_StdPeriph_Driver/src/stm32f2xx_usart.c ****   assert_param(IS_USART_IRDA_MODE(USART_IrDAMode));
1021:../STM32F2xx_StdPeriph_Driver/src/stm32f2xx_usart.c ****     
1022:../STM32F2xx_StdPeriph_Driver/src/stm32f2xx_usart.c ****   USARTx->CR3 &= (uint16_t)~((uint16_t)USART_CR3_IRLP);
 1392              		.loc 1 1022 0
 1393 0718 7B68     		ldr	r3, [r7, #4]
 1394 071a 9B8A     		ldrh	r3, [r3, #20]	@ movhi
 1395 071c 9BB2     		uxth	r3, r3
 1396 071e 23F00403 		bic	r3, r3, #4
 1397 0722 9AB2     		uxth	r2, r3
 1398 0724 7B68     		ldr	r3, [r7, #4]
 1399 0726 9A82     		strh	r2, [r3, #20]	@ movhi
1023:../STM32F2xx_StdPeriph_Driver/src/stm32f2xx_usart.c ****   USARTx->CR3 |= USART_IrDAMode;
 1400              		.loc 1 1023 0
 1401 0728 7B68     		ldr	r3, [r7, #4]
 1402 072a 9B8A     		ldrh	r3, [r3, #20]	@ movhi
 1403 072c 9AB2     		uxth	r2, r3
 1404 072e 7B88     		ldrh	r3, [r7, #2]	@ movhi
 1405 0730 1343     		orrs	r3, r3, r2
 1406 0732 9AB2     		uxth	r2, r3
 1407 0734 7B68     		ldr	r3, [r7, #4]
 1408 0736 9A82     		strh	r2, [r3, #20]	@ movhi
1024:../STM32F2xx_StdPeriph_Driver/src/stm32f2xx_usart.c **** }
 1409              		.loc 1 1024 0
 1410 0738 07F10C07 		add	r7, r7, #12
 1411 073c BD46     		mov	sp, r7
 1412 073e 80BC     		pop	{r7}
 1413 0740 7047     		bx	lr
 1414              		.cfi_endproc
 1415              	.LFE50:
 1417 0742 00BF     		.align	2
 1418              		.global	USART_IrDACmd
 1419              		.thumb
 1420              		.thumb_func
 1422              	USART_IrDACmd:
 1423              	.LFB51:
1025:../STM32F2xx_StdPeriph_Driver/src/stm32f2xx_usart.c **** 
1026:../STM32F2xx_StdPeriph_Driver/src/stm32f2xx_usart.c **** /**
1027:../STM32F2xx_StdPeriph_Driver/src/stm32f2xx_usart.c ****   * @brief  Enables or disables the USART's IrDA interface.
1028:../STM32F2xx_StdPeriph_Driver/src/stm32f2xx_usart.c ****   * @param  USARTx: where x can be 1, 2, 3, 4, 5 or 6 to select the USART or 
1029:../STM32F2xx_StdPeriph_Driver/src/stm32f2xx_usart.c ****   *         UART peripheral.
1030:../STM32F2xx_StdPeriph_Driver/src/stm32f2xx_usart.c ****   * @param  NewState: new state of the IrDA mode.
1031:../STM32F2xx_StdPeriph_Driver/src/stm32f2xx_usart.c ****   *          This parameter can be: ENABLE or DISABLE.
1032:../STM32F2xx_StdPeriph_Driver/src/stm32f2xx_usart.c ****   * @retval None
1033:../STM32F2xx_StdPeriph_Driver/src/stm32f2xx_usart.c ****   */
1034:../STM32F2xx_StdPeriph_Driver/src/stm32f2xx_usart.c **** void USART_IrDACmd(USART_TypeDef* USARTx, FunctionalState NewState)
1035:../STM32F2xx_StdPeriph_Driver/src/stm32f2xx_usart.c **** {
 1424              		.loc 1 1035 0
 1425              		.cfi_startproc
 1426              		@ args = 0, pretend = 0, frame = 8
 1427              		@ frame_needed = 1, uses_anonymous_args = 0
 1428              		@ link register save eliminated.
 1429 0744 80B4     		push	{r7}
 1430              	.LCFI66:
 1431              		.cfi_def_cfa_offset 4
 1432              		.cfi_offset 7, -4
 1433 0746 83B0     		sub	sp, sp, #12
 1434              	.LCFI67:
 1435              		.cfi_def_cfa_offset 16
 1436 0748 00AF     		add	r7, sp, #0
 1437              	.LCFI68:
 1438              		.cfi_def_cfa_register 7
 1439 074a 7860     		str	r0, [r7, #4]
 1440 074c 0B46     		mov	r3, r1
 1441 074e FB70     		strb	r3, [r7, #3]
1036:../STM32F2xx_StdPeriph_Driver/src/stm32f2xx_usart.c ****   /* Check the parameters */
1037:../STM32F2xx_StdPeriph_Driver/src/stm32f2xx_usart.c ****   assert_param(IS_USART_ALL_PERIPH(USARTx));
1038:../STM32F2xx_StdPeriph_Driver/src/stm32f2xx_usart.c ****   assert_param(IS_FUNCTIONAL_STATE(NewState));
1039:../STM32F2xx_StdPeriph_Driver/src/stm32f2xx_usart.c ****     
1040:../STM32F2xx_StdPeriph_Driver/src/stm32f2xx_usart.c ****   if (NewState != DISABLE)
 1442              		.loc 1 1040 0
 1443 0750 FB78     		ldrb	r3, [r7, #3]	@ zero_extendqisi2
 1444 0752 002B     		cmp	r3, #0
 1445 0754 08D0     		beq	.L53
1041:../STM32F2xx_StdPeriph_Driver/src/stm32f2xx_usart.c ****   {
1042:../STM32F2xx_StdPeriph_Driver/src/stm32f2xx_usart.c ****     /* Enable the IrDA mode by setting the IREN bit in the CR3 register */
1043:../STM32F2xx_StdPeriph_Driver/src/stm32f2xx_usart.c ****     USARTx->CR3 |= USART_CR3_IREN;
 1446              		.loc 1 1043 0
 1447 0756 7B68     		ldr	r3, [r7, #4]
 1448 0758 9B8A     		ldrh	r3, [r3, #20]	@ movhi
 1449 075a 9BB2     		uxth	r3, r3
 1450 075c 43F00203 		orr	r3, r3, #2
 1451 0760 9AB2     		uxth	r2, r3
 1452 0762 7B68     		ldr	r3, [r7, #4]
 1453 0764 9A82     		strh	r2, [r3, #20]	@ movhi
 1454 0766 07E0     		b	.L52
 1455              	.L53:
1044:../STM32F2xx_StdPeriph_Driver/src/stm32f2xx_usart.c ****   }
1045:../STM32F2xx_StdPeriph_Driver/src/stm32f2xx_usart.c ****   else
1046:../STM32F2xx_StdPeriph_Driver/src/stm32f2xx_usart.c ****   {
1047:../STM32F2xx_StdPeriph_Driver/src/stm32f2xx_usart.c ****     /* Disable the IrDA mode by clearing the IREN bit in the CR3 register */
1048:../STM32F2xx_StdPeriph_Driver/src/stm32f2xx_usart.c ****     USARTx->CR3 &= (uint16_t)~((uint16_t)USART_CR3_IREN);
 1456              		.loc 1 1048 0
 1457 0768 7B68     		ldr	r3, [r7, #4]
 1458 076a 9B8A     		ldrh	r3, [r3, #20]	@ movhi
 1459 076c 9BB2     		uxth	r3, r3
 1460 076e 23F00203 		bic	r3, r3, #2
 1461 0772 9AB2     		uxth	r2, r3
 1462 0774 7B68     		ldr	r3, [r7, #4]
 1463 0776 9A82     		strh	r2, [r3, #20]	@ movhi
 1464              	.L52:
1049:../STM32F2xx_StdPeriph_Driver/src/stm32f2xx_usart.c ****   }
1050:../STM32F2xx_StdPeriph_Driver/src/stm32f2xx_usart.c **** }
 1465              		.loc 1 1050 0
 1466 0778 07F10C07 		add	r7, r7, #12
 1467 077c BD46     		mov	sp, r7
 1468 077e 80BC     		pop	{r7}
 1469 0780 7047     		bx	lr
 1470              		.cfi_endproc
 1471              	.LFE51:
 1473 0782 00BF     		.align	2
 1474              		.global	USART_DMACmd
 1475              		.thumb
 1476              		.thumb_func
 1478              	USART_DMACmd:
 1479              	.LFB52:
1051:../STM32F2xx_StdPeriph_Driver/src/stm32f2xx_usart.c **** 
1052:../STM32F2xx_StdPeriph_Driver/src/stm32f2xx_usart.c **** /**
1053:../STM32F2xx_StdPeriph_Driver/src/stm32f2xx_usart.c ****   * @}
1054:../STM32F2xx_StdPeriph_Driver/src/stm32f2xx_usart.c ****   */
1055:../STM32F2xx_StdPeriph_Driver/src/stm32f2xx_usart.c **** 
1056:../STM32F2xx_StdPeriph_Driver/src/stm32f2xx_usart.c **** /** @defgroup USART_Group8 DMA transfers management functions
1057:../STM32F2xx_StdPeriph_Driver/src/stm32f2xx_usart.c ****  *  @brief   DMA transfers management functions
1058:../STM32F2xx_StdPeriph_Driver/src/stm32f2xx_usart.c ****  *
1059:../STM32F2xx_StdPeriph_Driver/src/stm32f2xx_usart.c **** @verbatim   
1060:../STM32F2xx_StdPeriph_Driver/src/stm32f2xx_usart.c ****  ===============================================================================
1061:../STM32F2xx_StdPeriph_Driver/src/stm32f2xx_usart.c ****                       DMA transfers management functions
1062:../STM32F2xx_StdPeriph_Driver/src/stm32f2xx_usart.c ****  ===============================================================================  
1063:../STM32F2xx_StdPeriph_Driver/src/stm32f2xx_usart.c **** 
1064:../STM32F2xx_StdPeriph_Driver/src/stm32f2xx_usart.c **** @endverbatim
1065:../STM32F2xx_StdPeriph_Driver/src/stm32f2xx_usart.c ****   * @{
1066:../STM32F2xx_StdPeriph_Driver/src/stm32f2xx_usart.c ****   */
1067:../STM32F2xx_StdPeriph_Driver/src/stm32f2xx_usart.c ****   
1068:../STM32F2xx_StdPeriph_Driver/src/stm32f2xx_usart.c **** /**
1069:../STM32F2xx_StdPeriph_Driver/src/stm32f2xx_usart.c ****   * @brief  Enables or disables the USART's DMA interface.
1070:../STM32F2xx_StdPeriph_Driver/src/stm32f2xx_usart.c ****   * @param  USARTx: where x can be 1, 2, 3, 4, 5 or 6 to select the USART or 
1071:../STM32F2xx_StdPeriph_Driver/src/stm32f2xx_usart.c ****   *         UART peripheral.
1072:../STM32F2xx_StdPeriph_Driver/src/stm32f2xx_usart.c ****   * @param  USART_DMAReq: specifies the DMA request.
1073:../STM32F2xx_StdPeriph_Driver/src/stm32f2xx_usart.c ****   *          This parameter can be any combination of the following values:
1074:../STM32F2xx_StdPeriph_Driver/src/stm32f2xx_usart.c ****   *            @arg USART_DMAReq_Tx: USART DMA transmit request
1075:../STM32F2xx_StdPeriph_Driver/src/stm32f2xx_usart.c ****   *            @arg USART_DMAReq_Rx: USART DMA receive request
1076:../STM32F2xx_StdPeriph_Driver/src/stm32f2xx_usart.c ****   * @param  NewState: new state of the DMA Request sources.
1077:../STM32F2xx_StdPeriph_Driver/src/stm32f2xx_usart.c ****   *          This parameter can be: ENABLE or DISABLE.   
1078:../STM32F2xx_StdPeriph_Driver/src/stm32f2xx_usart.c ****   * @retval None
1079:../STM32F2xx_StdPeriph_Driver/src/stm32f2xx_usart.c ****   */
1080:../STM32F2xx_StdPeriph_Driver/src/stm32f2xx_usart.c **** void USART_DMACmd(USART_TypeDef* USARTx, uint16_t USART_DMAReq, FunctionalState NewState)
1081:../STM32F2xx_StdPeriph_Driver/src/stm32f2xx_usart.c **** {
 1480              		.loc 1 1081 0
 1481              		.cfi_startproc
 1482              		@ args = 0, pretend = 0, frame = 8
 1483              		@ frame_needed = 1, uses_anonymous_args = 0
 1484              		@ link register save eliminated.
 1485 0784 80B4     		push	{r7}
 1486              	.LCFI69:
 1487              		.cfi_def_cfa_offset 4
 1488              		.cfi_offset 7, -4
 1489 0786 83B0     		sub	sp, sp, #12
 1490              	.LCFI70:
 1491              		.cfi_def_cfa_offset 16
 1492 0788 00AF     		add	r7, sp, #0
 1493              	.LCFI71:
 1494              		.cfi_def_cfa_register 7
 1495 078a 7860     		str	r0, [r7, #4]
 1496 078c 1346     		mov	r3, r2
 1497 078e 0A46     		mov	r2, r1	@ movhi
 1498 0790 7A80     		strh	r2, [r7, #2]	@ movhi
 1499 0792 7B70     		strb	r3, [r7, #1]
1082:../STM32F2xx_StdPeriph_Driver/src/stm32f2xx_usart.c ****   /* Check the parameters */
1083:../STM32F2xx_StdPeriph_Driver/src/stm32f2xx_usart.c ****   assert_param(IS_USART_ALL_PERIPH(USARTx));
1084:../STM32F2xx_StdPeriph_Driver/src/stm32f2xx_usart.c ****   assert_param(IS_USART_DMAREQ(USART_DMAReq));  
1085:../STM32F2xx_StdPeriph_Driver/src/stm32f2xx_usart.c ****   assert_param(IS_FUNCTIONAL_STATE(NewState)); 
1086:../STM32F2xx_StdPeriph_Driver/src/stm32f2xx_usart.c **** 
1087:../STM32F2xx_StdPeriph_Driver/src/stm32f2xx_usart.c ****   if (NewState != DISABLE)
 1500              		.loc 1 1087 0
 1501 0794 7B78     		ldrb	r3, [r7, #1]	@ zero_extendqisi2
 1502 0796 002B     		cmp	r3, #0
 1503 0798 08D0     		beq	.L56
1088:../STM32F2xx_StdPeriph_Driver/src/stm32f2xx_usart.c ****   {
1089:../STM32F2xx_StdPeriph_Driver/src/stm32f2xx_usart.c ****     /* Enable the DMA transfer for selected requests by setting the DMAT and/or
1090:../STM32F2xx_StdPeriph_Driver/src/stm32f2xx_usart.c ****        DMAR bits in the USART CR3 register */
1091:../STM32F2xx_StdPeriph_Driver/src/stm32f2xx_usart.c ****     USARTx->CR3 |= USART_DMAReq;
 1504              		.loc 1 1091 0
 1505 079a 7B68     		ldr	r3, [r7, #4]
 1506 079c 9B8A     		ldrh	r3, [r3, #20]	@ movhi
 1507 079e 9AB2     		uxth	r2, r3
 1508 07a0 7B88     		ldrh	r3, [r7, #2]	@ movhi
 1509 07a2 1343     		orrs	r3, r3, r2
 1510 07a4 9AB2     		uxth	r2, r3
 1511 07a6 7B68     		ldr	r3, [r7, #4]
 1512 07a8 9A82     		strh	r2, [r3, #20]	@ movhi
 1513 07aa 0AE0     		b	.L55
 1514              	.L56:
1092:../STM32F2xx_StdPeriph_Driver/src/stm32f2xx_usart.c ****   }
1093:../STM32F2xx_StdPeriph_Driver/src/stm32f2xx_usart.c ****   else
1094:../STM32F2xx_StdPeriph_Driver/src/stm32f2xx_usart.c ****   {
1095:../STM32F2xx_StdPeriph_Driver/src/stm32f2xx_usart.c ****     /* Disable the DMA transfer for selected requests by clearing the DMAT and/or
1096:../STM32F2xx_StdPeriph_Driver/src/stm32f2xx_usart.c ****        DMAR bits in the USART CR3 register */
1097:../STM32F2xx_StdPeriph_Driver/src/stm32f2xx_usart.c ****     USARTx->CR3 &= (uint16_t)~USART_DMAReq;
 1515              		.loc 1 1097 0
 1516 07ac 7B68     		ldr	r3, [r7, #4]
 1517 07ae 9B8A     		ldrh	r3, [r3, #20]	@ movhi
 1518 07b0 9AB2     		uxth	r2, r3
 1519 07b2 7B88     		ldrh	r3, [r7, #2]	@ movhi
 1520 07b4 6FEA0303 		mvn	r3, r3
 1521 07b8 9BB2     		uxth	r3, r3
 1522 07ba 1340     		ands	r3, r3, r2
 1523 07bc 9AB2     		uxth	r2, r3
 1524 07be 7B68     		ldr	r3, [r7, #4]
 1525 07c0 9A82     		strh	r2, [r3, #20]	@ movhi
 1526              	.L55:
1098:../STM32F2xx_StdPeriph_Driver/src/stm32f2xx_usart.c ****   }
1099:../STM32F2xx_StdPeriph_Driver/src/stm32f2xx_usart.c **** }
 1527              		.loc 1 1099 0
 1528 07c2 07F10C07 		add	r7, r7, #12
 1529 07c6 BD46     		mov	sp, r7
 1530 07c8 80BC     		pop	{r7}
 1531 07ca 7047     		bx	lr
 1532              		.cfi_endproc
 1533              	.LFE52:
 1535              		.align	2
 1536              		.global	USART_ITConfig
 1537              		.thumb
 1538              		.thumb_func
 1540              	USART_ITConfig:
 1541              	.LFB53:
1100:../STM32F2xx_StdPeriph_Driver/src/stm32f2xx_usart.c **** 
1101:../STM32F2xx_StdPeriph_Driver/src/stm32f2xx_usart.c **** /**
1102:../STM32F2xx_StdPeriph_Driver/src/stm32f2xx_usart.c ****   * @}
1103:../STM32F2xx_StdPeriph_Driver/src/stm32f2xx_usart.c ****   */
1104:../STM32F2xx_StdPeriph_Driver/src/stm32f2xx_usart.c ****   
1105:../STM32F2xx_StdPeriph_Driver/src/stm32f2xx_usart.c **** /** @defgroup USART_Group9 Interrupts and flags management functions
1106:../STM32F2xx_StdPeriph_Driver/src/stm32f2xx_usart.c ****  *  @brief   Interrupts and flags management functions 
1107:../STM32F2xx_StdPeriph_Driver/src/stm32f2xx_usart.c ****  *
1108:../STM32F2xx_StdPeriph_Driver/src/stm32f2xx_usart.c **** @verbatim   
1109:../STM32F2xx_StdPeriph_Driver/src/stm32f2xx_usart.c ****  ===============================================================================
1110:../STM32F2xx_StdPeriph_Driver/src/stm32f2xx_usart.c ****                    Interrupts and flags management functions
1111:../STM32F2xx_StdPeriph_Driver/src/stm32f2xx_usart.c ****  ===============================================================================  
1112:../STM32F2xx_StdPeriph_Driver/src/stm32f2xx_usart.c **** 
1113:../STM32F2xx_StdPeriph_Driver/src/stm32f2xx_usart.c ****   This subsection provides a set of functions allowing to configure the USART 
1114:../STM32F2xx_StdPeriph_Driver/src/stm32f2xx_usart.c ****   Interrupts sources, DMA channels requests and check or clear the flags or 
1115:../STM32F2xx_StdPeriph_Driver/src/stm32f2xx_usart.c ****   pending bits status.
1116:../STM32F2xx_StdPeriph_Driver/src/stm32f2xx_usart.c ****   The user should identify which mode will be used in his application to manage 
1117:../STM32F2xx_StdPeriph_Driver/src/stm32f2xx_usart.c ****   the communication: Polling mode, Interrupt mode or DMA mode. 
1118:../STM32F2xx_StdPeriph_Driver/src/stm32f2xx_usart.c ****     
1119:../STM32F2xx_StdPeriph_Driver/src/stm32f2xx_usart.c ****   Polling Mode
1120:../STM32F2xx_StdPeriph_Driver/src/stm32f2xx_usart.c ****   =============
1121:../STM32F2xx_StdPeriph_Driver/src/stm32f2xx_usart.c ****   In Polling Mode, the SPI communication can be managed by 10 flags:
1122:../STM32F2xx_StdPeriph_Driver/src/stm32f2xx_usart.c ****      1. USART_FLAG_TXE : to indicate the status of the transmit buffer register
1123:../STM32F2xx_StdPeriph_Driver/src/stm32f2xx_usart.c ****      2. USART_FLAG_RXNE : to indicate the status of the receive buffer register
1124:../STM32F2xx_StdPeriph_Driver/src/stm32f2xx_usart.c ****      3. USART_FLAG_TC : to indicate the status of the transmit operation
1125:../STM32F2xx_StdPeriph_Driver/src/stm32f2xx_usart.c ****      4. USART_FLAG_IDLE : to indicate the status of the Idle Line             
1126:../STM32F2xx_StdPeriph_Driver/src/stm32f2xx_usart.c ****      5. USART_FLAG_CTS : to indicate the status of the nCTS input
1127:../STM32F2xx_StdPeriph_Driver/src/stm32f2xx_usart.c ****      6. USART_FLAG_LBD : to indicate the status of the LIN break detection
1128:../STM32F2xx_StdPeriph_Driver/src/stm32f2xx_usart.c ****      7. USART_FLAG_NE : to indicate if a noise error occur
1129:../STM32F2xx_StdPeriph_Driver/src/stm32f2xx_usart.c ****      8. USART_FLAG_FE : to indicate if a frame error occur
1130:../STM32F2xx_StdPeriph_Driver/src/stm32f2xx_usart.c ****      9. USART_FLAG_PE : to indicate if a parity error occur
1131:../STM32F2xx_StdPeriph_Driver/src/stm32f2xx_usart.c ****      10. USART_FLAG_ORE : to indicate if an Overrun error occur
1132:../STM32F2xx_StdPeriph_Driver/src/stm32f2xx_usart.c **** 
1133:../STM32F2xx_StdPeriph_Driver/src/stm32f2xx_usart.c ****   In this Mode it is advised to use the following functions:
1134:../STM32F2xx_StdPeriph_Driver/src/stm32f2xx_usart.c ****       - FlagStatus USART_GetFlagStatus(USART_TypeDef* USARTx, uint16_t USART_FLAG);
1135:../STM32F2xx_StdPeriph_Driver/src/stm32f2xx_usart.c ****       - void USART_ClearFlag(USART_TypeDef* USARTx, uint16_t USART_FLAG);
1136:../STM32F2xx_StdPeriph_Driver/src/stm32f2xx_usart.c **** 
1137:../STM32F2xx_StdPeriph_Driver/src/stm32f2xx_usart.c ****   Interrupt Mode
1138:../STM32F2xx_StdPeriph_Driver/src/stm32f2xx_usart.c ****   ===============
1139:../STM32F2xx_StdPeriph_Driver/src/stm32f2xx_usart.c ****   In Interrupt Mode, the USART communication can be managed by 8 interrupt sources
1140:../STM32F2xx_StdPeriph_Driver/src/stm32f2xx_usart.c ****   and 10 pending bits: 
1141:../STM32F2xx_StdPeriph_Driver/src/stm32f2xx_usart.c **** 
1142:../STM32F2xx_StdPeriph_Driver/src/stm32f2xx_usart.c ****   Pending Bits:
1143:../STM32F2xx_StdPeriph_Driver/src/stm32f2xx_usart.c ****   ------------- 
1144:../STM32F2xx_StdPeriph_Driver/src/stm32f2xx_usart.c ****      1. USART_IT_TXE : to indicate the status of the transmit buffer register
1145:../STM32F2xx_StdPeriph_Driver/src/stm32f2xx_usart.c ****      2. USART_IT_RXNE : to indicate the status of the receive buffer register
1146:../STM32F2xx_StdPeriph_Driver/src/stm32f2xx_usart.c ****      3. USART_IT_TC : to indicate the status of the transmit operation
1147:../STM32F2xx_StdPeriph_Driver/src/stm32f2xx_usart.c ****      4. USART_IT_IDLE : to indicate the status of the Idle Line             
1148:../STM32F2xx_StdPeriph_Driver/src/stm32f2xx_usart.c ****      5. USART_IT_CTS : to indicate the status of the nCTS input
1149:../STM32F2xx_StdPeriph_Driver/src/stm32f2xx_usart.c ****      6. USART_IT_LBD : to indicate the status of the LIN break detection
1150:../STM32F2xx_StdPeriph_Driver/src/stm32f2xx_usart.c ****      7. USART_IT_NE : to indicate if a noise error occur
1151:../STM32F2xx_StdPeriph_Driver/src/stm32f2xx_usart.c ****      8. USART_IT_FE : to indicate if a frame error occur
1152:../STM32F2xx_StdPeriph_Driver/src/stm32f2xx_usart.c ****      9. USART_IT_PE : to indicate if a parity error occur
1153:../STM32F2xx_StdPeriph_Driver/src/stm32f2xx_usart.c ****      10. USART_IT_ORE : to indicate if an Overrun error occur
1154:../STM32F2xx_StdPeriph_Driver/src/stm32f2xx_usart.c **** 
1155:../STM32F2xx_StdPeriph_Driver/src/stm32f2xx_usart.c ****   Interrupt Source:
1156:../STM32F2xx_StdPeriph_Driver/src/stm32f2xx_usart.c ****   -----------------
1157:../STM32F2xx_StdPeriph_Driver/src/stm32f2xx_usart.c ****      1. USART_IT_TXE : specifies the interrupt source for the Tx buffer empty 
1158:../STM32F2xx_StdPeriph_Driver/src/stm32f2xx_usart.c ****                        interrupt. 
1159:../STM32F2xx_StdPeriph_Driver/src/stm32f2xx_usart.c ****      2. USART_IT_RXNE : specifies the interrupt source for the Rx buffer not 
1160:../STM32F2xx_StdPeriph_Driver/src/stm32f2xx_usart.c ****                         empty interrupt.
1161:../STM32F2xx_StdPeriph_Driver/src/stm32f2xx_usart.c ****      3. USART_IT_TC : specifies the interrupt source for the Transmit complete 
1162:../STM32F2xx_StdPeriph_Driver/src/stm32f2xx_usart.c ****                        interrupt. 
1163:../STM32F2xx_StdPeriph_Driver/src/stm32f2xx_usart.c ****      4. USART_IT_IDLE : specifies the interrupt source for the Idle Line interrupt.             
1164:../STM32F2xx_StdPeriph_Driver/src/stm32f2xx_usart.c ****      5. USART_IT_CTS : specifies the interrupt source for the CTS interrupt. 
1165:../STM32F2xx_StdPeriph_Driver/src/stm32f2xx_usart.c ****      6. USART_IT_LBD : specifies the interrupt source for the LIN break detection
1166:../STM32F2xx_StdPeriph_Driver/src/stm32f2xx_usart.c ****                        interrupt. 
1167:../STM32F2xx_StdPeriph_Driver/src/stm32f2xx_usart.c ****      7. USART_IT_PE : specifies the interrupt source for the parity error interrupt. 
1168:../STM32F2xx_StdPeriph_Driver/src/stm32f2xx_usart.c ****      8. USART_IT_ERR :  specifies the interrupt source for the errors interrupt.
1169:../STM32F2xx_StdPeriph_Driver/src/stm32f2xx_usart.c **** 
1170:../STM32F2xx_StdPeriph_Driver/src/stm32f2xx_usart.c **** @note Some parameters are coded in order to use them as interrupt source or as pending bits.
1171:../STM32F2xx_StdPeriph_Driver/src/stm32f2xx_usart.c **** 
1172:../STM32F2xx_StdPeriph_Driver/src/stm32f2xx_usart.c ****   In this Mode it is advised to use the following functions:
1173:../STM32F2xx_StdPeriph_Driver/src/stm32f2xx_usart.c ****      - void USART_ITConfig(USART_TypeDef* USARTx, uint16_t USART_IT, FunctionalState NewState);
1174:../STM32F2xx_StdPeriph_Driver/src/stm32f2xx_usart.c ****      - ITStatus USART_GetITStatus(USART_TypeDef* USARTx, uint16_t USART_IT);
1175:../STM32F2xx_StdPeriph_Driver/src/stm32f2xx_usart.c ****      - void USART_ClearITPendingBit(USART_TypeDef* USARTx, uint16_t USART_IT);
1176:../STM32F2xx_StdPeriph_Driver/src/stm32f2xx_usart.c **** 
1177:../STM32F2xx_StdPeriph_Driver/src/stm32f2xx_usart.c ****   DMA Mode
1178:../STM32F2xx_StdPeriph_Driver/src/stm32f2xx_usart.c ****   ========
1179:../STM32F2xx_StdPeriph_Driver/src/stm32f2xx_usart.c ****   In DMA Mode, the USART communication can be managed by 2 DMA Channel requests:
1180:../STM32F2xx_StdPeriph_Driver/src/stm32f2xx_usart.c ****      1. USART_DMAReq_Tx: specifies the Tx buffer DMA transfer request
1181:../STM32F2xx_StdPeriph_Driver/src/stm32f2xx_usart.c ****      2. USART_DMAReq_Rx: specifies the Rx buffer DMA transfer request
1182:../STM32F2xx_StdPeriph_Driver/src/stm32f2xx_usart.c **** 
1183:../STM32F2xx_StdPeriph_Driver/src/stm32f2xx_usart.c ****   In this Mode it is advised to use the following function:
1184:../STM32F2xx_StdPeriph_Driver/src/stm32f2xx_usart.c ****      - void USART_DMACmd(USART_TypeDef* USARTx, uint16_t USART_DMAReq, FunctionalState NewState);
1185:../STM32F2xx_StdPeriph_Driver/src/stm32f2xx_usart.c **** 
1186:../STM32F2xx_StdPeriph_Driver/src/stm32f2xx_usart.c **** @endverbatim
1187:../STM32F2xx_StdPeriph_Driver/src/stm32f2xx_usart.c ****   * @{
1188:../STM32F2xx_StdPeriph_Driver/src/stm32f2xx_usart.c ****   */
1189:../STM32F2xx_StdPeriph_Driver/src/stm32f2xx_usart.c **** 
1190:../STM32F2xx_StdPeriph_Driver/src/stm32f2xx_usart.c **** /**
1191:../STM32F2xx_StdPeriph_Driver/src/stm32f2xx_usart.c ****   * @brief  Enables or disables the specified USART interrupts.
1192:../STM32F2xx_StdPeriph_Driver/src/stm32f2xx_usart.c ****   * @param  USARTx: where x can be 1, 2, 3, 4, 5 or 6 to select the USART or 
1193:../STM32F2xx_StdPeriph_Driver/src/stm32f2xx_usart.c ****   *         UART peripheral.
1194:../STM32F2xx_StdPeriph_Driver/src/stm32f2xx_usart.c ****   * @param  USART_IT: specifies the USART interrupt sources to be enabled or disabled.
1195:../STM32F2xx_StdPeriph_Driver/src/stm32f2xx_usart.c ****   *          This parameter can be one of the following values:
1196:../STM32F2xx_StdPeriph_Driver/src/stm32f2xx_usart.c ****   *            @arg USART_IT_CTS:  CTS change interrupt
1197:../STM32F2xx_StdPeriph_Driver/src/stm32f2xx_usart.c ****   *            @arg USART_IT_LBD:  LIN Break detection interrupt
1198:../STM32F2xx_StdPeriph_Driver/src/stm32f2xx_usart.c ****   *            @arg USART_IT_TXE:  Transmit Data Register empty interrupt
1199:../STM32F2xx_StdPeriph_Driver/src/stm32f2xx_usart.c ****   *            @arg USART_IT_TC:   Transmission complete interrupt
1200:../STM32F2xx_StdPeriph_Driver/src/stm32f2xx_usart.c ****   *            @arg USART_IT_RXNE: Receive Data register not empty interrupt
1201:../STM32F2xx_StdPeriph_Driver/src/stm32f2xx_usart.c ****   *            @arg USART_IT_IDLE: Idle line detection interrupt
1202:../STM32F2xx_StdPeriph_Driver/src/stm32f2xx_usart.c ****   *            @arg USART_IT_PE:   Parity Error interrupt
1203:../STM32F2xx_StdPeriph_Driver/src/stm32f2xx_usart.c ****   *            @arg USART_IT_ERR:  Error interrupt(Frame error, noise error, overrun error)
1204:../STM32F2xx_StdPeriph_Driver/src/stm32f2xx_usart.c ****   * @param  NewState: new state of the specified USARTx interrupts.
1205:../STM32F2xx_StdPeriph_Driver/src/stm32f2xx_usart.c ****   *          This parameter can be: ENABLE or DISABLE.
1206:../STM32F2xx_StdPeriph_Driver/src/stm32f2xx_usart.c ****   * @retval None
1207:../STM32F2xx_StdPeriph_Driver/src/stm32f2xx_usart.c ****   */
1208:../STM32F2xx_StdPeriph_Driver/src/stm32f2xx_usart.c **** void USART_ITConfig(USART_TypeDef* USARTx, uint16_t USART_IT, FunctionalState NewState)
1209:../STM32F2xx_StdPeriph_Driver/src/stm32f2xx_usart.c **** {
 1542              		.loc 1 1209 0
 1543              		.cfi_startproc
 1544              		@ args = 0, pretend = 0, frame = 24
 1545              		@ frame_needed = 1, uses_anonymous_args = 0
 1546              		@ link register save eliminated.
 1547 07cc 80B4     		push	{r7}
 1548              	.LCFI72:
 1549              		.cfi_def_cfa_offset 4
 1550              		.cfi_offset 7, -4
 1551 07ce 87B0     		sub	sp, sp, #28
 1552              	.LCFI73:
 1553              		.cfi_def_cfa_offset 32
 1554 07d0 00AF     		add	r7, sp, #0
 1555              	.LCFI74:
 1556              		.cfi_def_cfa_register 7
 1557 07d2 7860     		str	r0, [r7, #4]
 1558 07d4 1346     		mov	r3, r2
 1559 07d6 0A46     		mov	r2, r1	@ movhi
 1560 07d8 7A80     		strh	r2, [r7, #2]	@ movhi
 1561 07da 7B70     		strb	r3, [r7, #1]
1210:../STM32F2xx_StdPeriph_Driver/src/stm32f2xx_usart.c ****   uint32_t usartreg = 0x00, itpos = 0x00, itmask = 0x00;
 1562              		.loc 1 1210 0
 1563 07dc 4FF00003 		mov	r3, #0
 1564 07e0 3B61     		str	r3, [r7, #16]
 1565 07e2 4FF00003 		mov	r3, #0
 1566 07e6 FB60     		str	r3, [r7, #12]
 1567 07e8 4FF00003 		mov	r3, #0
 1568 07ec BB60     		str	r3, [r7, #8]
1211:../STM32F2xx_StdPeriph_Driver/src/stm32f2xx_usart.c ****   uint32_t usartxbase = 0x00;
 1569              		.loc 1 1211 0
 1570 07ee 4FF00003 		mov	r3, #0
 1571 07f2 7B61     		str	r3, [r7, #20]
1212:../STM32F2xx_StdPeriph_Driver/src/stm32f2xx_usart.c ****   /* Check the parameters */
1213:../STM32F2xx_StdPeriph_Driver/src/stm32f2xx_usart.c ****   assert_param(IS_USART_ALL_PERIPH(USARTx));
1214:../STM32F2xx_StdPeriph_Driver/src/stm32f2xx_usart.c ****   assert_param(IS_USART_CONFIG_IT(USART_IT));
1215:../STM32F2xx_StdPeriph_Driver/src/stm32f2xx_usart.c ****   assert_param(IS_FUNCTIONAL_STATE(NewState));
1216:../STM32F2xx_StdPeriph_Driver/src/stm32f2xx_usart.c **** 
1217:../STM32F2xx_StdPeriph_Driver/src/stm32f2xx_usart.c ****   /* The CTS interrupt is not available for UART4 and UART5 */
1218:../STM32F2xx_StdPeriph_Driver/src/stm32f2xx_usart.c ****   if (USART_IT == USART_IT_CTS)
1219:../STM32F2xx_StdPeriph_Driver/src/stm32f2xx_usart.c ****   {
1220:../STM32F2xx_StdPeriph_Driver/src/stm32f2xx_usart.c ****     assert_param(IS_USART_1236_PERIPH(USARTx));
1221:../STM32F2xx_StdPeriph_Driver/src/stm32f2xx_usart.c ****   } 
1222:../STM32F2xx_StdPeriph_Driver/src/stm32f2xx_usart.c ****     
1223:../STM32F2xx_StdPeriph_Driver/src/stm32f2xx_usart.c ****   usartxbase = (uint32_t)USARTx;
 1572              		.loc 1 1223 0
 1573 07f4 7B68     		ldr	r3, [r7, #4]
 1574 07f6 7B61     		str	r3, [r7, #20]
1224:../STM32F2xx_StdPeriph_Driver/src/stm32f2xx_usart.c **** 
1225:../STM32F2xx_StdPeriph_Driver/src/stm32f2xx_usart.c ****   /* Get the USART register index */
1226:../STM32F2xx_StdPeriph_Driver/src/stm32f2xx_usart.c ****   usartreg = (((uint8_t)USART_IT) >> 0x05);
 1575              		.loc 1 1226 0
 1576 07f8 7B88     		ldrh	r3, [r7, #2]	@ movhi
 1577 07fa DBB2     		uxtb	r3, r3
 1578 07fc 4FEA5313 		lsr	r3, r3, #5
 1579 0800 DBB2     		uxtb	r3, r3
 1580 0802 3B61     		str	r3, [r7, #16]
1227:../STM32F2xx_StdPeriph_Driver/src/stm32f2xx_usart.c **** 
1228:../STM32F2xx_StdPeriph_Driver/src/stm32f2xx_usart.c ****   /* Get the interrupt position */
1229:../STM32F2xx_StdPeriph_Driver/src/stm32f2xx_usart.c ****   itpos = USART_IT & IT_MASK;
 1581              		.loc 1 1229 0
 1582 0804 7B88     		ldrh	r3, [r7, #2]
 1583 0806 03F01F03 		and	r3, r3, #31
 1584 080a FB60     		str	r3, [r7, #12]
1230:../STM32F2xx_StdPeriph_Driver/src/stm32f2xx_usart.c ****   itmask = (((uint32_t)0x01) << itpos);
 1585              		.loc 1 1230 0
 1586 080c FB68     		ldr	r3, [r7, #12]
 1587 080e 4FF00102 		mov	r2, #1
 1588 0812 02FA03F3 		lsl	r3, r2, r3
 1589 0816 BB60     		str	r3, [r7, #8]
1231:../STM32F2xx_StdPeriph_Driver/src/stm32f2xx_usart.c ****     
1232:../STM32F2xx_StdPeriph_Driver/src/stm32f2xx_usart.c ****   if (usartreg == 0x01) /* The IT is in CR1 register */
 1590              		.loc 1 1232 0
 1591 0818 3B69     		ldr	r3, [r7, #16]
 1592 081a 012B     		cmp	r3, #1
 1593 081c 04D1     		bne	.L59
1233:../STM32F2xx_StdPeriph_Driver/src/stm32f2xx_usart.c ****   {
1234:../STM32F2xx_StdPeriph_Driver/src/stm32f2xx_usart.c ****     usartxbase += 0x0C;
 1594              		.loc 1 1234 0
 1595 081e 7B69     		ldr	r3, [r7, #20]
 1596 0820 03F10C03 		add	r3, r3, #12
 1597 0824 7B61     		str	r3, [r7, #20]
 1598 0826 0BE0     		b	.L60
 1599              	.L59:
1235:../STM32F2xx_StdPeriph_Driver/src/stm32f2xx_usart.c ****   }
1236:../STM32F2xx_StdPeriph_Driver/src/stm32f2xx_usart.c ****   else if (usartreg == 0x02) /* The IT is in CR2 register */
 1600              		.loc 1 1236 0
 1601 0828 3B69     		ldr	r3, [r7, #16]
 1602 082a 022B     		cmp	r3, #2
 1603 082c 04D1     		bne	.L61
1237:../STM32F2xx_StdPeriph_Driver/src/stm32f2xx_usart.c ****   {
1238:../STM32F2xx_StdPeriph_Driver/src/stm32f2xx_usart.c ****     usartxbase += 0x10;
 1604              		.loc 1 1238 0
 1605 082e 7B69     		ldr	r3, [r7, #20]
 1606 0830 03F11003 		add	r3, r3, #16
 1607 0834 7B61     		str	r3, [r7, #20]
 1608 0836 03E0     		b	.L60
 1609              	.L61:
1239:../STM32F2xx_StdPeriph_Driver/src/stm32f2xx_usart.c ****   }
1240:../STM32F2xx_StdPeriph_Driver/src/stm32f2xx_usart.c ****   else /* The IT is in CR3 register */
1241:../STM32F2xx_StdPeriph_Driver/src/stm32f2xx_usart.c ****   {
1242:../STM32F2xx_StdPeriph_Driver/src/stm32f2xx_usart.c ****     usartxbase += 0x14; 
 1610              		.loc 1 1242 0
 1611 0838 7B69     		ldr	r3, [r7, #20]
 1612 083a 03F11403 		add	r3, r3, #20
 1613 083e 7B61     		str	r3, [r7, #20]
 1614              	.L60:
1243:../STM32F2xx_StdPeriph_Driver/src/stm32f2xx_usart.c ****   }
1244:../STM32F2xx_StdPeriph_Driver/src/stm32f2xx_usart.c ****   if (NewState != DISABLE)
 1615              		.loc 1 1244 0
 1616 0840 7B78     		ldrb	r3, [r7, #1]	@ zero_extendqisi2
 1617 0842 002B     		cmp	r3, #0
 1618 0844 06D0     		beq	.L62
1245:../STM32F2xx_StdPeriph_Driver/src/stm32f2xx_usart.c ****   {
1246:../STM32F2xx_StdPeriph_Driver/src/stm32f2xx_usart.c ****     *(__IO uint32_t*)usartxbase  |= itmask;
 1619              		.loc 1 1246 0
 1620 0846 7B69     		ldr	r3, [r7, #20]
 1621 0848 7A69     		ldr	r2, [r7, #20]
 1622 084a 1168     		ldr	r1, [r2, #0]
 1623 084c BA68     		ldr	r2, [r7, #8]
 1624 084e 0A43     		orrs	r2, r2, r1
 1625 0850 1A60     		str	r2, [r3, #0]
 1626 0852 07E0     		b	.L58
 1627              	.L62:
1247:../STM32F2xx_StdPeriph_Driver/src/stm32f2xx_usart.c ****   }
1248:../STM32F2xx_StdPeriph_Driver/src/stm32f2xx_usart.c ****   else
1249:../STM32F2xx_StdPeriph_Driver/src/stm32f2xx_usart.c ****   {
1250:../STM32F2xx_StdPeriph_Driver/src/stm32f2xx_usart.c ****     *(__IO uint32_t*)usartxbase &= ~itmask;
 1628              		.loc 1 1250 0
 1629 0854 7B69     		ldr	r3, [r7, #20]
 1630 0856 7A69     		ldr	r2, [r7, #20]
 1631 0858 1168     		ldr	r1, [r2, #0]
 1632 085a BA68     		ldr	r2, [r7, #8]
 1633 085c 6FEA0202 		mvn	r2, r2
 1634 0860 0A40     		ands	r2, r2, r1
 1635 0862 1A60     		str	r2, [r3, #0]
 1636              	.L58:
1251:../STM32F2xx_StdPeriph_Driver/src/stm32f2xx_usart.c ****   }
1252:../STM32F2xx_StdPeriph_Driver/src/stm32f2xx_usart.c **** }
 1637              		.loc 1 1252 0
 1638 0864 07F11C07 		add	r7, r7, #28
 1639 0868 BD46     		mov	sp, r7
 1640 086a 80BC     		pop	{r7}
 1641 086c 7047     		bx	lr
 1642              		.cfi_endproc
 1643              	.LFE53:
 1645 086e 00BF     		.align	2
 1646              		.global	USART_GetFlagStatus
 1647              		.thumb
 1648              		.thumb_func
 1650              	USART_GetFlagStatus:
 1651              	.LFB54:
1253:../STM32F2xx_StdPeriph_Driver/src/stm32f2xx_usart.c **** 
1254:../STM32F2xx_StdPeriph_Driver/src/stm32f2xx_usart.c **** /**
1255:../STM32F2xx_StdPeriph_Driver/src/stm32f2xx_usart.c ****   * @brief  Checks whether the specified USART flag is set or not.
1256:../STM32F2xx_StdPeriph_Driver/src/stm32f2xx_usart.c ****   * @param  USARTx: where x can be 1, 2, 3, 4, 5 or 6 to select the USART or 
1257:../STM32F2xx_StdPeriph_Driver/src/stm32f2xx_usart.c ****   *         UART peripheral.
1258:../STM32F2xx_StdPeriph_Driver/src/stm32f2xx_usart.c ****   * @param  USART_FLAG: specifies the flag to check.
1259:../STM32F2xx_StdPeriph_Driver/src/stm32f2xx_usart.c ****   *          This parameter can be one of the following values:
1260:../STM32F2xx_StdPeriph_Driver/src/stm32f2xx_usart.c ****   *            @arg USART_FLAG_CTS:  CTS Change flag (not available for UART4 and UART5)
1261:../STM32F2xx_StdPeriph_Driver/src/stm32f2xx_usart.c ****   *            @arg USART_FLAG_LBD:  LIN Break detection flag
1262:../STM32F2xx_StdPeriph_Driver/src/stm32f2xx_usart.c ****   *            @arg USART_FLAG_TXE:  Transmit data register empty flag
1263:../STM32F2xx_StdPeriph_Driver/src/stm32f2xx_usart.c ****   *            @arg USART_FLAG_TC:   Transmission Complete flag
1264:../STM32F2xx_StdPeriph_Driver/src/stm32f2xx_usart.c ****   *            @arg USART_FLAG_RXNE: Receive data register not empty flag
1265:../STM32F2xx_StdPeriph_Driver/src/stm32f2xx_usart.c ****   *            @arg USART_FLAG_IDLE: Idle Line detection flag
1266:../STM32F2xx_StdPeriph_Driver/src/stm32f2xx_usart.c ****   *            @arg USART_FLAG_ORE:  OverRun Error flag
1267:../STM32F2xx_StdPeriph_Driver/src/stm32f2xx_usart.c ****   *            @arg USART_FLAG_NE:   Noise Error flag
1268:../STM32F2xx_StdPeriph_Driver/src/stm32f2xx_usart.c ****   *            @arg USART_FLAG_FE:   Framing Error flag
1269:../STM32F2xx_StdPeriph_Driver/src/stm32f2xx_usart.c ****   *            @arg USART_FLAG_PE:   Parity Error flag
1270:../STM32F2xx_StdPeriph_Driver/src/stm32f2xx_usart.c ****   * @retval The new state of USART_FLAG (SET or RESET).
1271:../STM32F2xx_StdPeriph_Driver/src/stm32f2xx_usart.c ****   */
1272:../STM32F2xx_StdPeriph_Driver/src/stm32f2xx_usart.c **** FlagStatus USART_GetFlagStatus(USART_TypeDef* USARTx, uint16_t USART_FLAG)
1273:../STM32F2xx_StdPeriph_Driver/src/stm32f2xx_usart.c **** {
 1652              		.loc 1 1273 0
 1653              		.cfi_startproc
 1654              		@ args = 0, pretend = 0, frame = 16
 1655              		@ frame_needed = 1, uses_anonymous_args = 0
 1656              		@ link register save eliminated.
 1657 0870 80B4     		push	{r7}
 1658              	.LCFI75:
 1659              		.cfi_def_cfa_offset 4
 1660              		.cfi_offset 7, -4
 1661 0872 85B0     		sub	sp, sp, #20
 1662              	.LCFI76:
 1663              		.cfi_def_cfa_offset 24
 1664 0874 00AF     		add	r7, sp, #0
 1665              	.LCFI77:
 1666              		.cfi_def_cfa_register 7
 1667 0876 7860     		str	r0, [r7, #4]
 1668 0878 0B46     		mov	r3, r1
 1669 087a 7B80     		strh	r3, [r7, #2]	@ movhi
1274:../STM32F2xx_StdPeriph_Driver/src/stm32f2xx_usart.c ****   FlagStatus bitstatus = RESET;
 1670              		.loc 1 1274 0
 1671 087c 4FF00003 		mov	r3, #0
 1672 0880 FB73     		strb	r3, [r7, #15]
1275:../STM32F2xx_StdPeriph_Driver/src/stm32f2xx_usart.c ****   /* Check the parameters */
1276:../STM32F2xx_StdPeriph_Driver/src/stm32f2xx_usart.c ****   assert_param(IS_USART_ALL_PERIPH(USARTx));
1277:../STM32F2xx_StdPeriph_Driver/src/stm32f2xx_usart.c ****   assert_param(IS_USART_FLAG(USART_FLAG));
1278:../STM32F2xx_StdPeriph_Driver/src/stm32f2xx_usart.c **** 
1279:../STM32F2xx_StdPeriph_Driver/src/stm32f2xx_usart.c ****   /* The CTS flag is not available for UART4 and UART5 */
1280:../STM32F2xx_StdPeriph_Driver/src/stm32f2xx_usart.c ****   if (USART_FLAG == USART_FLAG_CTS)
1281:../STM32F2xx_StdPeriph_Driver/src/stm32f2xx_usart.c ****   {
1282:../STM32F2xx_StdPeriph_Driver/src/stm32f2xx_usart.c ****     assert_param(IS_USART_1236_PERIPH(USARTx));
1283:../STM32F2xx_StdPeriph_Driver/src/stm32f2xx_usart.c ****   } 
1284:../STM32F2xx_StdPeriph_Driver/src/stm32f2xx_usart.c ****     
1285:../STM32F2xx_StdPeriph_Driver/src/stm32f2xx_usart.c ****   if ((USARTx->SR & USART_FLAG) != (uint16_t)RESET)
 1673              		.loc 1 1285 0
 1674 0882 7B68     		ldr	r3, [r7, #4]
 1675 0884 1B88     		ldrh	r3, [r3, #0]	@ movhi
 1676 0886 9AB2     		uxth	r2, r3
 1677 0888 7B88     		ldrh	r3, [r7, #2]	@ movhi
 1678 088a 1340     		ands	r3, r3, r2
 1679 088c 9BB2     		uxth	r3, r3
 1680 088e 002B     		cmp	r3, #0
 1681 0890 03D0     		beq	.L65
1286:../STM32F2xx_StdPeriph_Driver/src/stm32f2xx_usart.c ****   {
1287:../STM32F2xx_StdPeriph_Driver/src/stm32f2xx_usart.c ****     bitstatus = SET;
 1682              		.loc 1 1287 0
 1683 0892 4FF00103 		mov	r3, #1
 1684 0896 FB73     		strb	r3, [r7, #15]
 1685 0898 02E0     		b	.L66
 1686              	.L65:
1288:../STM32F2xx_StdPeriph_Driver/src/stm32f2xx_usart.c ****   }
1289:../STM32F2xx_StdPeriph_Driver/src/stm32f2xx_usart.c ****   else
1290:../STM32F2xx_StdPeriph_Driver/src/stm32f2xx_usart.c ****   {
1291:../STM32F2xx_StdPeriph_Driver/src/stm32f2xx_usart.c ****     bitstatus = RESET;
 1687              		.loc 1 1291 0
 1688 089a 4FF00003 		mov	r3, #0
 1689 089e FB73     		strb	r3, [r7, #15]
 1690              	.L66:
1292:../STM32F2xx_StdPeriph_Driver/src/stm32f2xx_usart.c ****   }
1293:../STM32F2xx_StdPeriph_Driver/src/stm32f2xx_usart.c ****   return bitstatus;
 1691              		.loc 1 1293 0
 1692 08a0 FB7B     		ldrb	r3, [r7, #15]	@ zero_extendqisi2
1294:../STM32F2xx_StdPeriph_Driver/src/stm32f2xx_usart.c **** }
 1693              		.loc 1 1294 0
 1694 08a2 1846     		mov	r0, r3
 1695 08a4 07F11407 		add	r7, r7, #20
 1696 08a8 BD46     		mov	sp, r7
 1697 08aa 80BC     		pop	{r7}
 1698 08ac 7047     		bx	lr
 1699              		.cfi_endproc
 1700              	.LFE54:
 1702 08ae 00BF     		.align	2
 1703              		.global	USART_ClearFlag
 1704              		.thumb
 1705              		.thumb_func
 1707              	USART_ClearFlag:
 1708              	.LFB55:
1295:../STM32F2xx_StdPeriph_Driver/src/stm32f2xx_usart.c **** 
1296:../STM32F2xx_StdPeriph_Driver/src/stm32f2xx_usart.c **** /**
1297:../STM32F2xx_StdPeriph_Driver/src/stm32f2xx_usart.c ****   * @brief  Clears the USARTx's pending flags.
1298:../STM32F2xx_StdPeriph_Driver/src/stm32f2xx_usart.c ****   * @param  USARTx: where x can be 1, 2, 3, 4, 5 or 6 to select the USART or 
1299:../STM32F2xx_StdPeriph_Driver/src/stm32f2xx_usart.c ****   *         UART peripheral.
1300:../STM32F2xx_StdPeriph_Driver/src/stm32f2xx_usart.c ****   * @param  USART_FLAG: specifies the flag to clear.
1301:../STM32F2xx_StdPeriph_Driver/src/stm32f2xx_usart.c ****   *          This parameter can be any combination of the following values:
1302:../STM32F2xx_StdPeriph_Driver/src/stm32f2xx_usart.c ****   *            @arg USART_FLAG_CTS:  CTS Change flag (not available for UART4 and UART5).
1303:../STM32F2xx_StdPeriph_Driver/src/stm32f2xx_usart.c ****   *            @arg USART_FLAG_LBD:  LIN Break detection flag.
1304:../STM32F2xx_StdPeriph_Driver/src/stm32f2xx_usart.c ****   *            @arg USART_FLAG_TC:   Transmission Complete flag.
1305:../STM32F2xx_StdPeriph_Driver/src/stm32f2xx_usart.c ****   *            @arg USART_FLAG_RXNE: Receive data register not empty flag.
1306:../STM32F2xx_StdPeriph_Driver/src/stm32f2xx_usart.c ****   *   
1307:../STM32F2xx_StdPeriph_Driver/src/stm32f2xx_usart.c ****   * @note   PE (Parity error), FE (Framing error), NE (Noise error), ORE (OverRun 
1308:../STM32F2xx_StdPeriph_Driver/src/stm32f2xx_usart.c ****   *          error) and IDLE (Idle line detected) flags are cleared by software 
1309:../STM32F2xx_StdPeriph_Driver/src/stm32f2xx_usart.c ****   *          sequence: a read operation to USART_SR register (USART_GetFlagStatus()) 
1310:../STM32F2xx_StdPeriph_Driver/src/stm32f2xx_usart.c ****   *          followed by a read operation to USART_DR register (USART_ReceiveData()).
1311:../STM32F2xx_StdPeriph_Driver/src/stm32f2xx_usart.c ****   * @note   RXNE flag can be also cleared by a read to the USART_DR register 
1312:../STM32F2xx_StdPeriph_Driver/src/stm32f2xx_usart.c ****   *          (USART_ReceiveData()).
1313:../STM32F2xx_StdPeriph_Driver/src/stm32f2xx_usart.c ****   * @note   TC flag can be also cleared by software sequence: a read operation to 
1314:../STM32F2xx_StdPeriph_Driver/src/stm32f2xx_usart.c ****   *          USART_SR register (USART_GetFlagStatus()) followed by a write operation
1315:../STM32F2xx_StdPeriph_Driver/src/stm32f2xx_usart.c ****   *          to USART_DR register (USART_SendData()).
1316:../STM32F2xx_StdPeriph_Driver/src/stm32f2xx_usart.c ****   * @note   TXE flag is cleared only by a write to the USART_DR register 
1317:../STM32F2xx_StdPeriph_Driver/src/stm32f2xx_usart.c ****   *          (USART_SendData()).
1318:../STM32F2xx_StdPeriph_Driver/src/stm32f2xx_usart.c ****   *   
1319:../STM32F2xx_StdPeriph_Driver/src/stm32f2xx_usart.c ****   * @retval None
1320:../STM32F2xx_StdPeriph_Driver/src/stm32f2xx_usart.c ****   */
1321:../STM32F2xx_StdPeriph_Driver/src/stm32f2xx_usart.c **** void USART_ClearFlag(USART_TypeDef* USARTx, uint16_t USART_FLAG)
1322:../STM32F2xx_StdPeriph_Driver/src/stm32f2xx_usart.c **** {
 1709              		.loc 1 1322 0
 1710              		.cfi_startproc
 1711              		@ args = 0, pretend = 0, frame = 8
 1712              		@ frame_needed = 1, uses_anonymous_args = 0
 1713              		@ link register save eliminated.
 1714 08b0 80B4     		push	{r7}
 1715              	.LCFI78:
 1716              		.cfi_def_cfa_offset 4
 1717              		.cfi_offset 7, -4
 1718 08b2 83B0     		sub	sp, sp, #12
 1719              	.LCFI79:
 1720              		.cfi_def_cfa_offset 16
 1721 08b4 00AF     		add	r7, sp, #0
 1722              	.LCFI80:
 1723              		.cfi_def_cfa_register 7
 1724 08b6 7860     		str	r0, [r7, #4]
 1725 08b8 0B46     		mov	r3, r1
 1726 08ba 7B80     		strh	r3, [r7, #2]	@ movhi
1323:../STM32F2xx_StdPeriph_Driver/src/stm32f2xx_usart.c ****   /* Check the parameters */
1324:../STM32F2xx_StdPeriph_Driver/src/stm32f2xx_usart.c ****   assert_param(IS_USART_ALL_PERIPH(USARTx));
1325:../STM32F2xx_StdPeriph_Driver/src/stm32f2xx_usart.c ****   assert_param(IS_USART_CLEAR_FLAG(USART_FLAG));
1326:../STM32F2xx_StdPeriph_Driver/src/stm32f2xx_usart.c **** 
1327:../STM32F2xx_StdPeriph_Driver/src/stm32f2xx_usart.c ****   /* The CTS flag is not available for UART4 and UART5 */
1328:../STM32F2xx_StdPeriph_Driver/src/stm32f2xx_usart.c ****   if ((USART_FLAG & USART_FLAG_CTS) == USART_FLAG_CTS)
1329:../STM32F2xx_StdPeriph_Driver/src/stm32f2xx_usart.c ****   {
1330:../STM32F2xx_StdPeriph_Driver/src/stm32f2xx_usart.c ****     assert_param(IS_USART_1236_PERIPH(USARTx));
1331:../STM32F2xx_StdPeriph_Driver/src/stm32f2xx_usart.c ****   } 
1332:../STM32F2xx_StdPeriph_Driver/src/stm32f2xx_usart.c ****        
1333:../STM32F2xx_StdPeriph_Driver/src/stm32f2xx_usart.c ****   USARTx->SR = (uint16_t)~USART_FLAG;
 1727              		.loc 1 1333 0
 1728 08bc 7B88     		ldrh	r3, [r7, #2]	@ movhi
 1729 08be 6FEA0303 		mvn	r3, r3
 1730 08c2 9AB2     		uxth	r2, r3
 1731 08c4 7B68     		ldr	r3, [r7, #4]
 1732 08c6 1A80     		strh	r2, [r3, #0]	@ movhi
1334:../STM32F2xx_StdPeriph_Driver/src/stm32f2xx_usart.c **** }
 1733              		.loc 1 1334 0
 1734 08c8 07F10C07 		add	r7, r7, #12
 1735 08cc BD46     		mov	sp, r7
 1736 08ce 80BC     		pop	{r7}
 1737 08d0 7047     		bx	lr
 1738              		.cfi_endproc
 1739              	.LFE55:
 1741 08d2 00BF     		.align	2
 1742              		.global	USART_GetITStatus
 1743              		.thumb
 1744              		.thumb_func
 1746              	USART_GetITStatus:
 1747              	.LFB56:
1335:../STM32F2xx_StdPeriph_Driver/src/stm32f2xx_usart.c **** 
1336:../STM32F2xx_StdPeriph_Driver/src/stm32f2xx_usart.c **** /**
1337:../STM32F2xx_StdPeriph_Driver/src/stm32f2xx_usart.c ****   * @brief  Checks whether the specified USART interrupt has occurred or not.
1338:../STM32F2xx_StdPeriph_Driver/src/stm32f2xx_usart.c ****   * @param  USARTx: where x can be 1, 2, 3, 4, 5 or 6 to select the USART or 
1339:../STM32F2xx_StdPeriph_Driver/src/stm32f2xx_usart.c ****   *         UART peripheral.
1340:../STM32F2xx_StdPeriph_Driver/src/stm32f2xx_usart.c ****   * @param  USART_IT: specifies the USART interrupt source to check.
1341:../STM32F2xx_StdPeriph_Driver/src/stm32f2xx_usart.c ****   *          This parameter can be one of the following values:
1342:../STM32F2xx_StdPeriph_Driver/src/stm32f2xx_usart.c ****   *            @arg USART_IT_CTS:  CTS change interrupt (not available for UART4 and UART5)
1343:../STM32F2xx_StdPeriph_Driver/src/stm32f2xx_usart.c ****   *            @arg USART_IT_LBD:  LIN Break detection interrupt
1344:../STM32F2xx_StdPeriph_Driver/src/stm32f2xx_usart.c ****   *            @arg USART_IT_TXE:  Transmit Data Register empty interrupt
1345:../STM32F2xx_StdPeriph_Driver/src/stm32f2xx_usart.c ****   *            @arg USART_IT_TC:   Transmission complete interrupt
1346:../STM32F2xx_StdPeriph_Driver/src/stm32f2xx_usart.c ****   *            @arg USART_IT_RXNE: Receive Data register not empty interrupt
1347:../STM32F2xx_StdPeriph_Driver/src/stm32f2xx_usart.c ****   *            @arg USART_IT_IDLE: Idle line detection interrupt
1348:../STM32F2xx_StdPeriph_Driver/src/stm32f2xx_usart.c ****   *            @arg USART_IT_ORE:  OverRun Error interrupt
1349:../STM32F2xx_StdPeriph_Driver/src/stm32f2xx_usart.c ****   *            @arg USART_IT_NE:   Noise Error interrupt
1350:../STM32F2xx_StdPeriph_Driver/src/stm32f2xx_usart.c ****   *            @arg USART_IT_FE:   Framing Error interrupt
1351:../STM32F2xx_StdPeriph_Driver/src/stm32f2xx_usart.c ****   *            @arg USART_IT_PE:   Parity Error interrupt
1352:../STM32F2xx_StdPeriph_Driver/src/stm32f2xx_usart.c ****   * @retval The new state of USART_IT (SET or RESET).
1353:../STM32F2xx_StdPeriph_Driver/src/stm32f2xx_usart.c ****   */
1354:../STM32F2xx_StdPeriph_Driver/src/stm32f2xx_usart.c **** ITStatus USART_GetITStatus(USART_TypeDef* USARTx, uint16_t USART_IT)
1355:../STM32F2xx_StdPeriph_Driver/src/stm32f2xx_usart.c **** {
 1748              		.loc 1 1355 0
 1749              		.cfi_startproc
 1750              		@ args = 0, pretend = 0, frame = 24
 1751              		@ frame_needed = 1, uses_anonymous_args = 0
 1752              		@ link register save eliminated.
 1753 08d4 80B4     		push	{r7}
 1754              	.LCFI81:
 1755              		.cfi_def_cfa_offset 4
 1756              		.cfi_offset 7, -4
 1757 08d6 87B0     		sub	sp, sp, #28
 1758              	.LCFI82:
 1759              		.cfi_def_cfa_offset 32
 1760 08d8 00AF     		add	r7, sp, #0
 1761              	.LCFI83:
 1762              		.cfi_def_cfa_register 7
 1763 08da 7860     		str	r0, [r7, #4]
 1764 08dc 0B46     		mov	r3, r1
 1765 08de 7B80     		strh	r3, [r7, #2]	@ movhi
1356:../STM32F2xx_StdPeriph_Driver/src/stm32f2xx_usart.c ****   uint32_t bitpos = 0x00, itmask = 0x00, usartreg = 0x00;
 1766              		.loc 1 1356 0
 1767 08e0 4FF00003 		mov	r3, #0
 1768 08e4 FB60     		str	r3, [r7, #12]
 1769 08e6 4FF00003 		mov	r3, #0
 1770 08ea 7B61     		str	r3, [r7, #20]
 1771 08ec 4FF00003 		mov	r3, #0
 1772 08f0 BB60     		str	r3, [r7, #8]
1357:../STM32F2xx_StdPeriph_Driver/src/stm32f2xx_usart.c ****   ITStatus bitstatus = RESET;
 1773              		.loc 1 1357 0
 1774 08f2 4FF00003 		mov	r3, #0
 1775 08f6 FB74     		strb	r3, [r7, #19]
1358:../STM32F2xx_StdPeriph_Driver/src/stm32f2xx_usart.c ****   /* Check the parameters */
1359:../STM32F2xx_StdPeriph_Driver/src/stm32f2xx_usart.c ****   assert_param(IS_USART_ALL_PERIPH(USARTx));
1360:../STM32F2xx_StdPeriph_Driver/src/stm32f2xx_usart.c ****   assert_param(IS_USART_GET_IT(USART_IT)); 
1361:../STM32F2xx_StdPeriph_Driver/src/stm32f2xx_usart.c **** 
1362:../STM32F2xx_StdPeriph_Driver/src/stm32f2xx_usart.c ****   /* The CTS interrupt is not available for UART4 and UART5 */ 
1363:../STM32F2xx_StdPeriph_Driver/src/stm32f2xx_usart.c ****   if (USART_IT == USART_IT_CTS)
1364:../STM32F2xx_StdPeriph_Driver/src/stm32f2xx_usart.c ****   {
1365:../STM32F2xx_StdPeriph_Driver/src/stm32f2xx_usart.c ****     assert_param(IS_USART_1236_PERIPH(USARTx));
1366:../STM32F2xx_StdPeriph_Driver/src/stm32f2xx_usart.c ****   } 
1367:../STM32F2xx_StdPeriph_Driver/src/stm32f2xx_usart.c ****     
1368:../STM32F2xx_StdPeriph_Driver/src/stm32f2xx_usart.c ****   /* Get the USART register index */
1369:../STM32F2xx_StdPeriph_Driver/src/stm32f2xx_usart.c ****   usartreg = (((uint8_t)USART_IT) >> 0x05);
 1776              		.loc 1 1369 0
 1777 08f8 7B88     		ldrh	r3, [r7, #2]	@ movhi
 1778 08fa DBB2     		uxtb	r3, r3
 1779 08fc 4FEA5313 		lsr	r3, r3, #5
 1780 0900 DBB2     		uxtb	r3, r3
 1781 0902 BB60     		str	r3, [r7, #8]
1370:../STM32F2xx_StdPeriph_Driver/src/stm32f2xx_usart.c ****   /* Get the interrupt position */
1371:../STM32F2xx_StdPeriph_Driver/src/stm32f2xx_usart.c ****   itmask = USART_IT & IT_MASK;
 1782              		.loc 1 1371 0
 1783 0904 7B88     		ldrh	r3, [r7, #2]
 1784 0906 03F01F03 		and	r3, r3, #31
 1785 090a 7B61     		str	r3, [r7, #20]
1372:../STM32F2xx_StdPeriph_Driver/src/stm32f2xx_usart.c ****   itmask = (uint32_t)0x01 << itmask;
 1786              		.loc 1 1372 0
 1787 090c 7B69     		ldr	r3, [r7, #20]
 1788 090e 4FF00102 		mov	r2, #1
 1789 0912 02FA03F3 		lsl	r3, r2, r3
 1790 0916 7B61     		str	r3, [r7, #20]
1373:../STM32F2xx_StdPeriph_Driver/src/stm32f2xx_usart.c ****   
1374:../STM32F2xx_StdPeriph_Driver/src/stm32f2xx_usart.c ****   if (usartreg == 0x01) /* The IT  is in CR1 register */
 1791              		.loc 1 1374 0
 1792 0918 BB68     		ldr	r3, [r7, #8]
 1793 091a 012B     		cmp	r3, #1
 1794 091c 06D1     		bne	.L69
1375:../STM32F2xx_StdPeriph_Driver/src/stm32f2xx_usart.c ****   {
1376:../STM32F2xx_StdPeriph_Driver/src/stm32f2xx_usart.c ****     itmask &= USARTx->CR1;
 1795              		.loc 1 1376 0
 1796 091e 7B68     		ldr	r3, [r7, #4]
 1797 0920 9B89     		ldrh	r3, [r3, #12]	@ movhi
 1798 0922 9BB2     		uxth	r3, r3
 1799 0924 7A69     		ldr	r2, [r7, #20]
 1800 0926 1340     		ands	r3, r3, r2
 1801 0928 7B61     		str	r3, [r7, #20]
 1802 092a 0FE0     		b	.L70
 1803              	.L69:
1377:../STM32F2xx_StdPeriph_Driver/src/stm32f2xx_usart.c ****   }
1378:../STM32F2xx_StdPeriph_Driver/src/stm32f2xx_usart.c ****   else if (usartreg == 0x02) /* The IT  is in CR2 register */
 1804              		.loc 1 1378 0
 1805 092c BB68     		ldr	r3, [r7, #8]
 1806 092e 022B     		cmp	r3, #2
 1807 0930 06D1     		bne	.L71
1379:../STM32F2xx_StdPeriph_Driver/src/stm32f2xx_usart.c ****   {
1380:../STM32F2xx_StdPeriph_Driver/src/stm32f2xx_usart.c ****     itmask &= USARTx->CR2;
 1808              		.loc 1 1380 0
 1809 0932 7B68     		ldr	r3, [r7, #4]
 1810 0934 1B8A     		ldrh	r3, [r3, #16]	@ movhi
 1811 0936 9BB2     		uxth	r3, r3
 1812 0938 7A69     		ldr	r2, [r7, #20]
 1813 093a 1340     		ands	r3, r3, r2
 1814 093c 7B61     		str	r3, [r7, #20]
 1815 093e 05E0     		b	.L70
 1816              	.L71:
1381:../STM32F2xx_StdPeriph_Driver/src/stm32f2xx_usart.c ****   }
1382:../STM32F2xx_StdPeriph_Driver/src/stm32f2xx_usart.c ****   else /* The IT  is in CR3 register */
1383:../STM32F2xx_StdPeriph_Driver/src/stm32f2xx_usart.c ****   {
1384:../STM32F2xx_StdPeriph_Driver/src/stm32f2xx_usart.c ****     itmask &= USARTx->CR3;
 1817              		.loc 1 1384 0
 1818 0940 7B68     		ldr	r3, [r7, #4]
 1819 0942 9B8A     		ldrh	r3, [r3, #20]	@ movhi
 1820 0944 9BB2     		uxth	r3, r3
 1821 0946 7A69     		ldr	r2, [r7, #20]
 1822 0948 1340     		ands	r3, r3, r2
 1823 094a 7B61     		str	r3, [r7, #20]
 1824              	.L70:
1385:../STM32F2xx_StdPeriph_Driver/src/stm32f2xx_usart.c ****   }
1386:../STM32F2xx_StdPeriph_Driver/src/stm32f2xx_usart.c ****   
1387:../STM32F2xx_StdPeriph_Driver/src/stm32f2xx_usart.c ****   bitpos = USART_IT >> 0x08;
 1825              		.loc 1 1387 0
 1826 094c 7B88     		ldrh	r3, [r7, #2]
 1827 094e 4FEA1323 		lsr	r3, r3, #8
 1828 0952 9BB2     		uxth	r3, r3
 1829 0954 FB60     		str	r3, [r7, #12]
1388:../STM32F2xx_StdPeriph_Driver/src/stm32f2xx_usart.c ****   bitpos = (uint32_t)0x01 << bitpos;
 1830              		.loc 1 1388 0
 1831 0956 FB68     		ldr	r3, [r7, #12]
 1832 0958 4FF00102 		mov	r2, #1
 1833 095c 02FA03F3 		lsl	r3, r2, r3
 1834 0960 FB60     		str	r3, [r7, #12]
1389:../STM32F2xx_StdPeriph_Driver/src/stm32f2xx_usart.c ****   bitpos &= USARTx->SR;
 1835              		.loc 1 1389 0
 1836 0962 7B68     		ldr	r3, [r7, #4]
 1837 0964 1B88     		ldrh	r3, [r3, #0]	@ movhi
 1838 0966 9BB2     		uxth	r3, r3
 1839 0968 FA68     		ldr	r2, [r7, #12]
 1840 096a 1340     		ands	r3, r3, r2
 1841 096c FB60     		str	r3, [r7, #12]
1390:../STM32F2xx_StdPeriph_Driver/src/stm32f2xx_usart.c ****   if ((itmask != (uint16_t)RESET)&&(bitpos != (uint16_t)RESET))
 1842              		.loc 1 1390 0
 1843 096e 7B69     		ldr	r3, [r7, #20]
 1844 0970 002B     		cmp	r3, #0
 1845 0972 06D0     		beq	.L72
 1846              		.loc 1 1390 0 is_stmt 0 discriminator 1
 1847 0974 FB68     		ldr	r3, [r7, #12]
 1848 0976 002B     		cmp	r3, #0
 1849 0978 03D0     		beq	.L72
1391:../STM32F2xx_StdPeriph_Driver/src/stm32f2xx_usart.c ****   {
1392:../STM32F2xx_StdPeriph_Driver/src/stm32f2xx_usart.c ****     bitstatus = SET;
 1850              		.loc 1 1392 0 is_stmt 1
 1851 097a 4FF00103 		mov	r3, #1
 1852 097e FB74     		strb	r3, [r7, #19]
 1853 0980 02E0     		b	.L73
 1854              	.L72:
1393:../STM32F2xx_StdPeriph_Driver/src/stm32f2xx_usart.c ****   }
1394:../STM32F2xx_StdPeriph_Driver/src/stm32f2xx_usart.c ****   else
1395:../STM32F2xx_StdPeriph_Driver/src/stm32f2xx_usart.c ****   {
1396:../STM32F2xx_StdPeriph_Driver/src/stm32f2xx_usart.c ****     bitstatus = RESET;
 1855              		.loc 1 1396 0
 1856 0982 4FF00003 		mov	r3, #0
 1857 0986 FB74     		strb	r3, [r7, #19]
 1858              	.L73:
1397:../STM32F2xx_StdPeriph_Driver/src/stm32f2xx_usart.c ****   }
1398:../STM32F2xx_StdPeriph_Driver/src/stm32f2xx_usart.c ****   
1399:../STM32F2xx_StdPeriph_Driver/src/stm32f2xx_usart.c ****   return bitstatus;  
 1859              		.loc 1 1399 0
 1860 0988 FB7C     		ldrb	r3, [r7, #19]	@ zero_extendqisi2
1400:../STM32F2xx_StdPeriph_Driver/src/stm32f2xx_usart.c **** }
 1861              		.loc 1 1400 0
 1862 098a 1846     		mov	r0, r3
 1863 098c 07F11C07 		add	r7, r7, #28
 1864 0990 BD46     		mov	sp, r7
 1865 0992 80BC     		pop	{r7}
 1866 0994 7047     		bx	lr
 1867              		.cfi_endproc
 1868              	.LFE56:
 1870 0996 00BF     		.align	2
 1871              		.global	USART_ClearITPendingBit
 1872              		.thumb
 1873              		.thumb_func
 1875              	USART_ClearITPendingBit:
 1876              	.LFB57:
1401:../STM32F2xx_StdPeriph_Driver/src/stm32f2xx_usart.c **** 
1402:../STM32F2xx_StdPeriph_Driver/src/stm32f2xx_usart.c **** /**
1403:../STM32F2xx_StdPeriph_Driver/src/stm32f2xx_usart.c ****   * @brief  Clears the USARTx's interrupt pending bits.
1404:../STM32F2xx_StdPeriph_Driver/src/stm32f2xx_usart.c ****   * @param  USARTx: where x can be 1, 2, 3, 4, 5 or 6 to select the USART or 
1405:../STM32F2xx_StdPeriph_Driver/src/stm32f2xx_usart.c ****   *         UART peripheral.
1406:../STM32F2xx_StdPeriph_Driver/src/stm32f2xx_usart.c ****   * @param  USART_IT: specifies the interrupt pending bit to clear.
1407:../STM32F2xx_StdPeriph_Driver/src/stm32f2xx_usart.c ****   *          This parameter can be one of the following values:
1408:../STM32F2xx_StdPeriph_Driver/src/stm32f2xx_usart.c ****   *            @arg USART_IT_CTS:  CTS change interrupt (not available for UART4 and UART5)
1409:../STM32F2xx_StdPeriph_Driver/src/stm32f2xx_usart.c ****   *            @arg USART_IT_LBD:  LIN Break detection interrupt
1410:../STM32F2xx_StdPeriph_Driver/src/stm32f2xx_usart.c ****   *            @arg USART_IT_TC:   Transmission complete interrupt. 
1411:../STM32F2xx_StdPeriph_Driver/src/stm32f2xx_usart.c ****   *            @arg USART_IT_RXNE: Receive Data register not empty interrupt.
1412:../STM32F2xx_StdPeriph_Driver/src/stm32f2xx_usart.c ****   *
1413:../STM32F2xx_StdPeriph_Driver/src/stm32f2xx_usart.c ****   * @note   PE (Parity error), FE (Framing error), NE (Noise error), ORE (OverRun 
1414:../STM32F2xx_StdPeriph_Driver/src/stm32f2xx_usart.c ****   *          error) and IDLE (Idle line detected) pending bits are cleared by 
1415:../STM32F2xx_StdPeriph_Driver/src/stm32f2xx_usart.c ****   *          software sequence: a read operation to USART_SR register 
1416:../STM32F2xx_StdPeriph_Driver/src/stm32f2xx_usart.c ****   *          (USART_GetITStatus()) followed by a read operation to USART_DR register 
1417:../STM32F2xx_StdPeriph_Driver/src/stm32f2xx_usart.c ****   *          (USART_ReceiveData()).
1418:../STM32F2xx_StdPeriph_Driver/src/stm32f2xx_usart.c ****   * @note   RXNE pending bit can be also cleared by a read to the USART_DR register 
1419:../STM32F2xx_StdPeriph_Driver/src/stm32f2xx_usart.c ****   *          (USART_ReceiveData()).
1420:../STM32F2xx_StdPeriph_Driver/src/stm32f2xx_usart.c ****   * @note   TC pending bit can be also cleared by software sequence: a read 
1421:../STM32F2xx_StdPeriph_Driver/src/stm32f2xx_usart.c ****   *          operation to USART_SR register (USART_GetITStatus()) followed by a write 
1422:../STM32F2xx_StdPeriph_Driver/src/stm32f2xx_usart.c ****   *          operation to USART_DR register (USART_SendData()).
1423:../STM32F2xx_StdPeriph_Driver/src/stm32f2xx_usart.c ****   * @note   TXE pending bit is cleared only by a write to the USART_DR register 
1424:../STM32F2xx_StdPeriph_Driver/src/stm32f2xx_usart.c ****   *          (USART_SendData()).
1425:../STM32F2xx_StdPeriph_Driver/src/stm32f2xx_usart.c ****   *  
1426:../STM32F2xx_StdPeriph_Driver/src/stm32f2xx_usart.c ****   * @retval None
1427:../STM32F2xx_StdPeriph_Driver/src/stm32f2xx_usart.c ****   */
1428:../STM32F2xx_StdPeriph_Driver/src/stm32f2xx_usart.c **** void USART_ClearITPendingBit(USART_TypeDef* USARTx, uint16_t USART_IT)
1429:../STM32F2xx_StdPeriph_Driver/src/stm32f2xx_usart.c **** {
 1877              		.loc 1 1429 0
 1878              		.cfi_startproc
 1879              		@ args = 0, pretend = 0, frame = 16
 1880              		@ frame_needed = 1, uses_anonymous_args = 0
 1881              		@ link register save eliminated.
 1882 0998 80B4     		push	{r7}
 1883              	.LCFI84:
 1884              		.cfi_def_cfa_offset 4
 1885              		.cfi_offset 7, -4
 1886 099a 85B0     		sub	sp, sp, #20
 1887              	.LCFI85:
 1888              		.cfi_def_cfa_offset 24
 1889 099c 00AF     		add	r7, sp, #0
 1890              	.LCFI86:
 1891              		.cfi_def_cfa_register 7
 1892 099e 7860     		str	r0, [r7, #4]
 1893 09a0 0B46     		mov	r3, r1
 1894 09a2 7B80     		strh	r3, [r7, #2]	@ movhi
1430:../STM32F2xx_StdPeriph_Driver/src/stm32f2xx_usart.c ****   uint16_t bitpos = 0x00, itmask = 0x00;
 1895              		.loc 1 1430 0
 1896 09a4 4FF00003 		mov	r3, #0
 1897 09a8 FB81     		strh	r3, [r7, #14]	@ movhi
 1898 09aa 4FF00003 		mov	r3, #0
 1899 09ae BB81     		strh	r3, [r7, #12]	@ movhi
1431:../STM32F2xx_StdPeriph_Driver/src/stm32f2xx_usart.c ****   /* Check the parameters */
1432:../STM32F2xx_StdPeriph_Driver/src/stm32f2xx_usart.c ****   assert_param(IS_USART_ALL_PERIPH(USARTx));
1433:../STM32F2xx_StdPeriph_Driver/src/stm32f2xx_usart.c ****   assert_param(IS_USART_CLEAR_IT(USART_IT)); 
1434:../STM32F2xx_StdPeriph_Driver/src/stm32f2xx_usart.c **** 
1435:../STM32F2xx_StdPeriph_Driver/src/stm32f2xx_usart.c ****   /* The CTS interrupt is not available for UART4 and UART5 */
1436:../STM32F2xx_StdPeriph_Driver/src/stm32f2xx_usart.c ****   if (USART_IT == USART_IT_CTS)
1437:../STM32F2xx_StdPeriph_Driver/src/stm32f2xx_usart.c ****   {
1438:../STM32F2xx_StdPeriph_Driver/src/stm32f2xx_usart.c ****     assert_param(IS_USART_1236_PERIPH(USARTx));
1439:../STM32F2xx_StdPeriph_Driver/src/stm32f2xx_usart.c ****   } 
1440:../STM32F2xx_StdPeriph_Driver/src/stm32f2xx_usart.c ****     
1441:../STM32F2xx_StdPeriph_Driver/src/stm32f2xx_usart.c ****   bitpos = USART_IT >> 0x08;
 1900              		.loc 1 1441 0
 1901 09b0 7B88     		ldrh	r3, [r7, #2]
 1902 09b2 4FEA1323 		lsr	r3, r3, #8
 1903 09b6 FB81     		strh	r3, [r7, #14]	@ movhi
1442:../STM32F2xx_StdPeriph_Driver/src/stm32f2xx_usart.c ****   itmask = ((uint16_t)0x01 << (uint16_t)bitpos);
 1904              		.loc 1 1442 0
 1905 09b8 FB89     		ldrh	r3, [r7, #14]
 1906 09ba 4FF00102 		mov	r2, #1
 1907 09be 02FA03F3 		lsl	r3, r2, r3
 1908 09c2 BB81     		strh	r3, [r7, #12]	@ movhi
1443:../STM32F2xx_StdPeriph_Driver/src/stm32f2xx_usart.c ****   USARTx->SR = (uint16_t)~itmask;
 1909              		.loc 1 1443 0
 1910 09c4 BB89     		ldrh	r3, [r7, #12]	@ movhi
 1911 09c6 6FEA0303 		mvn	r3, r3
 1912 09ca 9AB2     		uxth	r2, r3
 1913 09cc 7B68     		ldr	r3, [r7, #4]
 1914 09ce 1A80     		strh	r2, [r3, #0]	@ movhi
1444:../STM32F2xx_StdPeriph_Driver/src/stm32f2xx_usart.c **** }
 1915              		.loc 1 1444 0
 1916 09d0 07F11407 		add	r7, r7, #20
 1917 09d4 BD46     		mov	sp, r7
 1918 09d6 80BC     		pop	{r7}
 1919 09d8 7047     		bx	lr
 1920              		.cfi_endproc
 1921              	.LFE57:
 1923              	.Letext0:
 1924              		.file 2 "c:/cad/yagarto/lib/gcc/../../arm-none-eabi/sys-include/stdint.h"
 1925              		.file 3 "C:\\workspace\\te_stm32f207_simple\\system/stm32f2xx.h"
 1926              		.file 4 "C:\\workspace\\te_stm32f207_simple\\STM32F2xx_StdPeriph_Driver\\inc/stm32f2xx_rcc.h"
 1927              		.file 5 "C:\\workspace\\te_stm32f207_simple\\STM32F2xx_StdPeriph_Driver\\inc/stm32f2xx_usart.h"
 1928              		.file 6 "C:\\workspace\\te_stm32f207_simple\\system/core_cm3.h"