   1              		.syntax unified
   2              		.cpu cortex-m3
   3              		.fpu softvfp
   4              		.eabi_attribute 20, 1
   5              		.eabi_attribute 21, 1
   6              		.eabi_attribute 23, 3
   7              		.eabi_attribute 24, 1
   8              		.eabi_attribute 25, 1
   9              		.eabi_attribute 26, 1
  10              		.eabi_attribute 30, 6
  11              		.eabi_attribute 18, 4
  12              		.thumb
  13              		.file	"stm32f2xx_rng.c"
  14              		.text
  15              	.Ltext0:
  16              		.cfi_sections	.debug_frame
  17              		.align	2
  18              		.global	RNG_DeInit
  19              		.thumb
  20              		.thumb_func
  22              	RNG_DeInit:
  23              	.LFB29:
  24              		.file 1 "../STM32F2xx_StdPeriph_Driver/src/stm32f2xx_rng.c"
   1:../STM32F2xx_StdPeriph_Driver/src/stm32f2xx_rng.c **** /**
   2:../STM32F2xx_StdPeriph_Driver/src/stm32f2xx_rng.c ****   ******************************************************************************
   3:../STM32F2xx_StdPeriph_Driver/src/stm32f2xx_rng.c ****   * @file    stm32f2xx_rng.c
   4:../STM32F2xx_StdPeriph_Driver/src/stm32f2xx_rng.c ****   * @author  MCD Application Team
   5:../STM32F2xx_StdPeriph_Driver/src/stm32f2xx_rng.c ****   * @version V1.0.0
   6:../STM32F2xx_StdPeriph_Driver/src/stm32f2xx_rng.c ****   * @date    18-April-2011
   7:../STM32F2xx_StdPeriph_Driver/src/stm32f2xx_rng.c ****     * @brief This file provides firmware functions to manage the following 
   8:../STM32F2xx_StdPeriph_Driver/src/stm32f2xx_rng.c ****   *          functionalities of the Random Number Generator (RNG) peripheral:           
   9:../STM32F2xx_StdPeriph_Driver/src/stm32f2xx_rng.c ****   *           - Initialization and Configuration 
  10:../STM32F2xx_StdPeriph_Driver/src/stm32f2xx_rng.c ****   *           - Get 32 bit Random number      
  11:../STM32F2xx_StdPeriph_Driver/src/stm32f2xx_rng.c ****   *           - Interrupts and flags management       
  12:../STM32F2xx_StdPeriph_Driver/src/stm32f2xx_rng.c ****   *         
  13:../STM32F2xx_StdPeriph_Driver/src/stm32f2xx_rng.c ****   *  @verbatim
  14:../STM32F2xx_StdPeriph_Driver/src/stm32f2xx_rng.c ****   *                               
  15:../STM32F2xx_StdPeriph_Driver/src/stm32f2xx_rng.c ****   *          ===================================================================      
  16:../STM32F2xx_StdPeriph_Driver/src/stm32f2xx_rng.c ****   *                                   How to use this driver
  17:../STM32F2xx_StdPeriph_Driver/src/stm32f2xx_rng.c ****   *          ===================================================================          
  18:../STM32F2xx_StdPeriph_Driver/src/stm32f2xx_rng.c ****   *          1. Enable The RNG controller clock using 
  19:../STM32F2xx_StdPeriph_Driver/src/stm32f2xx_rng.c ****   *            RCC_AHB2PeriphClockCmd(RCC_AHB2Periph_RNG, ENABLE) function.
  20:../STM32F2xx_StdPeriph_Driver/src/stm32f2xx_rng.c ****   *              
  21:../STM32F2xx_StdPeriph_Driver/src/stm32f2xx_rng.c ****   *          2. Activate the RNG peripheral using RNG_Cmd() function.
  22:../STM32F2xx_StdPeriph_Driver/src/stm32f2xx_rng.c ****   *          
  23:../STM32F2xx_StdPeriph_Driver/src/stm32f2xx_rng.c ****   *          3. Wait until the 32 bit Random number Generator contains a valid 
  24:../STM32F2xx_StdPeriph_Driver/src/stm32f2xx_rng.c ****   *            random data (using polling/interrupt mode). For more details, 
  25:../STM32F2xx_StdPeriph_Driver/src/stm32f2xx_rng.c ****   *            refer to "Interrupts and flags management functions" module 
  26:../STM32F2xx_StdPeriph_Driver/src/stm32f2xx_rng.c ****   *            description.
  27:../STM32F2xx_StdPeriph_Driver/src/stm32f2xx_rng.c ****   *           
  28:../STM32F2xx_StdPeriph_Driver/src/stm32f2xx_rng.c ****   *          4. Get the 32 bit Random number using RNG_GetRandomNumber() function
  29:../STM32F2xx_StdPeriph_Driver/src/stm32f2xx_rng.c ****   *          
  30:../STM32F2xx_StdPeriph_Driver/src/stm32f2xx_rng.c ****   *          5. To get another 32 bit Random number, go to step 3.       
  31:../STM32F2xx_StdPeriph_Driver/src/stm32f2xx_rng.c ****   *
  32:../STM32F2xx_StdPeriph_Driver/src/stm32f2xx_rng.c ****   *         
  33:../STM32F2xx_StdPeriph_Driver/src/stm32f2xx_rng.c ****   *              
  34:../STM32F2xx_StdPeriph_Driver/src/stm32f2xx_rng.c ****   *  @endverbatim
  35:../STM32F2xx_StdPeriph_Driver/src/stm32f2xx_rng.c ****   *         
  36:../STM32F2xx_StdPeriph_Driver/src/stm32f2xx_rng.c ****   ******************************************************************************
  37:../STM32F2xx_StdPeriph_Driver/src/stm32f2xx_rng.c ****   * @attention
  38:../STM32F2xx_StdPeriph_Driver/src/stm32f2xx_rng.c ****   *
  39:../STM32F2xx_StdPeriph_Driver/src/stm32f2xx_rng.c ****   * THE PRESENT FIRMWARE WHICH IS FOR GUIDANCE ONLY AIMS AT PROVIDING CUSTOMERS
  40:../STM32F2xx_StdPeriph_Driver/src/stm32f2xx_rng.c ****   * WITH CODING INFORMATION REGARDING THEIR PRODUCTS IN ORDER FOR THEM TO SAVE
  41:../STM32F2xx_StdPeriph_Driver/src/stm32f2xx_rng.c ****   * TIME. AS A RESULT, STMICROELECTRONICS SHALL NOT BE HELD LIABLE FOR ANY
  42:../STM32F2xx_StdPeriph_Driver/src/stm32f2xx_rng.c ****   * DIRECT, INDIRECT OR CONSEQUENTIAL DAMAGES WITH RESPECT TO ANY CLAIMS ARISING
  43:../STM32F2xx_StdPeriph_Driver/src/stm32f2xx_rng.c ****   * FROM THE CONTENT OF SUCH FIRMWARE AND/OR THE USE MADE BY CUSTOMERS OF THE
  44:../STM32F2xx_StdPeriph_Driver/src/stm32f2xx_rng.c ****   * CODING INFORMATION CONTAINED HEREIN IN CONNECTION WITH THEIR PRODUCTS.
  45:../STM32F2xx_StdPeriph_Driver/src/stm32f2xx_rng.c ****   *
  46:../STM32F2xx_StdPeriph_Driver/src/stm32f2xx_rng.c ****   * <h2><center>&copy; COPYRIGHT 2011 STMicroelectronics</center></h2>
  47:../STM32F2xx_StdPeriph_Driver/src/stm32f2xx_rng.c ****   ******************************************************************************  
  48:../STM32F2xx_StdPeriph_Driver/src/stm32f2xx_rng.c ****   */
  49:../STM32F2xx_StdPeriph_Driver/src/stm32f2xx_rng.c **** 
  50:../STM32F2xx_StdPeriph_Driver/src/stm32f2xx_rng.c **** /* Includes ------------------------------------------------------------------*/
  51:../STM32F2xx_StdPeriph_Driver/src/stm32f2xx_rng.c **** #include "stm32f2xx_rng.h"
  52:../STM32F2xx_StdPeriph_Driver/src/stm32f2xx_rng.c **** #include "stm32f2xx_rcc.h"
  53:../STM32F2xx_StdPeriph_Driver/src/stm32f2xx_rng.c **** 
  54:../STM32F2xx_StdPeriph_Driver/src/stm32f2xx_rng.c **** /** @addtogroup STM32F2xx_StdPeriph_Driver
  55:../STM32F2xx_StdPeriph_Driver/src/stm32f2xx_rng.c ****   * @{
  56:../STM32F2xx_StdPeriph_Driver/src/stm32f2xx_rng.c ****   */
  57:../STM32F2xx_StdPeriph_Driver/src/stm32f2xx_rng.c **** 
  58:../STM32F2xx_StdPeriph_Driver/src/stm32f2xx_rng.c **** /** @defgroup RNG 
  59:../STM32F2xx_StdPeriph_Driver/src/stm32f2xx_rng.c ****   * @brief RNG driver modules
  60:../STM32F2xx_StdPeriph_Driver/src/stm32f2xx_rng.c ****   * @{
  61:../STM32F2xx_StdPeriph_Driver/src/stm32f2xx_rng.c ****   */ 
  62:../STM32F2xx_StdPeriph_Driver/src/stm32f2xx_rng.c **** 
  63:../STM32F2xx_StdPeriph_Driver/src/stm32f2xx_rng.c **** /* Private typedef -----------------------------------------------------------*/
  64:../STM32F2xx_StdPeriph_Driver/src/stm32f2xx_rng.c **** /* Private define ------------------------------------------------------------*/
  65:../STM32F2xx_StdPeriph_Driver/src/stm32f2xx_rng.c **** /* Private macro -------------------------------------------------------------*/
  66:../STM32F2xx_StdPeriph_Driver/src/stm32f2xx_rng.c **** /* Private variables ---------------------------------------------------------*/
  67:../STM32F2xx_StdPeriph_Driver/src/stm32f2xx_rng.c **** /* Private function prototypes -----------------------------------------------*/
  68:../STM32F2xx_StdPeriph_Driver/src/stm32f2xx_rng.c **** /* Private functions ---------------------------------------------------------*/
  69:../STM32F2xx_StdPeriph_Driver/src/stm32f2xx_rng.c **** 
  70:../STM32F2xx_StdPeriph_Driver/src/stm32f2xx_rng.c **** /** @defgroup RNG_Private_Functions
  71:../STM32F2xx_StdPeriph_Driver/src/stm32f2xx_rng.c ****   * @{
  72:../STM32F2xx_StdPeriph_Driver/src/stm32f2xx_rng.c ****   */ 
  73:../STM32F2xx_StdPeriph_Driver/src/stm32f2xx_rng.c **** 
  74:../STM32F2xx_StdPeriph_Driver/src/stm32f2xx_rng.c **** /** @defgroup RNG_Group1 Initialization and Configuration functions
  75:../STM32F2xx_StdPeriph_Driver/src/stm32f2xx_rng.c ****  *  @brief    Initialization and Configuration functions 
  76:../STM32F2xx_StdPeriph_Driver/src/stm32f2xx_rng.c ****  *
  77:../STM32F2xx_StdPeriph_Driver/src/stm32f2xx_rng.c **** @verbatim    
  78:../STM32F2xx_StdPeriph_Driver/src/stm32f2xx_rng.c ****  ===============================================================================
  79:../STM32F2xx_StdPeriph_Driver/src/stm32f2xx_rng.c ****                       Initialization and Configuration functions
  80:../STM32F2xx_StdPeriph_Driver/src/stm32f2xx_rng.c ****  ===============================================================================  
  81:../STM32F2xx_StdPeriph_Driver/src/stm32f2xx_rng.c ****   This section provides functions allowing to 
  82:../STM32F2xx_StdPeriph_Driver/src/stm32f2xx_rng.c ****    - Initialize the RNG peripheral
  83:../STM32F2xx_StdPeriph_Driver/src/stm32f2xx_rng.c ****    - Enable or disable the RNG peripheral
  84:../STM32F2xx_StdPeriph_Driver/src/stm32f2xx_rng.c ****    
  85:../STM32F2xx_StdPeriph_Driver/src/stm32f2xx_rng.c **** @endverbatim
  86:../STM32F2xx_StdPeriph_Driver/src/stm32f2xx_rng.c ****   * @{
  87:../STM32F2xx_StdPeriph_Driver/src/stm32f2xx_rng.c ****   */
  88:../STM32F2xx_StdPeriph_Driver/src/stm32f2xx_rng.c **** 
  89:../STM32F2xx_StdPeriph_Driver/src/stm32f2xx_rng.c **** /**
  90:../STM32F2xx_StdPeriph_Driver/src/stm32f2xx_rng.c ****   * @brief  Deinitializes the RNG peripheral registers to their default reset values.
  91:../STM32F2xx_StdPeriph_Driver/src/stm32f2xx_rng.c ****   * @param  None
  92:../STM32F2xx_StdPeriph_Driver/src/stm32f2xx_rng.c ****   * @retval None
  93:../STM32F2xx_StdPeriph_Driver/src/stm32f2xx_rng.c ****   */
  94:../STM32F2xx_StdPeriph_Driver/src/stm32f2xx_rng.c **** void RNG_DeInit(void)
  95:../STM32F2xx_StdPeriph_Driver/src/stm32f2xx_rng.c **** {
  25              		.loc 1 95 0
  26              		.cfi_startproc
  27              		@ args = 0, pretend = 0, frame = 0
  28              		@ frame_needed = 1, uses_anonymous_args = 0
  29 0000 80B5     		push	{r7, lr}
  30              	.LCFI0:
  31              		.cfi_def_cfa_offset 8
  32              		.cfi_offset 14, -4
  33              		.cfi_offset 7, -8
  34 0002 00AF     		add	r7, sp, #0
  35              	.LCFI1:
  36              		.cfi_def_cfa_register 7
  96:../STM32F2xx_StdPeriph_Driver/src/stm32f2xx_rng.c ****   /* Enable RNG reset state */
  97:../STM32F2xx_StdPeriph_Driver/src/stm32f2xx_rng.c ****   RCC_AHB2PeriphResetCmd(RCC_AHB2Periph_RNG, ENABLE);
  37              		.loc 1 97 0
  38 0004 4FF04000 		mov	r0, #64
  39 0008 4FF00101 		mov	r1, #1
  40 000c FFF7FEFF 		bl	RCC_AHB2PeriphResetCmd
  98:../STM32F2xx_StdPeriph_Driver/src/stm32f2xx_rng.c **** 
  99:../STM32F2xx_StdPeriph_Driver/src/stm32f2xx_rng.c ****   /* Release RNG from reset state */
 100:../STM32F2xx_StdPeriph_Driver/src/stm32f2xx_rng.c ****   RCC_AHB2PeriphResetCmd(RCC_AHB2Periph_RNG, DISABLE);
  41              		.loc 1 100 0
  42 0010 4FF04000 		mov	r0, #64
  43 0014 4FF00001 		mov	r1, #0
  44 0018 FFF7FEFF 		bl	RCC_AHB2PeriphResetCmd
 101:../STM32F2xx_StdPeriph_Driver/src/stm32f2xx_rng.c **** }
  45              		.loc 1 101 0
  46 001c 80BD     		pop	{r7, pc}
  47              		.cfi_endproc
  48              	.LFE29:
  50 001e 00BF     		.align	2
  51              		.global	RNG_Cmd
  52              		.thumb
  53              		.thumb_func
  55              	RNG_Cmd:
  56              	.LFB30:
 102:../STM32F2xx_StdPeriph_Driver/src/stm32f2xx_rng.c **** 
 103:../STM32F2xx_StdPeriph_Driver/src/stm32f2xx_rng.c **** /**
 104:../STM32F2xx_StdPeriph_Driver/src/stm32f2xx_rng.c ****   * @brief  Enables or disables the RNG peripheral.
 105:../STM32F2xx_StdPeriph_Driver/src/stm32f2xx_rng.c ****   * @param  NewState: new state of the RNG peripheral.
 106:../STM32F2xx_StdPeriph_Driver/src/stm32f2xx_rng.c ****   *          This parameter can be: ENABLE or DISABLE.
 107:../STM32F2xx_StdPeriph_Driver/src/stm32f2xx_rng.c ****   * @retval None
 108:../STM32F2xx_StdPeriph_Driver/src/stm32f2xx_rng.c ****   */
 109:../STM32F2xx_StdPeriph_Driver/src/stm32f2xx_rng.c **** void RNG_Cmd(FunctionalState NewState)
 110:../STM32F2xx_StdPeriph_Driver/src/stm32f2xx_rng.c **** {
  57              		.loc 1 110 0
  58              		.cfi_startproc
  59              		@ args = 0, pretend = 0, frame = 8
  60              		@ frame_needed = 1, uses_anonymous_args = 0
  61              		@ link register save eliminated.
  62 0020 80B4     		push	{r7}
  63              	.LCFI2:
  64              		.cfi_def_cfa_offset 4
  65              		.cfi_offset 7, -4
  66 0022 83B0     		sub	sp, sp, #12
  67              	.LCFI3:
  68              		.cfi_def_cfa_offset 16
  69 0024 00AF     		add	r7, sp, #0
  70              	.LCFI4:
  71              		.cfi_def_cfa_register 7
  72 0026 0346     		mov	r3, r0
  73 0028 FB71     		strb	r3, [r7, #7]
 111:../STM32F2xx_StdPeriph_Driver/src/stm32f2xx_rng.c ****   /* Check the parameters */
 112:../STM32F2xx_StdPeriph_Driver/src/stm32f2xx_rng.c ****   assert_param(IS_FUNCTIONAL_STATE(NewState));
 113:../STM32F2xx_StdPeriph_Driver/src/stm32f2xx_rng.c **** 
 114:../STM32F2xx_StdPeriph_Driver/src/stm32f2xx_rng.c ****   if (NewState != DISABLE)
  74              		.loc 1 114 0
  75 002a FB79     		ldrb	r3, [r7, #7]	@ zero_extendqisi2
  76 002c 002B     		cmp	r3, #0
  77 002e 0CD0     		beq	.L3
 115:../STM32F2xx_StdPeriph_Driver/src/stm32f2xx_rng.c ****   {
 116:../STM32F2xx_StdPeriph_Driver/src/stm32f2xx_rng.c ****     /* Enable the RNG */
 117:../STM32F2xx_StdPeriph_Driver/src/stm32f2xx_rng.c ****     RNG->CR |= RNG_CR_RNGEN;
  78              		.loc 1 117 0
  79 0030 4FF40063 		mov	r3, #2048
  80 0034 C5F20603 		movt	r3, 20486
  81 0038 4FF40062 		mov	r2, #2048
  82 003c C5F20602 		movt	r2, 20486
  83 0040 1268     		ldr	r2, [r2, #0]
  84 0042 42F00402 		orr	r2, r2, #4
  85 0046 1A60     		str	r2, [r3, #0]
  86 0048 0BE0     		b	.L2
  87              	.L3:
 118:../STM32F2xx_StdPeriph_Driver/src/stm32f2xx_rng.c ****   }
 119:../STM32F2xx_StdPeriph_Driver/src/stm32f2xx_rng.c ****   else
 120:../STM32F2xx_StdPeriph_Driver/src/stm32f2xx_rng.c ****   {
 121:../STM32F2xx_StdPeriph_Driver/src/stm32f2xx_rng.c ****     /* Disable the RNG */
 122:../STM32F2xx_StdPeriph_Driver/src/stm32f2xx_rng.c ****     RNG->CR &= ~RNG_CR_RNGEN;
  88              		.loc 1 122 0
  89 004a 4FF40063 		mov	r3, #2048
  90 004e C5F20603 		movt	r3, 20486
  91 0052 4FF40062 		mov	r2, #2048
  92 0056 C5F20602 		movt	r2, 20486
  93 005a 1268     		ldr	r2, [r2, #0]
  94 005c 22F00402 		bic	r2, r2, #4
  95 0060 1A60     		str	r2, [r3, #0]
  96              	.L2:
 123:../STM32F2xx_StdPeriph_Driver/src/stm32f2xx_rng.c ****   }
 124:../STM32F2xx_StdPeriph_Driver/src/stm32f2xx_rng.c **** }
  97              		.loc 1 124 0
  98 0062 07F10C07 		add	r7, r7, #12
  99 0066 BD46     		mov	sp, r7
 100 0068 80BC     		pop	{r7}
 101 006a 7047     		bx	lr
 102              		.cfi_endproc
 103              	.LFE30:
 105              		.align	2
 106              		.global	RNG_GetRandomNumber
 107              		.thumb
 108              		.thumb_func
 110              	RNG_GetRandomNumber:
 111              	.LFB31:
 125:../STM32F2xx_StdPeriph_Driver/src/stm32f2xx_rng.c **** /**
 126:../STM32F2xx_StdPeriph_Driver/src/stm32f2xx_rng.c ****   * @}
 127:../STM32F2xx_StdPeriph_Driver/src/stm32f2xx_rng.c ****   */
 128:../STM32F2xx_StdPeriph_Driver/src/stm32f2xx_rng.c **** 
 129:../STM32F2xx_StdPeriph_Driver/src/stm32f2xx_rng.c **** /** @defgroup RNG_Group2 Get 32 bit Random number function
 130:../STM32F2xx_StdPeriph_Driver/src/stm32f2xx_rng.c ****  *  @brief    Get 32 bit Random number function 
 131:../STM32F2xx_StdPeriph_Driver/src/stm32f2xx_rng.c ****  *
 132:../STM32F2xx_StdPeriph_Driver/src/stm32f2xx_rng.c **** 
 133:../STM32F2xx_StdPeriph_Driver/src/stm32f2xx_rng.c **** @verbatim    
 134:../STM32F2xx_StdPeriph_Driver/src/stm32f2xx_rng.c ****  ===============================================================================
 135:../STM32F2xx_StdPeriph_Driver/src/stm32f2xx_rng.c ****                       Get 32 bit Random number function
 136:../STM32F2xx_StdPeriph_Driver/src/stm32f2xx_rng.c ****  ===============================================================================  
 137:../STM32F2xx_StdPeriph_Driver/src/stm32f2xx_rng.c ****   This section provides a function allowing to get the 32 bit Random number  
 138:../STM32F2xx_StdPeriph_Driver/src/stm32f2xx_rng.c ****   
 139:../STM32F2xx_StdPeriph_Driver/src/stm32f2xx_rng.c ****   @note  Before to call this function you have to wait till DRDY flag is set,
 140:../STM32F2xx_StdPeriph_Driver/src/stm32f2xx_rng.c ****          using RNG_GetFlagStatus(RNG_FLAG_DRDY) function. 
 141:../STM32F2xx_StdPeriph_Driver/src/stm32f2xx_rng.c ****    
 142:../STM32F2xx_StdPeriph_Driver/src/stm32f2xx_rng.c **** @endverbatim
 143:../STM32F2xx_StdPeriph_Driver/src/stm32f2xx_rng.c ****   * @{
 144:../STM32F2xx_StdPeriph_Driver/src/stm32f2xx_rng.c ****   */
 145:../STM32F2xx_StdPeriph_Driver/src/stm32f2xx_rng.c **** 
 146:../STM32F2xx_StdPeriph_Driver/src/stm32f2xx_rng.c **** 
 147:../STM32F2xx_StdPeriph_Driver/src/stm32f2xx_rng.c **** /**
 148:../STM32F2xx_StdPeriph_Driver/src/stm32f2xx_rng.c ****   * @brief  Returns a 32-bit random number.
 149:../STM32F2xx_StdPeriph_Driver/src/stm32f2xx_rng.c ****   *   
 150:../STM32F2xx_StdPeriph_Driver/src/stm32f2xx_rng.c ****   * @note   Before to call this function you have to wait till DRDY (data ready)
 151:../STM32F2xx_StdPeriph_Driver/src/stm32f2xx_rng.c ****   *         flag is set, using RNG_GetFlagStatus(RNG_FLAG_DRDY) function.
 152:../STM32F2xx_StdPeriph_Driver/src/stm32f2xx_rng.c ****   * @note   Each time the the Random number data is read (using RNG_GetRandomNumber()
 153:../STM32F2xx_StdPeriph_Driver/src/stm32f2xx_rng.c ****   *         function), the RNG_FLAG_DRDY flag is automatically cleared.
 154:../STM32F2xx_StdPeriph_Driver/src/stm32f2xx_rng.c ****   * @note   In the case of a seed error, the generation of random numbers is 
 155:../STM32F2xx_StdPeriph_Driver/src/stm32f2xx_rng.c ****   *         interrupted for as long as the SECS bit is '1'. If a number is 
 156:../STM32F2xx_StdPeriph_Driver/src/stm32f2xx_rng.c ****   *         available in the RNG_DR register, it must not be used because it may 
 157:../STM32F2xx_StdPeriph_Driver/src/stm32f2xx_rng.c ****   *         not have enough entropy. In this case, it is recommended to clear the 
 158:../STM32F2xx_StdPeriph_Driver/src/stm32f2xx_rng.c ****   *         SEIS bit(using RNG_ClearFlag(RNG_FLAG_SECS) function), then disable 
 159:../STM32F2xx_StdPeriph_Driver/src/stm32f2xx_rng.c ****   *         and enable the RNG peripheral (using RNG_Cmd() function) to 
 160:../STM32F2xx_StdPeriph_Driver/src/stm32f2xx_rng.c ****   *         reinitialize and restart the RNG.
 161:../STM32F2xx_StdPeriph_Driver/src/stm32f2xx_rng.c ****   * @note   In the case of a clock error, the RNG is no more able to generate 
 162:../STM32F2xx_StdPeriph_Driver/src/stm32f2xx_rng.c ****   *         random numbers because the PLL48CLK clock is not correct. User have 
 163:../STM32F2xx_StdPeriph_Driver/src/stm32f2xx_rng.c ****   *         to check that the clock controller is correctly configured to provide
 164:../STM32F2xx_StdPeriph_Driver/src/stm32f2xx_rng.c ****   *         the RNG clock and clear the CEIS bit (using RNG_ClearFlag(RNG_FLAG_CECS) 
 165:../STM32F2xx_StdPeriph_Driver/src/stm32f2xx_rng.c ****   *         function) . The clock error has no impact on the previously generated 
 166:../STM32F2xx_StdPeriph_Driver/src/stm32f2xx_rng.c ****   *         random numbers, and the RNG_DR register contents can be used.
 167:../STM32F2xx_StdPeriph_Driver/src/stm32f2xx_rng.c ****   *         
 168:../STM32F2xx_StdPeriph_Driver/src/stm32f2xx_rng.c ****   * @param  None
 169:../STM32F2xx_StdPeriph_Driver/src/stm32f2xx_rng.c ****   * @retval 32-bit random number.
 170:../STM32F2xx_StdPeriph_Driver/src/stm32f2xx_rng.c ****   */
 171:../STM32F2xx_StdPeriph_Driver/src/stm32f2xx_rng.c **** uint32_t RNG_GetRandomNumber(void)
 172:../STM32F2xx_StdPeriph_Driver/src/stm32f2xx_rng.c **** {
 112              		.loc 1 172 0
 113              		.cfi_startproc
 114              		@ args = 0, pretend = 0, frame = 0
 115              		@ frame_needed = 1, uses_anonymous_args = 0
 116              		@ link register save eliminated.
 117 006c 80B4     		push	{r7}
 118              	.LCFI5:
 119              		.cfi_def_cfa_offset 4
 120              		.cfi_offset 7, -4
 121 006e 00AF     		add	r7, sp, #0
 122              	.LCFI6:
 123              		.cfi_def_cfa_register 7
 173:../STM32F2xx_StdPeriph_Driver/src/stm32f2xx_rng.c ****   /* Return the 32 bit random number from the DR register */
 174:../STM32F2xx_StdPeriph_Driver/src/stm32f2xx_rng.c ****   return RNG->DR;
 124              		.loc 1 174 0
 125 0070 4FF40063 		mov	r3, #2048
 126 0074 C5F20603 		movt	r3, 20486
 127 0078 9B68     		ldr	r3, [r3, #8]
 175:../STM32F2xx_StdPeriph_Driver/src/stm32f2xx_rng.c **** }
 128              		.loc 1 175 0
 129 007a 1846     		mov	r0, r3
 130 007c BD46     		mov	sp, r7
 131 007e 80BC     		pop	{r7}
 132 0080 7047     		bx	lr
 133              		.cfi_endproc
 134              	.LFE31:
 136 0082 00BF     		.align	2
 137              		.global	RNG_ITConfig
 138              		.thumb
 139              		.thumb_func
 141              	RNG_ITConfig:
 142              	.LFB32:
 176:../STM32F2xx_StdPeriph_Driver/src/stm32f2xx_rng.c **** 
 177:../STM32F2xx_StdPeriph_Driver/src/stm32f2xx_rng.c **** 
 178:../STM32F2xx_StdPeriph_Driver/src/stm32f2xx_rng.c **** /**
 179:../STM32F2xx_StdPeriph_Driver/src/stm32f2xx_rng.c ****   * @}
 180:../STM32F2xx_StdPeriph_Driver/src/stm32f2xx_rng.c ****   */
 181:../STM32F2xx_StdPeriph_Driver/src/stm32f2xx_rng.c **** 
 182:../STM32F2xx_StdPeriph_Driver/src/stm32f2xx_rng.c **** /** @defgroup RNG_Group3 Interrupts and flags management functions
 183:../STM32F2xx_StdPeriph_Driver/src/stm32f2xx_rng.c ****  *  @brief   Interrupts and flags management functions
 184:../STM32F2xx_StdPeriph_Driver/src/stm32f2xx_rng.c ****  *
 185:../STM32F2xx_StdPeriph_Driver/src/stm32f2xx_rng.c **** @verbatim   
 186:../STM32F2xx_StdPeriph_Driver/src/stm32f2xx_rng.c ****  ===============================================================================
 187:../STM32F2xx_StdPeriph_Driver/src/stm32f2xx_rng.c ****                    Interrupts and flags management functions
 188:../STM32F2xx_StdPeriph_Driver/src/stm32f2xx_rng.c ****  ===============================================================================  
 189:../STM32F2xx_StdPeriph_Driver/src/stm32f2xx_rng.c **** 
 190:../STM32F2xx_StdPeriph_Driver/src/stm32f2xx_rng.c ****   This section provides functions allowing to configure the RNG Interrupts and 
 191:../STM32F2xx_StdPeriph_Driver/src/stm32f2xx_rng.c ****   to get the status and clear flags and Interrupts pending bits.
 192:../STM32F2xx_StdPeriph_Driver/src/stm32f2xx_rng.c ****   
 193:../STM32F2xx_StdPeriph_Driver/src/stm32f2xx_rng.c ****   The RNG provides 3 Interrupts sources and 3 Flags:
 194:../STM32F2xx_StdPeriph_Driver/src/stm32f2xx_rng.c ****   
 195:../STM32F2xx_StdPeriph_Driver/src/stm32f2xx_rng.c ****   Flags :
 196:../STM32F2xx_StdPeriph_Driver/src/stm32f2xx_rng.c ****   ---------- 
 197:../STM32F2xx_StdPeriph_Driver/src/stm32f2xx_rng.c ****      1. RNG_FLAG_DRDY :  In the case of the RNG_DR register contains valid 
 198:../STM32F2xx_StdPeriph_Driver/src/stm32f2xx_rng.c ****                          random data. it is cleared by reading the valid data 
 199:../STM32F2xx_StdPeriph_Driver/src/stm32f2xx_rng.c ****                          (using RNG_GetRandomNumber() function).
 200:../STM32F2xx_StdPeriph_Driver/src/stm32f2xx_rng.c **** 
 201:../STM32F2xx_StdPeriph_Driver/src/stm32f2xx_rng.c ****      2. RNG_FLAG_CECS : In the case of a seed error detection. 
 202:../STM32F2xx_StdPeriph_Driver/src/stm32f2xx_rng.c ****       
 203:../STM32F2xx_StdPeriph_Driver/src/stm32f2xx_rng.c ****      3. RNG_FLAG_SECS : In the case of a clock error detection.
 204:../STM32F2xx_StdPeriph_Driver/src/stm32f2xx_rng.c ****               
 205:../STM32F2xx_StdPeriph_Driver/src/stm32f2xx_rng.c **** 
 206:../STM32F2xx_StdPeriph_Driver/src/stm32f2xx_rng.c ****   Interrupts :
 207:../STM32F2xx_StdPeriph_Driver/src/stm32f2xx_rng.c ****   ------------
 208:../STM32F2xx_StdPeriph_Driver/src/stm32f2xx_rng.c ****    if enabled, an RNG interrupt is pending :
 209:../STM32F2xx_StdPeriph_Driver/src/stm32f2xx_rng.c ****     
 210:../STM32F2xx_StdPeriph_Driver/src/stm32f2xx_rng.c ****    1.  In the case of the RNG_DR register contains valid random data. 
 211:../STM32F2xx_StdPeriph_Driver/src/stm32f2xx_rng.c ****        This interrupt source is cleared once the RNG_DR register has been read 
 212:../STM32F2xx_StdPeriph_Driver/src/stm32f2xx_rng.c ****        (using RNG_GetRandomNumber() function) until a new valid value is 
 213:../STM32F2xx_StdPeriph_Driver/src/stm32f2xx_rng.c ****        computed. 
 214:../STM32F2xx_StdPeriph_Driver/src/stm32f2xx_rng.c ****    
 215:../STM32F2xx_StdPeriph_Driver/src/stm32f2xx_rng.c ****    or 
 216:../STM32F2xx_StdPeriph_Driver/src/stm32f2xx_rng.c ****    2. In the case of a seed error : One of the following faulty sequences has 
 217:../STM32F2xx_StdPeriph_Driver/src/stm32f2xx_rng.c ****       been detected:
 218:../STM32F2xx_StdPeriph_Driver/src/stm32f2xx_rng.c ****       - More than 64 consecutive bits at the same value (0 or 1)
 219:../STM32F2xx_StdPeriph_Driver/src/stm32f2xx_rng.c ****       - More than 32 consecutive alternance of 0 and 1 (0101010101...01)
 220:../STM32F2xx_StdPeriph_Driver/src/stm32f2xx_rng.c ****       This interrupt source is cleared using RNG_ClearITPendingBit(RNG_IT_SEI)
 221:../STM32F2xx_StdPeriph_Driver/src/stm32f2xx_rng.c ****       function.
 222:../STM32F2xx_StdPeriph_Driver/src/stm32f2xx_rng.c ****    
 223:../STM32F2xx_StdPeriph_Driver/src/stm32f2xx_rng.c ****    or
 224:../STM32F2xx_StdPeriph_Driver/src/stm32f2xx_rng.c ****    3. In the case of a clock error : the PLL48CLK (RNG peripheral clock source) 
 225:../STM32F2xx_StdPeriph_Driver/src/stm32f2xx_rng.c ****       was not correctly detected (fPLL48CLK< fHCLK/16).
 226:../STM32F2xx_StdPeriph_Driver/src/stm32f2xx_rng.c ****       This interrupt source is cleared using RNG_ClearITPendingBit(RNG_IT_CEI)
 227:../STM32F2xx_StdPeriph_Driver/src/stm32f2xx_rng.c ****       function.
 228:../STM32F2xx_StdPeriph_Driver/src/stm32f2xx_rng.c ****       @note In this case, User have to check that the clock controller is 
 229:../STM32F2xx_StdPeriph_Driver/src/stm32f2xx_rng.c ****             correctly configured to provide the RNG clock. 
 230:../STM32F2xx_StdPeriph_Driver/src/stm32f2xx_rng.c **** 
 231:../STM32F2xx_StdPeriph_Driver/src/stm32f2xx_rng.c ****   Managing the RNG controller events :
 232:../STM32F2xx_StdPeriph_Driver/src/stm32f2xx_rng.c ****   ------------------------------------ 
 233:../STM32F2xx_StdPeriph_Driver/src/stm32f2xx_rng.c ****   The user should identify which mode will be used in his application to manage 
 234:../STM32F2xx_StdPeriph_Driver/src/stm32f2xx_rng.c ****   the RNG controller events: Polling mode or Interrupt mode.
 235:../STM32F2xx_StdPeriph_Driver/src/stm32f2xx_rng.c ****   
 236:../STM32F2xx_StdPeriph_Driver/src/stm32f2xx_rng.c ****   1.  In the Polling Mode it is advised to use the following functions:
 237:../STM32F2xx_StdPeriph_Driver/src/stm32f2xx_rng.c ****       - RNG_GetFlagStatus() : to check if flags events occur. 
 238:../STM32F2xx_StdPeriph_Driver/src/stm32f2xx_rng.c ****       - RNG_ClearFlag()     : to clear the flags events.
 239:../STM32F2xx_StdPeriph_Driver/src/stm32f2xx_rng.c ****   
 240:../STM32F2xx_StdPeriph_Driver/src/stm32f2xx_rng.c ****   @note RNG_FLAG_DRDY can not be cleared by RNG_ClearFlag(). it is cleared only 
 241:../STM32F2xx_StdPeriph_Driver/src/stm32f2xx_rng.c ****         by reading the Random number data.      
 242:../STM32F2xx_StdPeriph_Driver/src/stm32f2xx_rng.c ****   
 243:../STM32F2xx_StdPeriph_Driver/src/stm32f2xx_rng.c ****   2.  In the Interrupt Mode it is advised to use the following functions:
 244:../STM32F2xx_StdPeriph_Driver/src/stm32f2xx_rng.c ****       - RNG_ITConfig()       : to enable or disable the interrupt source.
 245:../STM32F2xx_StdPeriph_Driver/src/stm32f2xx_rng.c ****       - RNG_GetITStatus()    : to check if Interrupt occurs.
 246:../STM32F2xx_StdPeriph_Driver/src/stm32f2xx_rng.c ****       - RNG_ClearITPendingBit() : to clear the Interrupt pending Bit 
 247:../STM32F2xx_StdPeriph_Driver/src/stm32f2xx_rng.c ****                                 (corresponding Flag). 
 248:../STM32F2xx_StdPeriph_Driver/src/stm32f2xx_rng.c ****   
 249:../STM32F2xx_StdPeriph_Driver/src/stm32f2xx_rng.c **** 
 250:../STM32F2xx_StdPeriph_Driver/src/stm32f2xx_rng.c **** @endverbatim
 251:../STM32F2xx_StdPeriph_Driver/src/stm32f2xx_rng.c ****   * @{
 252:../STM32F2xx_StdPeriph_Driver/src/stm32f2xx_rng.c ****   */ 
 253:../STM32F2xx_StdPeriph_Driver/src/stm32f2xx_rng.c **** 
 254:../STM32F2xx_StdPeriph_Driver/src/stm32f2xx_rng.c **** /**
 255:../STM32F2xx_StdPeriph_Driver/src/stm32f2xx_rng.c ****   * @brief  Enables or disables the RNG interrupt.
 256:../STM32F2xx_StdPeriph_Driver/src/stm32f2xx_rng.c ****   * @note   The RNG provides 3 interrupt sources,
 257:../STM32F2xx_StdPeriph_Driver/src/stm32f2xx_rng.c ****   *           - Computed data is ready event (DRDY), and           
 258:../STM32F2xx_StdPeriph_Driver/src/stm32f2xx_rng.c ****   *           - Seed error Interrupt (SEI) and 
 259:../STM32F2xx_StdPeriph_Driver/src/stm32f2xx_rng.c ****   *           - Clock error Interrupt (CEI), 
 260:../STM32F2xx_StdPeriph_Driver/src/stm32f2xx_rng.c ****   *         all these interrupts sources are enabled by setting the IE bit in 
 261:../STM32F2xx_StdPeriph_Driver/src/stm32f2xx_rng.c ****   *         CR register. However, each interrupt have its specific status bit
 262:../STM32F2xx_StdPeriph_Driver/src/stm32f2xx_rng.c ****   *         (see RNG_GetITStatus() function) and clear bit except the DRDY event
 263:../STM32F2xx_StdPeriph_Driver/src/stm32f2xx_rng.c ****   *         (see RNG_ClearITPendingBit() function).
 264:../STM32F2xx_StdPeriph_Driver/src/stm32f2xx_rng.c ****   * @param  NewState: new state of the RNG interrupt.
 265:../STM32F2xx_StdPeriph_Driver/src/stm32f2xx_rng.c ****   *          This parameter can be: ENABLE or DISABLE.
 266:../STM32F2xx_StdPeriph_Driver/src/stm32f2xx_rng.c ****   * @retval None
 267:../STM32F2xx_StdPeriph_Driver/src/stm32f2xx_rng.c ****   */
 268:../STM32F2xx_StdPeriph_Driver/src/stm32f2xx_rng.c **** void RNG_ITConfig(FunctionalState NewState)
 269:../STM32F2xx_StdPeriph_Driver/src/stm32f2xx_rng.c **** {
 143              		.loc 1 269 0
 144              		.cfi_startproc
 145              		@ args = 0, pretend = 0, frame = 8
 146              		@ frame_needed = 1, uses_anonymous_args = 0
 147              		@ link register save eliminated.
 148 0084 80B4     		push	{r7}
 149              	.LCFI7:
 150              		.cfi_def_cfa_offset 4
 151              		.cfi_offset 7, -4
 152 0086 83B0     		sub	sp, sp, #12
 153              	.LCFI8:
 154              		.cfi_def_cfa_offset 16
 155 0088 00AF     		add	r7, sp, #0
 156              	.LCFI9:
 157              		.cfi_def_cfa_register 7
 158 008a 0346     		mov	r3, r0
 159 008c FB71     		strb	r3, [r7, #7]
 270:../STM32F2xx_StdPeriph_Driver/src/stm32f2xx_rng.c ****   /* Check the parameters */
 271:../STM32F2xx_StdPeriph_Driver/src/stm32f2xx_rng.c ****   assert_param(IS_FUNCTIONAL_STATE(NewState));
 272:../STM32F2xx_StdPeriph_Driver/src/stm32f2xx_rng.c **** 
 273:../STM32F2xx_StdPeriph_Driver/src/stm32f2xx_rng.c ****   if (NewState != DISABLE)
 160              		.loc 1 273 0
 161 008e FB79     		ldrb	r3, [r7, #7]	@ zero_extendqisi2
 162 0090 002B     		cmp	r3, #0
 163 0092 0CD0     		beq	.L7
 274:../STM32F2xx_StdPeriph_Driver/src/stm32f2xx_rng.c ****   {
 275:../STM32F2xx_StdPeriph_Driver/src/stm32f2xx_rng.c ****     /* Enable the RNG interrupt */
 276:../STM32F2xx_StdPeriph_Driver/src/stm32f2xx_rng.c ****     RNG->CR |= RNG_CR_IE;
 164              		.loc 1 276 0
 165 0094 4FF40063 		mov	r3, #2048
 166 0098 C5F20603 		movt	r3, 20486
 167 009c 4FF40062 		mov	r2, #2048
 168 00a0 C5F20602 		movt	r2, 20486
 169 00a4 1268     		ldr	r2, [r2, #0]
 170 00a6 42F00802 		orr	r2, r2, #8
 171 00aa 1A60     		str	r2, [r3, #0]
 172 00ac 0BE0     		b	.L6
 173              	.L7:
 277:../STM32F2xx_StdPeriph_Driver/src/stm32f2xx_rng.c ****   }
 278:../STM32F2xx_StdPeriph_Driver/src/stm32f2xx_rng.c ****   else
 279:../STM32F2xx_StdPeriph_Driver/src/stm32f2xx_rng.c ****   {
 280:../STM32F2xx_StdPeriph_Driver/src/stm32f2xx_rng.c ****     /* Disable the RNG interrupt */
 281:../STM32F2xx_StdPeriph_Driver/src/stm32f2xx_rng.c ****     RNG->CR &= ~RNG_CR_IE;
 174              		.loc 1 281 0
 175 00ae 4FF40063 		mov	r3, #2048
 176 00b2 C5F20603 		movt	r3, 20486
 177 00b6 4FF40062 		mov	r2, #2048
 178 00ba C5F20602 		movt	r2, 20486
 179 00be 1268     		ldr	r2, [r2, #0]
 180 00c0 22F00802 		bic	r2, r2, #8
 181 00c4 1A60     		str	r2, [r3, #0]
 182              	.L6:
 282:../STM32F2xx_StdPeriph_Driver/src/stm32f2xx_rng.c ****   }
 283:../STM32F2xx_StdPeriph_Driver/src/stm32f2xx_rng.c **** }
 183              		.loc 1 283 0
 184 00c6 07F10C07 		add	r7, r7, #12
 185 00ca BD46     		mov	sp, r7
 186 00cc 80BC     		pop	{r7}
 187 00ce 7047     		bx	lr
 188              		.cfi_endproc
 189              	.LFE32:
 191              		.align	2
 192              		.global	RNG_GetFlagStatus
 193              		.thumb
 194              		.thumb_func
 196              	RNG_GetFlagStatus:
 197              	.LFB33:
 284:../STM32F2xx_StdPeriph_Driver/src/stm32f2xx_rng.c **** 
 285:../STM32F2xx_StdPeriph_Driver/src/stm32f2xx_rng.c **** /**
 286:../STM32F2xx_StdPeriph_Driver/src/stm32f2xx_rng.c ****   * @brief  Checks whether the specified RNG flag is set or not.
 287:../STM32F2xx_StdPeriph_Driver/src/stm32f2xx_rng.c ****   * @param  RNG_FLAG: specifies the RNG flag to check.
 288:../STM32F2xx_StdPeriph_Driver/src/stm32f2xx_rng.c ****   *          This parameter can be one of the following values:
 289:../STM32F2xx_StdPeriph_Driver/src/stm32f2xx_rng.c ****   *            @arg RNG_FLAG_DRDY: Data Ready flag.
 290:../STM32F2xx_StdPeriph_Driver/src/stm32f2xx_rng.c ****   *            @arg RNG_FLAG_CECS: Clock Error Current flag.
 291:../STM32F2xx_StdPeriph_Driver/src/stm32f2xx_rng.c ****   *            @arg RNG_FLAG_SECS: Seed Error Current flag.
 292:../STM32F2xx_StdPeriph_Driver/src/stm32f2xx_rng.c ****   * @retval The new state of RNG_FLAG (SET or RESET).
 293:../STM32F2xx_StdPeriph_Driver/src/stm32f2xx_rng.c ****   */
 294:../STM32F2xx_StdPeriph_Driver/src/stm32f2xx_rng.c **** FlagStatus RNG_GetFlagStatus(uint8_t RNG_FLAG)
 295:../STM32F2xx_StdPeriph_Driver/src/stm32f2xx_rng.c **** {
 198              		.loc 1 295 0
 199              		.cfi_startproc
 200              		@ args = 0, pretend = 0, frame = 16
 201              		@ frame_needed = 1, uses_anonymous_args = 0
 202              		@ link register save eliminated.
 203 00d0 80B4     		push	{r7}
 204              	.LCFI10:
 205              		.cfi_def_cfa_offset 4
 206              		.cfi_offset 7, -4
 207 00d2 85B0     		sub	sp, sp, #20
 208              	.LCFI11:
 209              		.cfi_def_cfa_offset 24
 210 00d4 00AF     		add	r7, sp, #0
 211              	.LCFI12:
 212              		.cfi_def_cfa_register 7
 213 00d6 0346     		mov	r3, r0
 214 00d8 FB71     		strb	r3, [r7, #7]
 296:../STM32F2xx_StdPeriph_Driver/src/stm32f2xx_rng.c ****   FlagStatus bitstatus = RESET;
 215              		.loc 1 296 0
 216 00da 4FF00003 		mov	r3, #0
 217 00de FB73     		strb	r3, [r7, #15]
 297:../STM32F2xx_StdPeriph_Driver/src/stm32f2xx_rng.c ****   /* Check the parameters */
 298:../STM32F2xx_StdPeriph_Driver/src/stm32f2xx_rng.c ****   assert_param(IS_RNG_GET_FLAG(RNG_FLAG));
 299:../STM32F2xx_StdPeriph_Driver/src/stm32f2xx_rng.c **** 
 300:../STM32F2xx_StdPeriph_Driver/src/stm32f2xx_rng.c ****   /* Check the status of the specified RNG flag */
 301:../STM32F2xx_StdPeriph_Driver/src/stm32f2xx_rng.c ****   if ((RNG->SR & RNG_FLAG) != (uint8_t)RESET)
 218              		.loc 1 301 0
 219 00e0 4FF40063 		mov	r3, #2048
 220 00e4 C5F20603 		movt	r3, 20486
 221 00e8 5B68     		ldr	r3, [r3, #4]
 222 00ea 1A46     		mov	r2, r3
 223 00ec FB79     		ldrb	r3, [r7, #7]	@ zero_extendqisi2
 224 00ee 1340     		ands	r3, r3, r2
 225 00f0 002B     		cmp	r3, #0
 226 00f2 03D0     		beq	.L10
 302:../STM32F2xx_StdPeriph_Driver/src/stm32f2xx_rng.c ****   {
 303:../STM32F2xx_StdPeriph_Driver/src/stm32f2xx_rng.c ****     /* RNG_FLAG is set */
 304:../STM32F2xx_StdPeriph_Driver/src/stm32f2xx_rng.c ****     bitstatus = SET;
 227              		.loc 1 304 0
 228 00f4 4FF00103 		mov	r3, #1
 229 00f8 FB73     		strb	r3, [r7, #15]
 230 00fa 02E0     		b	.L11
 231              	.L10:
 305:../STM32F2xx_StdPeriph_Driver/src/stm32f2xx_rng.c ****   }
 306:../STM32F2xx_StdPeriph_Driver/src/stm32f2xx_rng.c ****   else
 307:../STM32F2xx_StdPeriph_Driver/src/stm32f2xx_rng.c ****   {
 308:../STM32F2xx_StdPeriph_Driver/src/stm32f2xx_rng.c ****     /* RNG_FLAG is reset */
 309:../STM32F2xx_StdPeriph_Driver/src/stm32f2xx_rng.c ****     bitstatus = RESET;
 232              		.loc 1 309 0
 233 00fc 4FF00003 		mov	r3, #0
 234 0100 FB73     		strb	r3, [r7, #15]
 235              	.L11:
 310:../STM32F2xx_StdPeriph_Driver/src/stm32f2xx_rng.c ****   }
 311:../STM32F2xx_StdPeriph_Driver/src/stm32f2xx_rng.c ****   /* Return the RNG_FLAG status */
 312:../STM32F2xx_StdPeriph_Driver/src/stm32f2xx_rng.c ****   return  bitstatus;
 236              		.loc 1 312 0
 237 0102 FB7B     		ldrb	r3, [r7, #15]	@ zero_extendqisi2
 313:../STM32F2xx_StdPeriph_Driver/src/stm32f2xx_rng.c **** }
 238              		.loc 1 313 0
 239 0104 1846     		mov	r0, r3
 240 0106 07F11407 		add	r7, r7, #20
 241 010a BD46     		mov	sp, r7
 242 010c 80BC     		pop	{r7}
 243 010e 7047     		bx	lr
 244              		.cfi_endproc
 245              	.LFE33:
 247              		.align	2
 248              		.global	RNG_ClearFlag
 249              		.thumb
 250              		.thumb_func
 252              	RNG_ClearFlag:
 253              	.LFB34:
 314:../STM32F2xx_StdPeriph_Driver/src/stm32f2xx_rng.c **** 
 315:../STM32F2xx_StdPeriph_Driver/src/stm32f2xx_rng.c **** 
 316:../STM32F2xx_StdPeriph_Driver/src/stm32f2xx_rng.c **** /**
 317:../STM32F2xx_StdPeriph_Driver/src/stm32f2xx_rng.c ****   * @brief  Clears the RNG flags.
 318:../STM32F2xx_StdPeriph_Driver/src/stm32f2xx_rng.c ****   * @param  RNG_FLAG: specifies the flag to clear. 
 319:../STM32F2xx_StdPeriph_Driver/src/stm32f2xx_rng.c ****   *          This parameter can be any combination of the following values:
 320:../STM32F2xx_StdPeriph_Driver/src/stm32f2xx_rng.c ****   *            @arg RNG_FLAG_CECS: Clock Error Current flag.
 321:../STM32F2xx_StdPeriph_Driver/src/stm32f2xx_rng.c ****   *            @arg RNG_FLAG_SECS: Seed Error Current flag.
 322:../STM32F2xx_StdPeriph_Driver/src/stm32f2xx_rng.c ****   * @note   RNG_FLAG_DRDY can not be cleared by RNG_ClearFlag() function. 
 323:../STM32F2xx_StdPeriph_Driver/src/stm32f2xx_rng.c ****   *         This flag is cleared only by reading the Random number data (using 
 324:../STM32F2xx_StdPeriph_Driver/src/stm32f2xx_rng.c ****   *         RNG_GetRandomNumber() function).                           
 325:../STM32F2xx_StdPeriph_Driver/src/stm32f2xx_rng.c ****   * @retval None
 326:../STM32F2xx_StdPeriph_Driver/src/stm32f2xx_rng.c ****   */
 327:../STM32F2xx_StdPeriph_Driver/src/stm32f2xx_rng.c **** void RNG_ClearFlag(uint8_t RNG_FLAG)
 328:../STM32F2xx_StdPeriph_Driver/src/stm32f2xx_rng.c **** {
 254              		.loc 1 328 0
 255              		.cfi_startproc
 256              		@ args = 0, pretend = 0, frame = 8
 257              		@ frame_needed = 1, uses_anonymous_args = 0
 258              		@ link register save eliminated.
 259 0110 80B4     		push	{r7}
 260              	.LCFI13:
 261              		.cfi_def_cfa_offset 4
 262              		.cfi_offset 7, -4
 263 0112 83B0     		sub	sp, sp, #12
 264              	.LCFI14:
 265              		.cfi_def_cfa_offset 16
 266 0114 00AF     		add	r7, sp, #0
 267              	.LCFI15:
 268              		.cfi_def_cfa_register 7
 269 0116 0346     		mov	r3, r0
 270 0118 FB71     		strb	r3, [r7, #7]
 329:../STM32F2xx_StdPeriph_Driver/src/stm32f2xx_rng.c ****   /* Check the parameters */
 330:../STM32F2xx_StdPeriph_Driver/src/stm32f2xx_rng.c ****   assert_param(IS_RNG_CLEAR_FLAG(RNG_FLAG));
 331:../STM32F2xx_StdPeriph_Driver/src/stm32f2xx_rng.c ****   /* Clear the selected RNG flags */
 332:../STM32F2xx_StdPeriph_Driver/src/stm32f2xx_rng.c ****   RNG->SR = ~(uint32_t)(((uint32_t)RNG_FLAG) << 4);
 271              		.loc 1 332 0
 272 011a 4FF40063 		mov	r3, #2048
 273 011e C5F20603 		movt	r3, 20486
 274 0122 FA79     		ldrb	r2, [r7, #7]	@ zero_extendqisi2
 275 0124 4FEA0212 		lsl	r2, r2, #4
 276 0128 6FEA0202 		mvn	r2, r2
 277 012c 5A60     		str	r2, [r3, #4]
 333:../STM32F2xx_StdPeriph_Driver/src/stm32f2xx_rng.c **** }
 278              		.loc 1 333 0
 279 012e 07F10C07 		add	r7, r7, #12
 280 0132 BD46     		mov	sp, r7
 281 0134 80BC     		pop	{r7}
 282 0136 7047     		bx	lr
 283              		.cfi_endproc
 284              	.LFE34:
 286              		.align	2
 287              		.global	RNG_GetITStatus
 288              		.thumb
 289              		.thumb_func
 291              	RNG_GetITStatus:
 292              	.LFB35:
 334:../STM32F2xx_StdPeriph_Driver/src/stm32f2xx_rng.c **** 
 335:../STM32F2xx_StdPeriph_Driver/src/stm32f2xx_rng.c **** /**
 336:../STM32F2xx_StdPeriph_Driver/src/stm32f2xx_rng.c ****   * @brief  Checks whether the specified RNG interrupt has occurred or not.
 337:../STM32F2xx_StdPeriph_Driver/src/stm32f2xx_rng.c ****   * @param  RNG_IT: specifies the RNG interrupt source to check.
 338:../STM32F2xx_StdPeriph_Driver/src/stm32f2xx_rng.c ****   *          This parameter can be one of the following values:
 339:../STM32F2xx_StdPeriph_Driver/src/stm32f2xx_rng.c ****   *            @arg RNG_IT_CEI: Clock Error Interrupt.
 340:../STM32F2xx_StdPeriph_Driver/src/stm32f2xx_rng.c ****   *            @arg RNG_IT_SEI: Seed Error Interrupt.                   
 341:../STM32F2xx_StdPeriph_Driver/src/stm32f2xx_rng.c ****   * @retval The new state of RNG_IT (SET or RESET).
 342:../STM32F2xx_StdPeriph_Driver/src/stm32f2xx_rng.c ****   */
 343:../STM32F2xx_StdPeriph_Driver/src/stm32f2xx_rng.c **** ITStatus RNG_GetITStatus(uint8_t RNG_IT)
 344:../STM32F2xx_StdPeriph_Driver/src/stm32f2xx_rng.c **** {
 293              		.loc 1 344 0
 294              		.cfi_startproc
 295              		@ args = 0, pretend = 0, frame = 16
 296              		@ frame_needed = 1, uses_anonymous_args = 0
 297              		@ link register save eliminated.
 298 0138 80B4     		push	{r7}
 299              	.LCFI16:
 300              		.cfi_def_cfa_offset 4
 301              		.cfi_offset 7, -4
 302 013a 85B0     		sub	sp, sp, #20
 303              	.LCFI17:
 304              		.cfi_def_cfa_offset 24
 305 013c 00AF     		add	r7, sp, #0
 306              	.LCFI18:
 307              		.cfi_def_cfa_register 7
 308 013e 0346     		mov	r3, r0
 309 0140 FB71     		strb	r3, [r7, #7]
 345:../STM32F2xx_StdPeriph_Driver/src/stm32f2xx_rng.c ****   ITStatus bitstatus = RESET;
 310              		.loc 1 345 0
 311 0142 4FF00003 		mov	r3, #0
 312 0146 FB73     		strb	r3, [r7, #15]
 346:../STM32F2xx_StdPeriph_Driver/src/stm32f2xx_rng.c ****   /* Check the parameters */
 347:../STM32F2xx_StdPeriph_Driver/src/stm32f2xx_rng.c ****   assert_param(IS_RNG_GET_IT(RNG_IT));
 348:../STM32F2xx_StdPeriph_Driver/src/stm32f2xx_rng.c **** 
 349:../STM32F2xx_StdPeriph_Driver/src/stm32f2xx_rng.c ****   /* Check the status of the specified RNG interrupt */
 350:../STM32F2xx_StdPeriph_Driver/src/stm32f2xx_rng.c ****   if ((RNG->SR & RNG_IT) != (uint8_t)RESET)
 313              		.loc 1 350 0
 314 0148 4FF40063 		mov	r3, #2048
 315 014c C5F20603 		movt	r3, 20486
 316 0150 5B68     		ldr	r3, [r3, #4]
 317 0152 1A46     		mov	r2, r3
 318 0154 FB79     		ldrb	r3, [r7, #7]	@ zero_extendqisi2
 319 0156 1340     		ands	r3, r3, r2
 320 0158 002B     		cmp	r3, #0
 321 015a 03D0     		beq	.L14
 351:../STM32F2xx_StdPeriph_Driver/src/stm32f2xx_rng.c ****   {
 352:../STM32F2xx_StdPeriph_Driver/src/stm32f2xx_rng.c ****     /* RNG_IT is set */
 353:../STM32F2xx_StdPeriph_Driver/src/stm32f2xx_rng.c ****     bitstatus = SET;
 322              		.loc 1 353 0
 323 015c 4FF00103 		mov	r3, #1
 324 0160 FB73     		strb	r3, [r7, #15]
 325 0162 02E0     		b	.L15
 326              	.L14:
 354:../STM32F2xx_StdPeriph_Driver/src/stm32f2xx_rng.c ****   }
 355:../STM32F2xx_StdPeriph_Driver/src/stm32f2xx_rng.c ****   else
 356:../STM32F2xx_StdPeriph_Driver/src/stm32f2xx_rng.c ****   {
 357:../STM32F2xx_StdPeriph_Driver/src/stm32f2xx_rng.c ****     /* RNG_IT is reset */
 358:../STM32F2xx_StdPeriph_Driver/src/stm32f2xx_rng.c ****     bitstatus = RESET;
 327              		.loc 1 358 0
 328 0164 4FF00003 		mov	r3, #0
 329 0168 FB73     		strb	r3, [r7, #15]
 330              	.L15:
 359:../STM32F2xx_StdPeriph_Driver/src/stm32f2xx_rng.c ****   }
 360:../STM32F2xx_StdPeriph_Driver/src/stm32f2xx_rng.c ****   /* Return the RNG_IT status */
 361:../STM32F2xx_StdPeriph_Driver/src/stm32f2xx_rng.c ****   return bitstatus;
 331              		.loc 1 361 0
 332 016a FB7B     		ldrb	r3, [r7, #15]	@ zero_extendqisi2
 362:../STM32F2xx_StdPeriph_Driver/src/stm32f2xx_rng.c **** }
 333              		.loc 1 362 0
 334 016c 1846     		mov	r0, r3
 335 016e 07F11407 		add	r7, r7, #20
 336 0172 BD46     		mov	sp, r7
 337 0174 80BC     		pop	{r7}
 338 0176 7047     		bx	lr
 339              		.cfi_endproc
 340              	.LFE35:
 342              		.align	2
 343              		.global	RNG_ClearITPendingBit
 344              		.thumb
 345              		.thumb_func
 347              	RNG_ClearITPendingBit:
 348              	.LFB36:
 363:../STM32F2xx_StdPeriph_Driver/src/stm32f2xx_rng.c **** 
 364:../STM32F2xx_StdPeriph_Driver/src/stm32f2xx_rng.c **** 
 365:../STM32F2xx_StdPeriph_Driver/src/stm32f2xx_rng.c **** /**
 366:../STM32F2xx_StdPeriph_Driver/src/stm32f2xx_rng.c ****   * @brief  Clears the RNG interrupt pending bit(s).
 367:../STM32F2xx_StdPeriph_Driver/src/stm32f2xx_rng.c ****   * @param  RNG_IT: specifies the RNG interrupt pending bit(s) to clear.
 368:../STM32F2xx_StdPeriph_Driver/src/stm32f2xx_rng.c ****   *          This parameter can be any combination of the following values:
 369:../STM32F2xx_StdPeriph_Driver/src/stm32f2xx_rng.c ****   *            @arg RNG_IT_CEI: Clock Error Interrupt.
 370:../STM32F2xx_StdPeriph_Driver/src/stm32f2xx_rng.c ****   *            @arg RNG_IT_SEI: Seed Error Interrupt.
 371:../STM32F2xx_StdPeriph_Driver/src/stm32f2xx_rng.c ****   * @retval None
 372:../STM32F2xx_StdPeriph_Driver/src/stm32f2xx_rng.c ****   */
 373:../STM32F2xx_StdPeriph_Driver/src/stm32f2xx_rng.c **** void RNG_ClearITPendingBit(uint8_t RNG_IT)
 374:../STM32F2xx_StdPeriph_Driver/src/stm32f2xx_rng.c **** {
 349              		.loc 1 374 0
 350              		.cfi_startproc
 351              		@ args = 0, pretend = 0, frame = 8
 352              		@ frame_needed = 1, uses_anonymous_args = 0
 353              		@ link register save eliminated.
 354 0178 80B4     		push	{r7}
 355              	.LCFI19:
 356              		.cfi_def_cfa_offset 4
 357              		.cfi_offset 7, -4
 358 017a 83B0     		sub	sp, sp, #12
 359              	.LCFI20:
 360              		.cfi_def_cfa_offset 16
 361 017c 00AF     		add	r7, sp, #0
 362              	.LCFI21:
 363              		.cfi_def_cfa_register 7
 364 017e 0346     		mov	r3, r0
 365 0180 FB71     		strb	r3, [r7, #7]
 375:../STM32F2xx_StdPeriph_Driver/src/stm32f2xx_rng.c ****   /* Check the parameters */
 376:../STM32F2xx_StdPeriph_Driver/src/stm32f2xx_rng.c ****   assert_param(IS_RNG_IT(RNG_IT));
 377:../STM32F2xx_StdPeriph_Driver/src/stm32f2xx_rng.c **** 
 378:../STM32F2xx_StdPeriph_Driver/src/stm32f2xx_rng.c ****   /* Clear the selected RNG interrupt pending bit */
 379:../STM32F2xx_StdPeriph_Driver/src/stm32f2xx_rng.c ****   RNG->SR = (uint8_t)~RNG_IT;
 366              		.loc 1 379 0
 367 0182 4FF40063 		mov	r3, #2048
 368 0186 C5F20603 		movt	r3, 20486
 369 018a FA79     		ldrb	r2, [r7, #7]
 370 018c 6FEA0202 		mvn	r2, r2
 371 0190 D2B2     		uxtb	r2, r2
 372 0192 5A60     		str	r2, [r3, #4]
 380:../STM32F2xx_StdPeriph_Driver/src/stm32f2xx_rng.c **** }
 373              		.loc 1 380 0
 374 0194 07F10C07 		add	r7, r7, #12
 375 0198 BD46     		mov	sp, r7
 376 019a 80BC     		pop	{r7}
 377 019c 7047     		bx	lr
 378              		.cfi_endproc
 379              	.LFE36:
 381              	.Letext0:
 382              		.file 2 "c:/cad/yagarto/lib/gcc/../../arm-none-eabi/sys-include/stdint.h"
 383              		.file 3 "C:\\workspace\\te_stm32f207_simple\\system/stm32f2xx.h"
 384              		.file 4 "C:\\workspace\\te_stm32f207_simple\\system/core_cm3.h"