   1              		.syntax unified
   2              		.cpu cortex-m3
   3              		.fpu softvfp
   4              		.eabi_attribute 20, 1
   5              		.eabi_attribute 21, 1
   6              		.eabi_attribute 23, 3
   7              		.eabi_attribute 24, 1
   8              		.eabi_attribute 25, 1
   9              		.eabi_attribute 26, 1
  10              		.eabi_attribute 30, 6
  11              		.eabi_attribute 18, 4
  12              		.thumb
  13              		.file	"stm32f2xx_can.c"
  14              		.text
  15              	.Ltext0:
  16              		.cfi_sections	.debug_frame
  17              		.align	2
  18              		.global	CAN_DeInit
  19              		.thumb
  20              		.thumb_func
  22              	CAN_DeInit:
  23              	.LFB29:
  24              		.file 1 "../STM32F2xx_StdPeriph_Driver/src/stm32f2xx_can.c"
   1:../STM32F2xx_StdPeriph_Driver/src/stm32f2xx_can.c **** /**
   2:../STM32F2xx_StdPeriph_Driver/src/stm32f2xx_can.c ****   ******************************************************************************
   3:../STM32F2xx_StdPeriph_Driver/src/stm32f2xx_can.c ****   * @file    stm32f2xx_can.c
   4:../STM32F2xx_StdPeriph_Driver/src/stm32f2xx_can.c ****   * @author  MCD Application Team
   5:../STM32F2xx_StdPeriph_Driver/src/stm32f2xx_can.c ****   * @version V1.0.0
   6:../STM32F2xx_StdPeriph_Driver/src/stm32f2xx_can.c ****   * @date    18-April-2011
   7:../STM32F2xx_StdPeriph_Driver/src/stm32f2xx_can.c ****   * @brief   This file provides firmware functions to manage the following 
   8:../STM32F2xx_StdPeriph_Driver/src/stm32f2xx_can.c ****   *          functionalities of the Controller area network (CAN) peripheral:           
   9:../STM32F2xx_StdPeriph_Driver/src/stm32f2xx_can.c ****   *           - Initialization and Configuration 
  10:../STM32F2xx_StdPeriph_Driver/src/stm32f2xx_can.c ****   *           - CAN Frames Transmission 
  11:../STM32F2xx_StdPeriph_Driver/src/stm32f2xx_can.c ****   *           - CAN Frames Reception    
  12:../STM32F2xx_StdPeriph_Driver/src/stm32f2xx_can.c ****   *           - Operation modes switch  
  13:../STM32F2xx_StdPeriph_Driver/src/stm32f2xx_can.c ****   *           - Error management          
  14:../STM32F2xx_StdPeriph_Driver/src/stm32f2xx_can.c ****   *           - Interrupts and flags        
  15:../STM32F2xx_StdPeriph_Driver/src/stm32f2xx_can.c ****   *         
  16:../STM32F2xx_StdPeriph_Driver/src/stm32f2xx_can.c ****   *  @verbatim
  17:../STM32F2xx_StdPeriph_Driver/src/stm32f2xx_can.c ****   *                               
  18:../STM32F2xx_StdPeriph_Driver/src/stm32f2xx_can.c ****   *          ===================================================================      
  19:../STM32F2xx_StdPeriph_Driver/src/stm32f2xx_can.c ****   *                                   How to use this driver
  20:../STM32F2xx_StdPeriph_Driver/src/stm32f2xx_can.c ****   *          ===================================================================
  21:../STM32F2xx_StdPeriph_Driver/src/stm32f2xx_can.c ****                 
  22:../STM32F2xx_StdPeriph_Driver/src/stm32f2xx_can.c ****   *          1.  Enable the CAN controller interface clock using 
  23:../STM32F2xx_StdPeriph_Driver/src/stm32f2xx_can.c ****   *                  RCC_APB1PeriphClockCmd(RCC_APB1Periph_CAN1, ENABLE); for CAN1 
  24:../STM32F2xx_StdPeriph_Driver/src/stm32f2xx_can.c ****   *              and RCC_APB1PeriphClockCmd(RCC_APB1Periph_CAN2, ENABLE); for CAN2
  25:../STM32F2xx_StdPeriph_Driver/src/stm32f2xx_can.c ****   *  @note   In case you are using CAN2 only, you have to enable the CAN1 clock.
  26:../STM32F2xx_StdPeriph_Driver/src/stm32f2xx_can.c ****   *     
  27:../STM32F2xx_StdPeriph_Driver/src/stm32f2xx_can.c ****   *          2. CAN pins configuration
  28:../STM32F2xx_StdPeriph_Driver/src/stm32f2xx_can.c ****   *               - Enable the clock for the CAN GPIOs using the following function:
  29:../STM32F2xx_StdPeriph_Driver/src/stm32f2xx_can.c ****   *                   RCC_AHB1PeriphClockCmd(RCC_AHB1Periph_GPIOx, ENABLE);   
  30:../STM32F2xx_StdPeriph_Driver/src/stm32f2xx_can.c ****   *               - Connect the involved CAN pins to AF9 using the following function 
  31:../STM32F2xx_StdPeriph_Driver/src/stm32f2xx_can.c ****   *                   GPIO_PinAFConfig(GPIOx, GPIO_PinSourcex, GPIO_AF_CANx); 
  32:../STM32F2xx_StdPeriph_Driver/src/stm32f2xx_can.c ****   *                - Configure these CAN pins in alternate function mode by calling
  33:../STM32F2xx_StdPeriph_Driver/src/stm32f2xx_can.c ****   *                  the function  GPIO_Init();
  34:../STM32F2xx_StdPeriph_Driver/src/stm32f2xx_can.c ****   *    
  35:../STM32F2xx_StdPeriph_Driver/src/stm32f2xx_can.c ****   *          3.  Initialise and configure the CAN using CAN_Init() and 
  36:../STM32F2xx_StdPeriph_Driver/src/stm32f2xx_can.c ****   *               CAN_FilterInit() functions.   
  37:../STM32F2xx_StdPeriph_Driver/src/stm32f2xx_can.c ****   *               
  38:../STM32F2xx_StdPeriph_Driver/src/stm32f2xx_can.c ****   *          4.  Transmit the desired CAN frame using CAN_Transmit() function.
  39:../STM32F2xx_StdPeriph_Driver/src/stm32f2xx_can.c ****   *         
  40:../STM32F2xx_StdPeriph_Driver/src/stm32f2xx_can.c ****   *          5.  Check the transmission of a CAN frame using CAN_TransmitStatus()
  41:../STM32F2xx_StdPeriph_Driver/src/stm32f2xx_can.c ****   *              function.
  42:../STM32F2xx_StdPeriph_Driver/src/stm32f2xx_can.c ****   *               
  43:../STM32F2xx_StdPeriph_Driver/src/stm32f2xx_can.c ****   *          6.  Cancel the transmission of a CAN frame using CAN_CancelTransmit()
  44:../STM32F2xx_StdPeriph_Driver/src/stm32f2xx_can.c ****   *              function.  
  45:../STM32F2xx_StdPeriph_Driver/src/stm32f2xx_can.c ****   *            
  46:../STM32F2xx_StdPeriph_Driver/src/stm32f2xx_can.c ****   *          7.  Receive a CAN frame using CAN_Recieve() function.
  47:../STM32F2xx_StdPeriph_Driver/src/stm32f2xx_can.c ****   *         
  48:../STM32F2xx_StdPeriph_Driver/src/stm32f2xx_can.c ****   *          8.  Release the receive FIFOs using CAN_FIFORelease() function.
  49:../STM32F2xx_StdPeriph_Driver/src/stm32f2xx_can.c ****   *               
  50:../STM32F2xx_StdPeriph_Driver/src/stm32f2xx_can.c ****   *          9. Return the number of pending received frames using 
  51:../STM32F2xx_StdPeriph_Driver/src/stm32f2xx_can.c ****   *              CAN_MessagePending() function.            
  52:../STM32F2xx_StdPeriph_Driver/src/stm32f2xx_can.c ****   *                   
  53:../STM32F2xx_StdPeriph_Driver/src/stm32f2xx_can.c ****   *          10. To control CAN events you can use one of the following two methods:
  54:../STM32F2xx_StdPeriph_Driver/src/stm32f2xx_can.c ****   *               - Check on CAN flags using the CAN_GetFlagStatus() function.  
  55:../STM32F2xx_StdPeriph_Driver/src/stm32f2xx_can.c ****   *               - Use CAN interrupts through the function CAN_ITConfig() at 
  56:../STM32F2xx_StdPeriph_Driver/src/stm32f2xx_can.c ****   *                 initialization phase and CAN_GetITStatus() function into 
  57:../STM32F2xx_StdPeriph_Driver/src/stm32f2xx_can.c ****   *                 interrupt routines to check if the event has occurred or not.
  58:../STM32F2xx_StdPeriph_Driver/src/stm32f2xx_can.c ****   *             After checking on a flag you should clear it using CAN_ClearFlag()
  59:../STM32F2xx_StdPeriph_Driver/src/stm32f2xx_can.c ****   *             function. And after checking on an interrupt event you should 
  60:../STM32F2xx_StdPeriph_Driver/src/stm32f2xx_can.c ****   *             clear it using CAN_ClearITPendingBit() function.            
  61:../STM32F2xx_StdPeriph_Driver/src/stm32f2xx_can.c ****   *               
  62:../STM32F2xx_StdPeriph_Driver/src/stm32f2xx_can.c ****   *              
  63:../STM32F2xx_StdPeriph_Driver/src/stm32f2xx_can.c ****   *  @endverbatim
  64:../STM32F2xx_StdPeriph_Driver/src/stm32f2xx_can.c ****   *         
  65:../STM32F2xx_StdPeriph_Driver/src/stm32f2xx_can.c ****   ******************************************************************************
  66:../STM32F2xx_StdPeriph_Driver/src/stm32f2xx_can.c ****   * @attention
  67:../STM32F2xx_StdPeriph_Driver/src/stm32f2xx_can.c ****   *
  68:../STM32F2xx_StdPeriph_Driver/src/stm32f2xx_can.c ****   * THE PRESENT FIRMWARE WHICH IS FOR GUIDANCE ONLY AIMS AT PROVIDING CUSTOMERS
  69:../STM32F2xx_StdPeriph_Driver/src/stm32f2xx_can.c ****   * WITH CODING INFORMATION REGARDING THEIR PRODUCTS IN ORDER FOR THEM TO SAVE
  70:../STM32F2xx_StdPeriph_Driver/src/stm32f2xx_can.c ****   * TIME. AS A RESULT, STMICROELECTRONICS SHALL NOT BE HELD LIABLE FOR ANY
  71:../STM32F2xx_StdPeriph_Driver/src/stm32f2xx_can.c ****   * DIRECT, INDIRECT OR CONSEQUENTIAL DAMAGES WITH RESPECT TO ANY CLAIMS ARISING
  72:../STM32F2xx_StdPeriph_Driver/src/stm32f2xx_can.c ****   * FROM THE CONTENT OF SUCH FIRMWARE AND/OR THE USE MADE BY CUSTOMERS OF THE
  73:../STM32F2xx_StdPeriph_Driver/src/stm32f2xx_can.c ****   * CODING INFORMATION CONTAINED HEREIN IN CONNECTION WITH THEIR PRODUCTS.
  74:../STM32F2xx_StdPeriph_Driver/src/stm32f2xx_can.c ****   *
  75:../STM32F2xx_StdPeriph_Driver/src/stm32f2xx_can.c ****   * <h2><center>&copy; COPYRIGHT 2011 STMicroelectronics</center></h2>
  76:../STM32F2xx_StdPeriph_Driver/src/stm32f2xx_can.c ****   ******************************************************************************  
  77:../STM32F2xx_StdPeriph_Driver/src/stm32f2xx_can.c ****   */
  78:../STM32F2xx_StdPeriph_Driver/src/stm32f2xx_can.c **** 
  79:../STM32F2xx_StdPeriph_Driver/src/stm32f2xx_can.c **** /* Includes ------------------------------------------------------------------*/
  80:../STM32F2xx_StdPeriph_Driver/src/stm32f2xx_can.c **** #include "stm32f2xx_can.h"
  81:../STM32F2xx_StdPeriph_Driver/src/stm32f2xx_can.c **** #include "stm32f2xx_rcc.h"
  82:../STM32F2xx_StdPeriph_Driver/src/stm32f2xx_can.c **** 
  83:../STM32F2xx_StdPeriph_Driver/src/stm32f2xx_can.c **** /** @addtogroup STM32F2xx_StdPeriph_Driver
  84:../STM32F2xx_StdPeriph_Driver/src/stm32f2xx_can.c ****   * @{
  85:../STM32F2xx_StdPeriph_Driver/src/stm32f2xx_can.c ****   */
  86:../STM32F2xx_StdPeriph_Driver/src/stm32f2xx_can.c **** 
  87:../STM32F2xx_StdPeriph_Driver/src/stm32f2xx_can.c **** /** @defgroup CAN 
  88:../STM32F2xx_StdPeriph_Driver/src/stm32f2xx_can.c ****   * @brief CAN driver modules
  89:../STM32F2xx_StdPeriph_Driver/src/stm32f2xx_can.c ****   * @{
  90:../STM32F2xx_StdPeriph_Driver/src/stm32f2xx_can.c ****   */ 
  91:../STM32F2xx_StdPeriph_Driver/src/stm32f2xx_can.c **** /* Private typedef -----------------------------------------------------------*/
  92:../STM32F2xx_StdPeriph_Driver/src/stm32f2xx_can.c **** /* Private define ------------------------------------------------------------*/
  93:../STM32F2xx_StdPeriph_Driver/src/stm32f2xx_can.c **** 
  94:../STM32F2xx_StdPeriph_Driver/src/stm32f2xx_can.c **** /* CAN Master Control Register bits */
  95:../STM32F2xx_StdPeriph_Driver/src/stm32f2xx_can.c **** #define MCR_DBF           ((uint32_t)0x00010000) /* software master reset */
  96:../STM32F2xx_StdPeriph_Driver/src/stm32f2xx_can.c **** 
  97:../STM32F2xx_StdPeriph_Driver/src/stm32f2xx_can.c **** /* CAN Mailbox Transmit Request */
  98:../STM32F2xx_StdPeriph_Driver/src/stm32f2xx_can.c **** #define TMIDxR_TXRQ       ((uint32_t)0x00000001) /* Transmit mailbox request */
  99:../STM32F2xx_StdPeriph_Driver/src/stm32f2xx_can.c **** 
 100:../STM32F2xx_StdPeriph_Driver/src/stm32f2xx_can.c **** /* CAN Filter Master Register bits */
 101:../STM32F2xx_StdPeriph_Driver/src/stm32f2xx_can.c **** #define FMR_FINIT         ((uint32_t)0x00000001) /* Filter init mode */
 102:../STM32F2xx_StdPeriph_Driver/src/stm32f2xx_can.c **** 
 103:../STM32F2xx_StdPeriph_Driver/src/stm32f2xx_can.c **** /* Time out for INAK bit */
 104:../STM32F2xx_StdPeriph_Driver/src/stm32f2xx_can.c **** #define INAK_TIMEOUT      ((uint32_t)0x0000FFFF)
 105:../STM32F2xx_StdPeriph_Driver/src/stm32f2xx_can.c **** /* Time out for SLAK bit */
 106:../STM32F2xx_StdPeriph_Driver/src/stm32f2xx_can.c **** #define SLAK_TIMEOUT      ((uint32_t)0x0000FFFF)
 107:../STM32F2xx_StdPeriph_Driver/src/stm32f2xx_can.c **** 
 108:../STM32F2xx_StdPeriph_Driver/src/stm32f2xx_can.c **** /* Flags in TSR register */
 109:../STM32F2xx_StdPeriph_Driver/src/stm32f2xx_can.c **** #define CAN_FLAGS_TSR     ((uint32_t)0x08000000) 
 110:../STM32F2xx_StdPeriph_Driver/src/stm32f2xx_can.c **** /* Flags in RF1R register */
 111:../STM32F2xx_StdPeriph_Driver/src/stm32f2xx_can.c **** #define CAN_FLAGS_RF1R    ((uint32_t)0x04000000) 
 112:../STM32F2xx_StdPeriph_Driver/src/stm32f2xx_can.c **** /* Flags in RF0R register */
 113:../STM32F2xx_StdPeriph_Driver/src/stm32f2xx_can.c **** #define CAN_FLAGS_RF0R    ((uint32_t)0x02000000) 
 114:../STM32F2xx_StdPeriph_Driver/src/stm32f2xx_can.c **** /* Flags in MSR register */
 115:../STM32F2xx_StdPeriph_Driver/src/stm32f2xx_can.c **** #define CAN_FLAGS_MSR     ((uint32_t)0x01000000) 
 116:../STM32F2xx_StdPeriph_Driver/src/stm32f2xx_can.c **** /* Flags in ESR register */
 117:../STM32F2xx_StdPeriph_Driver/src/stm32f2xx_can.c **** #define CAN_FLAGS_ESR     ((uint32_t)0x00F00000) 
 118:../STM32F2xx_StdPeriph_Driver/src/stm32f2xx_can.c **** 
 119:../STM32F2xx_StdPeriph_Driver/src/stm32f2xx_can.c **** /* Mailboxes definition */
 120:../STM32F2xx_StdPeriph_Driver/src/stm32f2xx_can.c **** #define CAN_TXMAILBOX_0   ((uint8_t)0x00)
 121:../STM32F2xx_StdPeriph_Driver/src/stm32f2xx_can.c **** #define CAN_TXMAILBOX_1   ((uint8_t)0x01)
 122:../STM32F2xx_StdPeriph_Driver/src/stm32f2xx_can.c **** #define CAN_TXMAILBOX_2   ((uint8_t)0x02) 
 123:../STM32F2xx_StdPeriph_Driver/src/stm32f2xx_can.c **** 
 124:../STM32F2xx_StdPeriph_Driver/src/stm32f2xx_can.c **** #define CAN_MODE_MASK     ((uint32_t) 0x00000003)
 125:../STM32F2xx_StdPeriph_Driver/src/stm32f2xx_can.c **** 
 126:../STM32F2xx_StdPeriph_Driver/src/stm32f2xx_can.c **** /* Private macro -------------------------------------------------------------*/
 127:../STM32F2xx_StdPeriph_Driver/src/stm32f2xx_can.c **** /* Private variables ---------------------------------------------------------*/
 128:../STM32F2xx_StdPeriph_Driver/src/stm32f2xx_can.c **** /* Private function prototypes -----------------------------------------------*/
 129:../STM32F2xx_StdPeriph_Driver/src/stm32f2xx_can.c **** /* Private functions ---------------------------------------------------------*/
 130:../STM32F2xx_StdPeriph_Driver/src/stm32f2xx_can.c **** static ITStatus CheckITStatus(uint32_t CAN_Reg, uint32_t It_Bit);
 131:../STM32F2xx_StdPeriph_Driver/src/stm32f2xx_can.c **** 
 132:../STM32F2xx_StdPeriph_Driver/src/stm32f2xx_can.c **** /** @defgroup CAN_Private_Functions
 133:../STM32F2xx_StdPeriph_Driver/src/stm32f2xx_can.c ****   * @{
 134:../STM32F2xx_StdPeriph_Driver/src/stm32f2xx_can.c ****   */
 135:../STM32F2xx_StdPeriph_Driver/src/stm32f2xx_can.c **** 
 136:../STM32F2xx_StdPeriph_Driver/src/stm32f2xx_can.c **** /** @defgroup CAN_Group1 Initialization and Configuration functions
 137:../STM32F2xx_StdPeriph_Driver/src/stm32f2xx_can.c ****  *  @brief    Initialization and Configuration functions 
 138:../STM32F2xx_StdPeriph_Driver/src/stm32f2xx_can.c ****  *
 139:../STM32F2xx_StdPeriph_Driver/src/stm32f2xx_can.c **** @verbatim    
 140:../STM32F2xx_StdPeriph_Driver/src/stm32f2xx_can.c ****  ===============================================================================
 141:../STM32F2xx_StdPeriph_Driver/src/stm32f2xx_can.c ****                       Initialization and Configuration functions
 142:../STM32F2xx_StdPeriph_Driver/src/stm32f2xx_can.c ****  ===============================================================================  
 143:../STM32F2xx_StdPeriph_Driver/src/stm32f2xx_can.c ****   This section provides functions allowing to 
 144:../STM32F2xx_StdPeriph_Driver/src/stm32f2xx_can.c ****    - Initialize the CAN peripherals : Prescaler, operating mode, the maximum number 
 145:../STM32F2xx_StdPeriph_Driver/src/stm32f2xx_can.c ****      of time quanta to perform resynchronization, the number of time quanta in
 146:../STM32F2xx_StdPeriph_Driver/src/stm32f2xx_can.c ****      Bit Segment 1 and 2 and many other modes. 
 147:../STM32F2xx_StdPeriph_Driver/src/stm32f2xx_can.c ****      Refer to  @ref CAN_InitTypeDef  for more details.
 148:../STM32F2xx_StdPeriph_Driver/src/stm32f2xx_can.c ****    - Configures the CAN reception filter.                                      
 149:../STM32F2xx_StdPeriph_Driver/src/stm32f2xx_can.c ****    - Select the start bank filter for slave CAN.
 150:../STM32F2xx_StdPeriph_Driver/src/stm32f2xx_can.c ****    - Enables or disables the Debug Freeze mode for CAN
 151:../STM32F2xx_StdPeriph_Driver/src/stm32f2xx_can.c ****    - Enables or disables the CAN Time Trigger Operation communication mode
 152:../STM32F2xx_StdPeriph_Driver/src/stm32f2xx_can.c ****    
 153:../STM32F2xx_StdPeriph_Driver/src/stm32f2xx_can.c **** @endverbatim
 154:../STM32F2xx_StdPeriph_Driver/src/stm32f2xx_can.c ****   * @{
 155:../STM32F2xx_StdPeriph_Driver/src/stm32f2xx_can.c ****   */
 156:../STM32F2xx_StdPeriph_Driver/src/stm32f2xx_can.c ****   
 157:../STM32F2xx_StdPeriph_Driver/src/stm32f2xx_can.c **** /**
 158:../STM32F2xx_StdPeriph_Driver/src/stm32f2xx_can.c ****   * @brief  Deinitializes the CAN peripheral registers to their default reset values.
 159:../STM32F2xx_StdPeriph_Driver/src/stm32f2xx_can.c ****   * @param  CANx: where x can be 1 or 2 to select the CAN peripheral.
 160:../STM32F2xx_StdPeriph_Driver/src/stm32f2xx_can.c ****   * @retval None.
 161:../STM32F2xx_StdPeriph_Driver/src/stm32f2xx_can.c ****   */
 162:../STM32F2xx_StdPeriph_Driver/src/stm32f2xx_can.c **** void CAN_DeInit(CAN_TypeDef* CANx)
 163:../STM32F2xx_StdPeriph_Driver/src/stm32f2xx_can.c **** {
  25              		.loc 1 163 0
  26              		.cfi_startproc
  27              		@ args = 0, pretend = 0, frame = 8
  28              		@ frame_needed = 1, uses_anonymous_args = 0
  29 0000 80B5     		push	{r7, lr}
  30              	.LCFI0:
  31              		.cfi_def_cfa_offset 8
  32              		.cfi_offset 14, -4
  33              		.cfi_offset 7, -8
  34 0002 82B0     		sub	sp, sp, #8
  35              	.LCFI1:
  36              		.cfi_def_cfa_offset 16
  37 0004 00AF     		add	r7, sp, #0
  38              	.LCFI2:
  39              		.cfi_def_cfa_register 7
  40 0006 7860     		str	r0, [r7, #4]
 164:../STM32F2xx_StdPeriph_Driver/src/stm32f2xx_can.c ****   /* Check the parameters */
 165:../STM32F2xx_StdPeriph_Driver/src/stm32f2xx_can.c ****   assert_param(IS_CAN_ALL_PERIPH(CANx));
 166:../STM32F2xx_StdPeriph_Driver/src/stm32f2xx_can.c ****  
 167:../STM32F2xx_StdPeriph_Driver/src/stm32f2xx_can.c ****   if (CANx == CAN1)
  41              		.loc 1 167 0
  42 0008 7A68     		ldr	r2, [r7, #4]
  43 000a 4FF4C843 		mov	r3, #25600
  44 000e C4F20003 		movt	r3, 16384
  45 0012 9A42     		cmp	r2, r3
  46 0014 0CD1     		bne	.L2
 168:../STM32F2xx_StdPeriph_Driver/src/stm32f2xx_can.c ****   {
 169:../STM32F2xx_StdPeriph_Driver/src/stm32f2xx_can.c ****     /* Enable CAN1 reset state */
 170:../STM32F2xx_StdPeriph_Driver/src/stm32f2xx_can.c ****     RCC_APB1PeriphResetCmd(RCC_APB1Periph_CAN1, ENABLE);
  47              		.loc 1 170 0
  48 0016 4FF00070 		mov	r0, #33554432
  49 001a 4FF00101 		mov	r1, #1
  50 001e FFF7FEFF 		bl	RCC_APB1PeriphResetCmd
 171:../STM32F2xx_StdPeriph_Driver/src/stm32f2xx_can.c ****     /* Release CAN1 from reset state */
 172:../STM32F2xx_StdPeriph_Driver/src/stm32f2xx_can.c ****     RCC_APB1PeriphResetCmd(RCC_APB1Periph_CAN1, DISABLE);
  51              		.loc 1 172 0
  52 0022 4FF00070 		mov	r0, #33554432
  53 0026 4FF00001 		mov	r1, #0
  54 002a FFF7FEFF 		bl	RCC_APB1PeriphResetCmd
  55 002e 0BE0     		b	.L1
  56              	.L2:
 173:../STM32F2xx_StdPeriph_Driver/src/stm32f2xx_can.c ****   }
 174:../STM32F2xx_StdPeriph_Driver/src/stm32f2xx_can.c ****   else
 175:../STM32F2xx_StdPeriph_Driver/src/stm32f2xx_can.c ****   {  
 176:../STM32F2xx_StdPeriph_Driver/src/stm32f2xx_can.c ****     /* Enable CAN2 reset state */
 177:../STM32F2xx_StdPeriph_Driver/src/stm32f2xx_can.c ****     RCC_APB1PeriphResetCmd(RCC_APB1Periph_CAN2, ENABLE);
  57              		.loc 1 177 0
  58 0030 4FF08060 		mov	r0, #67108864
  59 0034 4FF00101 		mov	r1, #1
  60 0038 FFF7FEFF 		bl	RCC_APB1PeriphResetCmd
 178:../STM32F2xx_StdPeriph_Driver/src/stm32f2xx_can.c ****     /* Release CAN2 from reset state */
 179:../STM32F2xx_StdPeriph_Driver/src/stm32f2xx_can.c ****     RCC_APB1PeriphResetCmd(RCC_APB1Periph_CAN2, DISABLE);
  61              		.loc 1 179 0
  62 003c 4FF08060 		mov	r0, #67108864
  63 0040 4FF00001 		mov	r1, #0
  64 0044 FFF7FEFF 		bl	RCC_APB1PeriphResetCmd
  65              	.L1:
 180:../STM32F2xx_StdPeriph_Driver/src/stm32f2xx_can.c ****   }
 181:../STM32F2xx_StdPeriph_Driver/src/stm32f2xx_can.c **** }
  66              		.loc 1 181 0
  67 0048 07F10807 		add	r7, r7, #8
  68 004c BD46     		mov	sp, r7
  69 004e 80BD     		pop	{r7, pc}
  70              		.cfi_endproc
  71              	.LFE29:
  73              		.align	2
  74              		.global	CAN_Init
  75              		.thumb
  76              		.thumb_func
  78              	CAN_Init:
  79              	.LFB30:
 182:../STM32F2xx_StdPeriph_Driver/src/stm32f2xx_can.c **** 
 183:../STM32F2xx_StdPeriph_Driver/src/stm32f2xx_can.c **** /**
 184:../STM32F2xx_StdPeriph_Driver/src/stm32f2xx_can.c ****   * @brief  Initializes the CAN peripheral according to the specified
 185:../STM32F2xx_StdPeriph_Driver/src/stm32f2xx_can.c ****   *         parameters in the CAN_InitStruct.
 186:../STM32F2xx_StdPeriph_Driver/src/stm32f2xx_can.c ****   * @param  CANx: where x can be 1 or 2 to select the CAN peripheral.
 187:../STM32F2xx_StdPeriph_Driver/src/stm32f2xx_can.c ****   * @param  CAN_InitStruct: pointer to a CAN_InitTypeDef structure that contains
 188:../STM32F2xx_StdPeriph_Driver/src/stm32f2xx_can.c ****   *         the configuration information for the CAN peripheral.
 189:../STM32F2xx_StdPeriph_Driver/src/stm32f2xx_can.c ****   * @retval Constant indicates initialization succeed which will be 
 190:../STM32F2xx_StdPeriph_Driver/src/stm32f2xx_can.c ****   *         CAN_InitStatus_Failed or CAN_InitStatus_Success.
 191:../STM32F2xx_StdPeriph_Driver/src/stm32f2xx_can.c ****   */
 192:../STM32F2xx_StdPeriph_Driver/src/stm32f2xx_can.c **** uint8_t CAN_Init(CAN_TypeDef* CANx, CAN_InitTypeDef* CAN_InitStruct)
 193:../STM32F2xx_StdPeriph_Driver/src/stm32f2xx_can.c **** {
  80              		.loc 1 193 0
  81              		.cfi_startproc
  82              		@ args = 0, pretend = 0, frame = 16
  83              		@ frame_needed = 1, uses_anonymous_args = 0
  84              		@ link register save eliminated.
  85 0050 80B4     		push	{r7}
  86              	.LCFI3:
  87              		.cfi_def_cfa_offset 4
  88              		.cfi_offset 7, -4
  89 0052 85B0     		sub	sp, sp, #20
  90              	.LCFI4:
  91              		.cfi_def_cfa_offset 24
  92 0054 00AF     		add	r7, sp, #0
  93              	.LCFI5:
  94              		.cfi_def_cfa_register 7
  95 0056 7860     		str	r0, [r7, #4]
  96 0058 3960     		str	r1, [r7, #0]
 194:../STM32F2xx_StdPeriph_Driver/src/stm32f2xx_can.c ****   uint8_t InitStatus = CAN_InitStatus_Failed;
  97              		.loc 1 194 0
  98 005a 4FF00003 		mov	r3, #0
  99 005e FB73     		strb	r3, [r7, #15]
 195:../STM32F2xx_StdPeriph_Driver/src/stm32f2xx_can.c ****   uint32_t wait_ack = 0x00000000;
 100              		.loc 1 195 0
 101 0060 4FF00003 		mov	r3, #0
 102 0064 BB60     		str	r3, [r7, #8]
 196:../STM32F2xx_StdPeriph_Driver/src/stm32f2xx_can.c ****   /* Check the parameters */
 197:../STM32F2xx_StdPeriph_Driver/src/stm32f2xx_can.c ****   assert_param(IS_CAN_ALL_PERIPH(CANx));
 198:../STM32F2xx_StdPeriph_Driver/src/stm32f2xx_can.c ****   assert_param(IS_FUNCTIONAL_STATE(CAN_InitStruct->CAN_TTCM));
 199:../STM32F2xx_StdPeriph_Driver/src/stm32f2xx_can.c ****   assert_param(IS_FUNCTIONAL_STATE(CAN_InitStruct->CAN_ABOM));
 200:../STM32F2xx_StdPeriph_Driver/src/stm32f2xx_can.c ****   assert_param(IS_FUNCTIONAL_STATE(CAN_InitStruct->CAN_AWUM));
 201:../STM32F2xx_StdPeriph_Driver/src/stm32f2xx_can.c ****   assert_param(IS_FUNCTIONAL_STATE(CAN_InitStruct->CAN_NART));
 202:../STM32F2xx_StdPeriph_Driver/src/stm32f2xx_can.c ****   assert_param(IS_FUNCTIONAL_STATE(CAN_InitStruct->CAN_RFLM));
 203:../STM32F2xx_StdPeriph_Driver/src/stm32f2xx_can.c ****   assert_param(IS_FUNCTIONAL_STATE(CAN_InitStruct->CAN_TXFP));
 204:../STM32F2xx_StdPeriph_Driver/src/stm32f2xx_can.c ****   assert_param(IS_CAN_MODE(CAN_InitStruct->CAN_Mode));
 205:../STM32F2xx_StdPeriph_Driver/src/stm32f2xx_can.c ****   assert_param(IS_CAN_SJW(CAN_InitStruct->CAN_SJW));
 206:../STM32F2xx_StdPeriph_Driver/src/stm32f2xx_can.c ****   assert_param(IS_CAN_BS1(CAN_InitStruct->CAN_BS1));
 207:../STM32F2xx_StdPeriph_Driver/src/stm32f2xx_can.c ****   assert_param(IS_CAN_BS2(CAN_InitStruct->CAN_BS2));
 208:../STM32F2xx_StdPeriph_Driver/src/stm32f2xx_can.c ****   assert_param(IS_CAN_PRESCALER(CAN_InitStruct->CAN_Prescaler));
 209:../STM32F2xx_StdPeriph_Driver/src/stm32f2xx_can.c **** 
 210:../STM32F2xx_StdPeriph_Driver/src/stm32f2xx_can.c ****   /* Exit from sleep mode */
 211:../STM32F2xx_StdPeriph_Driver/src/stm32f2xx_can.c ****   CANx->MCR &= (~(uint32_t)CAN_MCR_SLEEP);
 103              		.loc 1 211 0
 104 0066 7B68     		ldr	r3, [r7, #4]
 105 0068 1B68     		ldr	r3, [r3, #0]
 106 006a 23F00202 		bic	r2, r3, #2
 107 006e 7B68     		ldr	r3, [r7, #4]
 108 0070 1A60     		str	r2, [r3, #0]
 212:../STM32F2xx_StdPeriph_Driver/src/stm32f2xx_can.c **** 
 213:../STM32F2xx_StdPeriph_Driver/src/stm32f2xx_can.c ****   /* Request initialisation */
 214:../STM32F2xx_StdPeriph_Driver/src/stm32f2xx_can.c ****   CANx->MCR |= CAN_MCR_INRQ ;
 109              		.loc 1 214 0
 110 0072 7B68     		ldr	r3, [r7, #4]
 111 0074 1B68     		ldr	r3, [r3, #0]
 112 0076 43F00102 		orr	r2, r3, #1
 113 007a 7B68     		ldr	r3, [r7, #4]
 114 007c 1A60     		str	r2, [r3, #0]
 215:../STM32F2xx_StdPeriph_Driver/src/stm32f2xx_can.c **** 
 216:../STM32F2xx_StdPeriph_Driver/src/stm32f2xx_can.c ****   /* Wait the acknowledge */
 217:../STM32F2xx_StdPeriph_Driver/src/stm32f2xx_can.c ****   while (((CANx->MSR & CAN_MSR_INAK) != CAN_MSR_INAK) && (wait_ack != INAK_TIMEOUT))
 115              		.loc 1 217 0
 116 007e 03E0     		b	.L5
 117              	.L7:
 218:../STM32F2xx_StdPeriph_Driver/src/stm32f2xx_can.c ****   {
 219:../STM32F2xx_StdPeriph_Driver/src/stm32f2xx_can.c ****     wait_ack++;
 118              		.loc 1 219 0
 119 0080 BB68     		ldr	r3, [r7, #8]
 120 0082 03F10103 		add	r3, r3, #1
 121 0086 BB60     		str	r3, [r7, #8]
 122              	.L5:
 217:../STM32F2xx_StdPeriph_Driver/src/stm32f2xx_can.c ****   while (((CANx->MSR & CAN_MSR_INAK) != CAN_MSR_INAK) && (wait_ack != INAK_TIMEOUT))
 123              		.loc 1 217 0 discriminator 1
 124 0088 7B68     		ldr	r3, [r7, #4]
 125 008a 5B68     		ldr	r3, [r3, #4]
 126 008c 03F00103 		and	r3, r3, #1
 127 0090 002B     		cmp	r3, #0
 128 0092 04D1     		bne	.L6
 217:../STM32F2xx_StdPeriph_Driver/src/stm32f2xx_can.c ****   while (((CANx->MSR & CAN_MSR_INAK) != CAN_MSR_INAK) && (wait_ack != INAK_TIMEOUT))
 129              		.loc 1 217 0 is_stmt 0 discriminator 2
 130 0094 BA68     		ldr	r2, [r7, #8]
 131 0096 4FF6FF73 		movw	r3, #65535
 132 009a 9A42     		cmp	r2, r3
 133 009c F0D1     		bne	.L7
 134              	.L6:
 220:../STM32F2xx_StdPeriph_Driver/src/stm32f2xx_can.c ****   }
 221:../STM32F2xx_StdPeriph_Driver/src/stm32f2xx_can.c **** 
 222:../STM32F2xx_StdPeriph_Driver/src/stm32f2xx_can.c ****   /* Check acknowledge */
 223:../STM32F2xx_StdPeriph_Driver/src/stm32f2xx_can.c ****   if ((CANx->MSR & CAN_MSR_INAK) != CAN_MSR_INAK)
 135              		.loc 1 223 0 is_stmt 1
 136 009e 7B68     		ldr	r3, [r7, #4]
 137 00a0 5B68     		ldr	r3, [r3, #4]
 138 00a2 03F00103 		and	r3, r3, #1
 139 00a6 002B     		cmp	r3, #0
 140 00a8 03D1     		bne	.L8
 224:../STM32F2xx_StdPeriph_Driver/src/stm32f2xx_can.c ****   {
 225:../STM32F2xx_StdPeriph_Driver/src/stm32f2xx_can.c ****     InitStatus = CAN_InitStatus_Failed;
 141              		.loc 1 225 0
 142 00aa 4FF00003 		mov	r3, #0
 143 00ae FB73     		strb	r3, [r7, #15]
 144 00b0 A7E0     		b	.L9
 145              	.L8:
 226:../STM32F2xx_StdPeriph_Driver/src/stm32f2xx_can.c ****   }
 227:../STM32F2xx_StdPeriph_Driver/src/stm32f2xx_can.c ****   else 
 228:../STM32F2xx_StdPeriph_Driver/src/stm32f2xx_can.c ****   {
 229:../STM32F2xx_StdPeriph_Driver/src/stm32f2xx_can.c ****     /* Set the time triggered communication mode */
 230:../STM32F2xx_StdPeriph_Driver/src/stm32f2xx_can.c ****     if (CAN_InitStruct->CAN_TTCM == ENABLE)
 146              		.loc 1 230 0
 147 00b2 3B68     		ldr	r3, [r7, #0]
 148 00b4 9B79     		ldrb	r3, [r3, #6]	@ zero_extendqisi2
 149 00b6 012B     		cmp	r3, #1
 150 00b8 06D1     		bne	.L10
 231:../STM32F2xx_StdPeriph_Driver/src/stm32f2xx_can.c ****     {
 232:../STM32F2xx_StdPeriph_Driver/src/stm32f2xx_can.c ****       CANx->MCR |= CAN_MCR_TTCM;
 151              		.loc 1 232 0
 152 00ba 7B68     		ldr	r3, [r7, #4]
 153 00bc 1B68     		ldr	r3, [r3, #0]
 154 00be 43F08002 		orr	r2, r3, #128
 155 00c2 7B68     		ldr	r3, [r7, #4]
 156 00c4 1A60     		str	r2, [r3, #0]
 157 00c6 05E0     		b	.L11
 158              	.L10:
 233:../STM32F2xx_StdPeriph_Driver/src/stm32f2xx_can.c ****     }
 234:../STM32F2xx_StdPeriph_Driver/src/stm32f2xx_can.c ****     else
 235:../STM32F2xx_StdPeriph_Driver/src/stm32f2xx_can.c ****     {
 236:../STM32F2xx_StdPeriph_Driver/src/stm32f2xx_can.c ****       CANx->MCR &= ~(uint32_t)CAN_MCR_TTCM;
 159              		.loc 1 236 0
 160 00c8 7B68     		ldr	r3, [r7, #4]
 161 00ca 1B68     		ldr	r3, [r3, #0]
 162 00cc 23F08002 		bic	r2, r3, #128
 163 00d0 7B68     		ldr	r3, [r7, #4]
 164 00d2 1A60     		str	r2, [r3, #0]
 165              	.L11:
 237:../STM32F2xx_StdPeriph_Driver/src/stm32f2xx_can.c ****     }
 238:../STM32F2xx_StdPeriph_Driver/src/stm32f2xx_can.c **** 
 239:../STM32F2xx_StdPeriph_Driver/src/stm32f2xx_can.c ****     /* Set the automatic bus-off management */
 240:../STM32F2xx_StdPeriph_Driver/src/stm32f2xx_can.c ****     if (CAN_InitStruct->CAN_ABOM == ENABLE)
 166              		.loc 1 240 0
 167 00d4 3B68     		ldr	r3, [r7, #0]
 168 00d6 DB79     		ldrb	r3, [r3, #7]	@ zero_extendqisi2
 169 00d8 012B     		cmp	r3, #1
 170 00da 06D1     		bne	.L12
 241:../STM32F2xx_StdPeriph_Driver/src/stm32f2xx_can.c ****     {
 242:../STM32F2xx_StdPeriph_Driver/src/stm32f2xx_can.c ****       CANx->MCR |= CAN_MCR_ABOM;
 171              		.loc 1 242 0
 172 00dc 7B68     		ldr	r3, [r7, #4]
 173 00de 1B68     		ldr	r3, [r3, #0]
 174 00e0 43F04002 		orr	r2, r3, #64
 175 00e4 7B68     		ldr	r3, [r7, #4]
 176 00e6 1A60     		str	r2, [r3, #0]
 177 00e8 05E0     		b	.L13
 178              	.L12:
 243:../STM32F2xx_StdPeriph_Driver/src/stm32f2xx_can.c ****     }
 244:../STM32F2xx_StdPeriph_Driver/src/stm32f2xx_can.c ****     else
 245:../STM32F2xx_StdPeriph_Driver/src/stm32f2xx_can.c ****     {
 246:../STM32F2xx_StdPeriph_Driver/src/stm32f2xx_can.c ****       CANx->MCR &= ~(uint32_t)CAN_MCR_ABOM;
 179              		.loc 1 246 0
 180 00ea 7B68     		ldr	r3, [r7, #4]
 181 00ec 1B68     		ldr	r3, [r3, #0]
 182 00ee 23F04002 		bic	r2, r3, #64
 183 00f2 7B68     		ldr	r3, [r7, #4]
 184 00f4 1A60     		str	r2, [r3, #0]
 185              	.L13:
 247:../STM32F2xx_StdPeriph_Driver/src/stm32f2xx_can.c ****     }
 248:../STM32F2xx_StdPeriph_Driver/src/stm32f2xx_can.c **** 
 249:../STM32F2xx_StdPeriph_Driver/src/stm32f2xx_can.c ****     /* Set the automatic wake-up mode */
 250:../STM32F2xx_StdPeriph_Driver/src/stm32f2xx_can.c ****     if (CAN_InitStruct->CAN_AWUM == ENABLE)
 186              		.loc 1 250 0
 187 00f6 3B68     		ldr	r3, [r7, #0]
 188 00f8 1B7A     		ldrb	r3, [r3, #8]	@ zero_extendqisi2
 189 00fa 012B     		cmp	r3, #1
 190 00fc 06D1     		bne	.L14
 251:../STM32F2xx_StdPeriph_Driver/src/stm32f2xx_can.c ****     {
 252:../STM32F2xx_StdPeriph_Driver/src/stm32f2xx_can.c ****       CANx->MCR |= CAN_MCR_AWUM;
 191              		.loc 1 252 0
 192 00fe 7B68     		ldr	r3, [r7, #4]
 193 0100 1B68     		ldr	r3, [r3, #0]
 194 0102 43F02002 		orr	r2, r3, #32
 195 0106 7B68     		ldr	r3, [r7, #4]
 196 0108 1A60     		str	r2, [r3, #0]
 197 010a 05E0     		b	.L15
 198              	.L14:
 253:../STM32F2xx_StdPeriph_Driver/src/stm32f2xx_can.c ****     }
 254:../STM32F2xx_StdPeriph_Driver/src/stm32f2xx_can.c ****     else
 255:../STM32F2xx_StdPeriph_Driver/src/stm32f2xx_can.c ****     {
 256:../STM32F2xx_StdPeriph_Driver/src/stm32f2xx_can.c ****       CANx->MCR &= ~(uint32_t)CAN_MCR_AWUM;
 199              		.loc 1 256 0
 200 010c 7B68     		ldr	r3, [r7, #4]
 201 010e 1B68     		ldr	r3, [r3, #0]
 202 0110 23F02002 		bic	r2, r3, #32
 203 0114 7B68     		ldr	r3, [r7, #4]
 204 0116 1A60     		str	r2, [r3, #0]
 205              	.L15:
 257:../STM32F2xx_StdPeriph_Driver/src/stm32f2xx_can.c ****     }
 258:../STM32F2xx_StdPeriph_Driver/src/stm32f2xx_can.c **** 
 259:../STM32F2xx_StdPeriph_Driver/src/stm32f2xx_can.c ****     /* Set the no automatic retransmission */
 260:../STM32F2xx_StdPeriph_Driver/src/stm32f2xx_can.c ****     if (CAN_InitStruct->CAN_NART == ENABLE)
 206              		.loc 1 260 0
 207 0118 3B68     		ldr	r3, [r7, #0]
 208 011a 5B7A     		ldrb	r3, [r3, #9]	@ zero_extendqisi2
 209 011c 012B     		cmp	r3, #1
 210 011e 06D1     		bne	.L16
 261:../STM32F2xx_StdPeriph_Driver/src/stm32f2xx_can.c ****     {
 262:../STM32F2xx_StdPeriph_Driver/src/stm32f2xx_can.c ****       CANx->MCR |= CAN_MCR_NART;
 211              		.loc 1 262 0
 212 0120 7B68     		ldr	r3, [r7, #4]
 213 0122 1B68     		ldr	r3, [r3, #0]
 214 0124 43F01002 		orr	r2, r3, #16
 215 0128 7B68     		ldr	r3, [r7, #4]
 216 012a 1A60     		str	r2, [r3, #0]
 217 012c 05E0     		b	.L17
 218              	.L16:
 263:../STM32F2xx_StdPeriph_Driver/src/stm32f2xx_can.c ****     }
 264:../STM32F2xx_StdPeriph_Driver/src/stm32f2xx_can.c ****     else
 265:../STM32F2xx_StdPeriph_Driver/src/stm32f2xx_can.c ****     {
 266:../STM32F2xx_StdPeriph_Driver/src/stm32f2xx_can.c ****       CANx->MCR &= ~(uint32_t)CAN_MCR_NART;
 219              		.loc 1 266 0
 220 012e 7B68     		ldr	r3, [r7, #4]
 221 0130 1B68     		ldr	r3, [r3, #0]
 222 0132 23F01002 		bic	r2, r3, #16
 223 0136 7B68     		ldr	r3, [r7, #4]
 224 0138 1A60     		str	r2, [r3, #0]
 225              	.L17:
 267:../STM32F2xx_StdPeriph_Driver/src/stm32f2xx_can.c ****     }
 268:../STM32F2xx_StdPeriph_Driver/src/stm32f2xx_can.c **** 
 269:../STM32F2xx_StdPeriph_Driver/src/stm32f2xx_can.c ****     /* Set the receive FIFO locked mode */
 270:../STM32F2xx_StdPeriph_Driver/src/stm32f2xx_can.c ****     if (CAN_InitStruct->CAN_RFLM == ENABLE)
 226              		.loc 1 270 0
 227 013a 3B68     		ldr	r3, [r7, #0]
 228 013c 9B7A     		ldrb	r3, [r3, #10]	@ zero_extendqisi2
 229 013e 012B     		cmp	r3, #1
 230 0140 06D1     		bne	.L18
 271:../STM32F2xx_StdPeriph_Driver/src/stm32f2xx_can.c ****     {
 272:../STM32F2xx_StdPeriph_Driver/src/stm32f2xx_can.c ****       CANx->MCR |= CAN_MCR_RFLM;
 231              		.loc 1 272 0
 232 0142 7B68     		ldr	r3, [r7, #4]
 233 0144 1B68     		ldr	r3, [r3, #0]
 234 0146 43F00802 		orr	r2, r3, #8
 235 014a 7B68     		ldr	r3, [r7, #4]
 236 014c 1A60     		str	r2, [r3, #0]
 237 014e 05E0     		b	.L19
 238              	.L18:
 273:../STM32F2xx_StdPeriph_Driver/src/stm32f2xx_can.c ****     }
 274:../STM32F2xx_StdPeriph_Driver/src/stm32f2xx_can.c ****     else
 275:../STM32F2xx_StdPeriph_Driver/src/stm32f2xx_can.c ****     {
 276:../STM32F2xx_StdPeriph_Driver/src/stm32f2xx_can.c ****       CANx->MCR &= ~(uint32_t)CAN_MCR_RFLM;
 239              		.loc 1 276 0
 240 0150 7B68     		ldr	r3, [r7, #4]
 241 0152 1B68     		ldr	r3, [r3, #0]
 242 0154 23F00802 		bic	r2, r3, #8
 243 0158 7B68     		ldr	r3, [r7, #4]
 244 015a 1A60     		str	r2, [r3, #0]
 245              	.L19:
 277:../STM32F2xx_StdPeriph_Driver/src/stm32f2xx_can.c ****     }
 278:../STM32F2xx_StdPeriph_Driver/src/stm32f2xx_can.c **** 
 279:../STM32F2xx_StdPeriph_Driver/src/stm32f2xx_can.c ****     /* Set the transmit FIFO priority */
 280:../STM32F2xx_StdPeriph_Driver/src/stm32f2xx_can.c ****     if (CAN_InitStruct->CAN_TXFP == ENABLE)
 246              		.loc 1 280 0
 247 015c 3B68     		ldr	r3, [r7, #0]
 248 015e DB7A     		ldrb	r3, [r3, #11]	@ zero_extendqisi2
 249 0160 012B     		cmp	r3, #1
 250 0162 06D1     		bne	.L20
 281:../STM32F2xx_StdPeriph_Driver/src/stm32f2xx_can.c ****     {
 282:../STM32F2xx_StdPeriph_Driver/src/stm32f2xx_can.c ****       CANx->MCR |= CAN_MCR_TXFP;
 251              		.loc 1 282 0
 252 0164 7B68     		ldr	r3, [r7, #4]
 253 0166 1B68     		ldr	r3, [r3, #0]
 254 0168 43F00402 		orr	r2, r3, #4
 255 016c 7B68     		ldr	r3, [r7, #4]
 256 016e 1A60     		str	r2, [r3, #0]
 257 0170 05E0     		b	.L21
 258              	.L20:
 283:../STM32F2xx_StdPeriph_Driver/src/stm32f2xx_can.c ****     }
 284:../STM32F2xx_StdPeriph_Driver/src/stm32f2xx_can.c ****     else
 285:../STM32F2xx_StdPeriph_Driver/src/stm32f2xx_can.c ****     {
 286:../STM32F2xx_StdPeriph_Driver/src/stm32f2xx_can.c ****       CANx->MCR &= ~(uint32_t)CAN_MCR_TXFP;
 259              		.loc 1 286 0
 260 0172 7B68     		ldr	r3, [r7, #4]
 261 0174 1B68     		ldr	r3, [r3, #0]
 262 0176 23F00402 		bic	r2, r3, #4
 263 017a 7B68     		ldr	r3, [r7, #4]
 264 017c 1A60     		str	r2, [r3, #0]
 265              	.L21:
 287:../STM32F2xx_StdPeriph_Driver/src/stm32f2xx_can.c ****     }
 288:../STM32F2xx_StdPeriph_Driver/src/stm32f2xx_can.c **** 
 289:../STM32F2xx_StdPeriph_Driver/src/stm32f2xx_can.c ****     /* Set the bit timing register */
 290:../STM32F2xx_StdPeriph_Driver/src/stm32f2xx_can.c ****     CANx->BTR = (uint32_t)((uint32_t)CAN_InitStruct->CAN_Mode << 30) | \
 266              		.loc 1 290 0
 267 017e 3B68     		ldr	r3, [r7, #0]
 268 0180 9B78     		ldrb	r3, [r3, #2]	@ zero_extendqisi2
 269 0182 4FEA8372 		lsl	r2, r3, #30
 291:../STM32F2xx_StdPeriph_Driver/src/stm32f2xx_can.c ****                 ((uint32_t)CAN_InitStruct->CAN_SJW << 24) | \
 270              		.loc 1 291 0
 271 0186 3B68     		ldr	r3, [r7, #0]
 272 0188 DB78     		ldrb	r3, [r3, #3]	@ zero_extendqisi2
 273 018a 4FEA0363 		lsl	r3, r3, #24
 290:../STM32F2xx_StdPeriph_Driver/src/stm32f2xx_can.c ****     CANx->BTR = (uint32_t)((uint32_t)CAN_InitStruct->CAN_Mode << 30) | \
 274              		.loc 1 290 0
 275 018e 1A43     		orrs	r2, r2, r3
 292:../STM32F2xx_StdPeriph_Driver/src/stm32f2xx_can.c ****                 ((uint32_t)CAN_InitStruct->CAN_BS1 << 16) | \
 276              		.loc 1 292 0
 277 0190 3B68     		ldr	r3, [r7, #0]
 278 0192 1B79     		ldrb	r3, [r3, #4]	@ zero_extendqisi2
 279 0194 4FEA0343 		lsl	r3, r3, #16
 291:../STM32F2xx_StdPeriph_Driver/src/stm32f2xx_can.c ****                 ((uint32_t)CAN_InitStruct->CAN_SJW << 24) | \
 280              		.loc 1 291 0
 281 0198 1A43     		orrs	r2, r2, r3
 293:../STM32F2xx_StdPeriph_Driver/src/stm32f2xx_can.c ****                 ((uint32_t)CAN_InitStruct->CAN_BS2 << 20) | \
 282              		.loc 1 293 0
 283 019a 3B68     		ldr	r3, [r7, #0]
 284 019c 5B79     		ldrb	r3, [r3, #5]	@ zero_extendqisi2
 285 019e 4FEA0353 		lsl	r3, r3, #20
 292:../STM32F2xx_StdPeriph_Driver/src/stm32f2xx_can.c ****                 ((uint32_t)CAN_InitStruct->CAN_BS1 << 16) | \
 286              		.loc 1 292 0
 287 01a2 1A43     		orrs	r2, r2, r3
 294:../STM32F2xx_StdPeriph_Driver/src/stm32f2xx_can.c ****                ((uint32_t)CAN_InitStruct->CAN_Prescaler - 1);
 288              		.loc 1 294 0
 289 01a4 3B68     		ldr	r3, [r7, #0]
 290 01a6 1B88     		ldrh	r3, [r3, #0]
 291 01a8 03F1FF33 		add	r3, r3, #-1
 293:../STM32F2xx_StdPeriph_Driver/src/stm32f2xx_can.c ****                 ((uint32_t)CAN_InitStruct->CAN_BS2 << 20) | \
 292              		.loc 1 293 0
 293 01ac 1A43     		orrs	r2, r2, r3
 290:../STM32F2xx_StdPeriph_Driver/src/stm32f2xx_can.c ****     CANx->BTR = (uint32_t)((uint32_t)CAN_InitStruct->CAN_Mode << 30) | \
 294              		.loc 1 290 0
 295 01ae 7B68     		ldr	r3, [r7, #4]
 296 01b0 DA61     		str	r2, [r3, #28]
 295:../STM32F2xx_StdPeriph_Driver/src/stm32f2xx_can.c **** 
 296:../STM32F2xx_StdPeriph_Driver/src/stm32f2xx_can.c ****     /* Request leave initialisation */
 297:../STM32F2xx_StdPeriph_Driver/src/stm32f2xx_can.c ****     CANx->MCR &= ~(uint32_t)CAN_MCR_INRQ;
 297              		.loc 1 297 0
 298 01b2 7B68     		ldr	r3, [r7, #4]
 299 01b4 1B68     		ldr	r3, [r3, #0]
 300 01b6 23F00102 		bic	r2, r3, #1
 301 01ba 7B68     		ldr	r3, [r7, #4]
 302 01bc 1A60     		str	r2, [r3, #0]
 298:../STM32F2xx_StdPeriph_Driver/src/stm32f2xx_can.c **** 
 299:../STM32F2xx_StdPeriph_Driver/src/stm32f2xx_can.c ****    /* Wait the acknowledge */
 300:../STM32F2xx_StdPeriph_Driver/src/stm32f2xx_can.c ****    wait_ack = 0;
 303              		.loc 1 300 0
 304 01be 4FF00003 		mov	r3, #0
 305 01c2 BB60     		str	r3, [r7, #8]
 301:../STM32F2xx_StdPeriph_Driver/src/stm32f2xx_can.c **** 
 302:../STM32F2xx_StdPeriph_Driver/src/stm32f2xx_can.c ****    while (((CANx->MSR & CAN_MSR_INAK) == CAN_MSR_INAK) && (wait_ack != INAK_TIMEOUT))
 306              		.loc 1 302 0
 307 01c4 03E0     		b	.L22
 308              	.L24:
 303:../STM32F2xx_StdPeriph_Driver/src/stm32f2xx_can.c ****    {
 304:../STM32F2xx_StdPeriph_Driver/src/stm32f2xx_can.c ****      wait_ack++;
 309              		.loc 1 304 0
 310 01c6 BB68     		ldr	r3, [r7, #8]
 311 01c8 03F10103 		add	r3, r3, #1
 312 01cc BB60     		str	r3, [r7, #8]
 313              	.L22:
 302:../STM32F2xx_StdPeriph_Driver/src/stm32f2xx_can.c ****    while (((CANx->MSR & CAN_MSR_INAK) == CAN_MSR_INAK) && (wait_ack != INAK_TIMEOUT))
 314              		.loc 1 302 0 discriminator 1
 315 01ce 7B68     		ldr	r3, [r7, #4]
 316 01d0 5B68     		ldr	r3, [r3, #4]
 317 01d2 03F00103 		and	r3, r3, #1
 318 01d6 DBB2     		uxtb	r3, r3
 319 01d8 002B     		cmp	r3, #0
 320 01da 04D0     		beq	.L23
 302:../STM32F2xx_StdPeriph_Driver/src/stm32f2xx_can.c ****    while (((CANx->MSR & CAN_MSR_INAK) == CAN_MSR_INAK) && (wait_ack != INAK_TIMEOUT))
 321              		.loc 1 302 0 is_stmt 0 discriminator 2
 322 01dc BA68     		ldr	r2, [r7, #8]
 323 01de 4FF6FF73 		movw	r3, #65535
 324 01e2 9A42     		cmp	r2, r3
 325 01e4 EFD1     		bne	.L24
 326              	.L23:
 305:../STM32F2xx_StdPeriph_Driver/src/stm32f2xx_can.c ****    }
 306:../STM32F2xx_StdPeriph_Driver/src/stm32f2xx_can.c **** 
 307:../STM32F2xx_StdPeriph_Driver/src/stm32f2xx_can.c ****     /* ...and check acknowledged */
 308:../STM32F2xx_StdPeriph_Driver/src/stm32f2xx_can.c ****     if ((CANx->MSR & CAN_MSR_INAK) == CAN_MSR_INAK)
 327              		.loc 1 308 0 is_stmt 1
 328 01e6 7B68     		ldr	r3, [r7, #4]
 329 01e8 5B68     		ldr	r3, [r3, #4]
 330 01ea 03F00103 		and	r3, r3, #1
 331 01ee DBB2     		uxtb	r3, r3
 332 01f0 002B     		cmp	r3, #0
 333 01f2 03D0     		beq	.L25
 309:../STM32F2xx_StdPeriph_Driver/src/stm32f2xx_can.c ****     {
 310:../STM32F2xx_StdPeriph_Driver/src/stm32f2xx_can.c ****       InitStatus = CAN_InitStatus_Failed;
 334              		.loc 1 310 0
 335 01f4 4FF00003 		mov	r3, #0
 336 01f8 FB73     		strb	r3, [r7, #15]
 337 01fa 02E0     		b	.L9
 338              	.L25:
 311:../STM32F2xx_StdPeriph_Driver/src/stm32f2xx_can.c ****     }
 312:../STM32F2xx_StdPeriph_Driver/src/stm32f2xx_can.c ****     else
 313:../STM32F2xx_StdPeriph_Driver/src/stm32f2xx_can.c ****     {
 314:../STM32F2xx_StdPeriph_Driver/src/stm32f2xx_can.c ****       InitStatus = CAN_InitStatus_Success ;
 339              		.loc 1 314 0
 340 01fc 4FF00103 		mov	r3, #1
 341 0200 FB73     		strb	r3, [r7, #15]
 342              	.L9:
 315:../STM32F2xx_StdPeriph_Driver/src/stm32f2xx_can.c ****     }
 316:../STM32F2xx_StdPeriph_Driver/src/stm32f2xx_can.c ****   }
 317:../STM32F2xx_StdPeriph_Driver/src/stm32f2xx_can.c **** 
 318:../STM32F2xx_StdPeriph_Driver/src/stm32f2xx_can.c ****   /* At this step, return the status of initialization */
 319:../STM32F2xx_StdPeriph_Driver/src/stm32f2xx_can.c ****   return InitStatus;
 343              		.loc 1 319 0
 344 0202 FB7B     		ldrb	r3, [r7, #15]	@ zero_extendqisi2
 320:../STM32F2xx_StdPeriph_Driver/src/stm32f2xx_can.c **** }
 345              		.loc 1 320 0
 346 0204 1846     		mov	r0, r3
 347 0206 07F11407 		add	r7, r7, #20
 348 020a BD46     		mov	sp, r7
 349 020c 80BC     		pop	{r7}
 350 020e 7047     		bx	lr
 351              		.cfi_endproc
 352              	.LFE30:
 354              		.align	2
 355              		.global	CAN_FilterInit
 356              		.thumb
 357              		.thumb_func
 359              	CAN_FilterInit:
 360              	.LFB31:
 321:../STM32F2xx_StdPeriph_Driver/src/stm32f2xx_can.c **** 
 322:../STM32F2xx_StdPeriph_Driver/src/stm32f2xx_can.c **** /**
 323:../STM32F2xx_StdPeriph_Driver/src/stm32f2xx_can.c ****   * @brief  Configures the CAN reception filter according to the specified
 324:../STM32F2xx_StdPeriph_Driver/src/stm32f2xx_can.c ****   *         parameters in the CAN_FilterInitStruct.
 325:../STM32F2xx_StdPeriph_Driver/src/stm32f2xx_can.c ****   * @param  CAN_FilterInitStruct: pointer to a CAN_FilterInitTypeDef structure that
 326:../STM32F2xx_StdPeriph_Driver/src/stm32f2xx_can.c ****   *         contains the configuration information.
 327:../STM32F2xx_StdPeriph_Driver/src/stm32f2xx_can.c ****   * @retval None
 328:../STM32F2xx_StdPeriph_Driver/src/stm32f2xx_can.c ****   */
 329:../STM32F2xx_StdPeriph_Driver/src/stm32f2xx_can.c **** void CAN_FilterInit(CAN_FilterInitTypeDef* CAN_FilterInitStruct)
 330:../STM32F2xx_StdPeriph_Driver/src/stm32f2xx_can.c **** {
 361              		.loc 1 330 0
 362              		.cfi_startproc
 363              		@ args = 0, pretend = 0, frame = 16
 364              		@ frame_needed = 1, uses_anonymous_args = 0
 365              		@ link register save eliminated.
 366 0210 80B4     		push	{r7}
 367              	.LCFI6:
 368              		.cfi_def_cfa_offset 4
 369              		.cfi_offset 7, -4
 370 0212 85B0     		sub	sp, sp, #20
 371              	.LCFI7:
 372              		.cfi_def_cfa_offset 24
 373 0214 00AF     		add	r7, sp, #0
 374              	.LCFI8:
 375              		.cfi_def_cfa_register 7
 376 0216 7860     		str	r0, [r7, #4]
 331:../STM32F2xx_StdPeriph_Driver/src/stm32f2xx_can.c ****   uint32_t filter_number_bit_pos = 0;
 377              		.loc 1 331 0
 378 0218 4FF00003 		mov	r3, #0
 379 021c FB60     		str	r3, [r7, #12]
 332:../STM32F2xx_StdPeriph_Driver/src/stm32f2xx_can.c ****   /* Check the parameters */
 333:../STM32F2xx_StdPeriph_Driver/src/stm32f2xx_can.c ****   assert_param(IS_CAN_FILTER_NUMBER(CAN_FilterInitStruct->CAN_FilterNumber));
 334:../STM32F2xx_StdPeriph_Driver/src/stm32f2xx_can.c ****   assert_param(IS_CAN_FILTER_MODE(CAN_FilterInitStruct->CAN_FilterMode));
 335:../STM32F2xx_StdPeriph_Driver/src/stm32f2xx_can.c ****   assert_param(IS_CAN_FILTER_SCALE(CAN_FilterInitStruct->CAN_FilterScale));
 336:../STM32F2xx_StdPeriph_Driver/src/stm32f2xx_can.c ****   assert_param(IS_CAN_FILTER_FIFO(CAN_FilterInitStruct->CAN_FilterFIFOAssignment));
 337:../STM32F2xx_StdPeriph_Driver/src/stm32f2xx_can.c ****   assert_param(IS_FUNCTIONAL_STATE(CAN_FilterInitStruct->CAN_FilterActivation));
 338:../STM32F2xx_StdPeriph_Driver/src/stm32f2xx_can.c **** 
 339:../STM32F2xx_StdPeriph_Driver/src/stm32f2xx_can.c ****   filter_number_bit_pos = ((uint32_t)1) << CAN_FilterInitStruct->CAN_FilterNumber;
 380              		.loc 1 339 0
 381 021e 7B68     		ldr	r3, [r7, #4]
 382 0220 9B7A     		ldrb	r3, [r3, #10]	@ zero_extendqisi2
 383 0222 4FF00102 		mov	r2, #1
 384 0226 02FA03F3 		lsl	r3, r2, r3
 385 022a FB60     		str	r3, [r7, #12]
 340:../STM32F2xx_StdPeriph_Driver/src/stm32f2xx_can.c **** 
 341:../STM32F2xx_StdPeriph_Driver/src/stm32f2xx_can.c ****   /* Initialisation mode for the filter */
 342:../STM32F2xx_StdPeriph_Driver/src/stm32f2xx_can.c ****   CAN1->FMR |= FMR_FINIT;
 386              		.loc 1 342 0
 387 022c 4FF4C843 		mov	r3, #25600
 388 0230 C4F20003 		movt	r3, 16384
 389 0234 4FF4C842 		mov	r2, #25600
 390 0238 C4F20002 		movt	r2, 16384
 391 023c D2F80022 		ldr	r2, [r2, #512]
 392 0240 42F00102 		orr	r2, r2, #1
 393 0244 C3F80022 		str	r2, [r3, #512]
 343:../STM32F2xx_StdPeriph_Driver/src/stm32f2xx_can.c **** 
 344:../STM32F2xx_StdPeriph_Driver/src/stm32f2xx_can.c ****   /* Filter Deactivation */
 345:../STM32F2xx_StdPeriph_Driver/src/stm32f2xx_can.c ****   CAN1->FA1R &= ~(uint32_t)filter_number_bit_pos;
 394              		.loc 1 345 0
 395 0248 4FF4C843 		mov	r3, #25600
 396 024c C4F20003 		movt	r3, 16384
 397 0250 4FF4C842 		mov	r2, #25600
 398 0254 C4F20002 		movt	r2, 16384
 399 0258 D2F81C22 		ldr	r2, [r2, #540]
 400 025c 1146     		mov	r1, r2
 401 025e FA68     		ldr	r2, [r7, #12]
 402 0260 6FEA0202 		mvn	r2, r2
 403 0264 0A40     		ands	r2, r2, r1
 404 0266 C3F81C22 		str	r2, [r3, #540]
 346:../STM32F2xx_StdPeriph_Driver/src/stm32f2xx_can.c **** 
 347:../STM32F2xx_StdPeriph_Driver/src/stm32f2xx_can.c ****   /* Filter Scale */
 348:../STM32F2xx_StdPeriph_Driver/src/stm32f2xx_can.c ****   if (CAN_FilterInitStruct->CAN_FilterScale == CAN_FilterScale_16bit)
 405              		.loc 1 348 0
 406 026a 7B68     		ldr	r3, [r7, #4]
 407 026c 1B7B     		ldrb	r3, [r3, #12]	@ zero_extendqisi2
 408 026e 002B     		cmp	r3, #0
 409 0270 34D1     		bne	.L27
 349:../STM32F2xx_StdPeriph_Driver/src/stm32f2xx_can.c ****   {
 350:../STM32F2xx_StdPeriph_Driver/src/stm32f2xx_can.c ****     /* 16-bit scale for the filter */
 351:../STM32F2xx_StdPeriph_Driver/src/stm32f2xx_can.c ****     CAN1->FS1R &= ~(uint32_t)filter_number_bit_pos;
 410              		.loc 1 351 0
 411 0272 4FF4C843 		mov	r3, #25600
 412 0276 C4F20003 		movt	r3, 16384
 413 027a 4FF4C842 		mov	r2, #25600
 414 027e C4F20002 		movt	r2, 16384
 415 0282 D2F80C22 		ldr	r2, [r2, #524]
 416 0286 1146     		mov	r1, r2
 417 0288 FA68     		ldr	r2, [r7, #12]
 418 028a 6FEA0202 		mvn	r2, r2
 419 028e 0A40     		ands	r2, r2, r1
 420 0290 C3F80C22 		str	r2, [r3, #524]
 352:../STM32F2xx_StdPeriph_Driver/src/stm32f2xx_can.c **** 
 353:../STM32F2xx_StdPeriph_Driver/src/stm32f2xx_can.c ****     /* First 16-bit identifier and First 16-bit mask */
 354:../STM32F2xx_StdPeriph_Driver/src/stm32f2xx_can.c ****     /* Or First 16-bit identifier and Second 16-bit identifier */
 355:../STM32F2xx_StdPeriph_Driver/src/stm32f2xx_can.c ****     CAN1->sFilterRegister[CAN_FilterInitStruct->CAN_FilterNumber].FR1 = 
 421              		.loc 1 355 0
 422 0294 4FF4C843 		mov	r3, #25600
 423 0298 C4F20003 		movt	r3, 16384
 424 029c 7A68     		ldr	r2, [r7, #4]
 425 029e 927A     		ldrb	r2, [r2, #10]	@ zero_extendqisi2
 356:../STM32F2xx_StdPeriph_Driver/src/stm32f2xx_can.c ****        ((0x0000FFFF & (uint32_t)CAN_FilterInitStruct->CAN_FilterMaskIdLow) << 16) |
 426              		.loc 1 356 0
 427 02a0 7968     		ldr	r1, [r7, #4]
 428 02a2 C988     		ldrh	r1, [r1, #6]
 429 02a4 4FEA0140 		lsl	r0, r1, #16
 357:../STM32F2xx_StdPeriph_Driver/src/stm32f2xx_can.c ****         (0x0000FFFF & (uint32_t)CAN_FilterInitStruct->CAN_FilterIdLow);
 430              		.loc 1 357 0
 431 02a8 7968     		ldr	r1, [r7, #4]
 432 02aa 4988     		ldrh	r1, [r1, #2]
 356:../STM32F2xx_StdPeriph_Driver/src/stm32f2xx_can.c ****        ((0x0000FFFF & (uint32_t)CAN_FilterInitStruct->CAN_FilterMaskIdLow) << 16) |
 433              		.loc 1 356 0
 434 02ac 0143     		orrs	r1, r1, r0
 355:../STM32F2xx_StdPeriph_Driver/src/stm32f2xx_can.c ****     CAN1->sFilterRegister[CAN_FilterInitStruct->CAN_FilterNumber].FR1 = 
 435              		.loc 1 355 0
 436 02ae 02F14802 		add	r2, r2, #72
 437 02b2 43F83210 		str	r1, [r3, r2, lsl #3]
 358:../STM32F2xx_StdPeriph_Driver/src/stm32f2xx_can.c **** 
 359:../STM32F2xx_StdPeriph_Driver/src/stm32f2xx_can.c ****     /* Second 16-bit identifier and Second 16-bit mask */
 360:../STM32F2xx_StdPeriph_Driver/src/stm32f2xx_can.c ****     /* Or Third 16-bit identifier and Fourth 16-bit identifier */
 361:../STM32F2xx_StdPeriph_Driver/src/stm32f2xx_can.c ****     CAN1->sFilterRegister[CAN_FilterInitStruct->CAN_FilterNumber].FR2 = 
 438              		.loc 1 361 0
 439 02b6 4FF4C842 		mov	r2, #25600
 440 02ba C4F20002 		movt	r2, 16384
 441 02be 7B68     		ldr	r3, [r7, #4]
 442 02c0 9B7A     		ldrb	r3, [r3, #10]	@ zero_extendqisi2
 362:../STM32F2xx_StdPeriph_Driver/src/stm32f2xx_can.c ****        ((0x0000FFFF & (uint32_t)CAN_FilterInitStruct->CAN_FilterMaskIdHigh) << 16) |
 443              		.loc 1 362 0
 444 02c2 7968     		ldr	r1, [r7, #4]
 445 02c4 8988     		ldrh	r1, [r1, #4]
 446 02c6 4FEA0140 		lsl	r0, r1, #16
 363:../STM32F2xx_StdPeriph_Driver/src/stm32f2xx_can.c ****         (0x0000FFFF & (uint32_t)CAN_FilterInitStruct->CAN_FilterIdHigh);
 447              		.loc 1 363 0
 448 02ca 7968     		ldr	r1, [r7, #4]
 449 02cc 0988     		ldrh	r1, [r1, #0]
 362:../STM32F2xx_StdPeriph_Driver/src/stm32f2xx_can.c ****        ((0x0000FFFF & (uint32_t)CAN_FilterInitStruct->CAN_FilterMaskIdHigh) << 16) |
 450              		.loc 1 362 0
 451 02ce 0143     		orrs	r1, r1, r0
 361:../STM32F2xx_StdPeriph_Driver/src/stm32f2xx_can.c ****     CAN1->sFilterRegister[CAN_FilterInitStruct->CAN_FilterNumber].FR2 = 
 452              		.loc 1 361 0
 453 02d0 03F14803 		add	r3, r3, #72
 454 02d4 4FEAC303 		lsl	r3, r3, #3
 455 02d8 D318     		adds	r3, r2, r3
 456 02da 5960     		str	r1, [r3, #4]
 457              	.L27:
 364:../STM32F2xx_StdPeriph_Driver/src/stm32f2xx_can.c ****   }
 365:../STM32F2xx_StdPeriph_Driver/src/stm32f2xx_can.c **** 
 366:../STM32F2xx_StdPeriph_Driver/src/stm32f2xx_can.c ****   if (CAN_FilterInitStruct->CAN_FilterScale == CAN_FilterScale_32bit)
 458              		.loc 1 366 0
 459 02dc 7B68     		ldr	r3, [r7, #4]
 460 02de 1B7B     		ldrb	r3, [r3, #12]	@ zero_extendqisi2
 461 02e0 012B     		cmp	r3, #1
 462 02e2 32D1     		bne	.L28
 367:../STM32F2xx_StdPeriph_Driver/src/stm32f2xx_can.c ****   {
 368:../STM32F2xx_StdPeriph_Driver/src/stm32f2xx_can.c ****     /* 32-bit scale for the filter */
 369:../STM32F2xx_StdPeriph_Driver/src/stm32f2xx_can.c ****     CAN1->FS1R |= filter_number_bit_pos;
 463              		.loc 1 369 0
 464 02e4 4FF4C843 		mov	r3, #25600
 465 02e8 C4F20003 		movt	r3, 16384
 466 02ec 4FF4C842 		mov	r2, #25600
 467 02f0 C4F20002 		movt	r2, 16384
 468 02f4 D2F80C22 		ldr	r2, [r2, #524]
 469 02f8 1146     		mov	r1, r2
 470 02fa FA68     		ldr	r2, [r7, #12]
 471 02fc 0A43     		orrs	r2, r2, r1
 472 02fe C3F80C22 		str	r2, [r3, #524]
 370:../STM32F2xx_StdPeriph_Driver/src/stm32f2xx_can.c ****     /* 32-bit identifier or First 32-bit identifier */
 371:../STM32F2xx_StdPeriph_Driver/src/stm32f2xx_can.c ****     CAN1->sFilterRegister[CAN_FilterInitStruct->CAN_FilterNumber].FR1 = 
 473              		.loc 1 371 0
 474 0302 4FF4C843 		mov	r3, #25600
 475 0306 C4F20003 		movt	r3, 16384
 476 030a 7A68     		ldr	r2, [r7, #4]
 477 030c 927A     		ldrb	r2, [r2, #10]	@ zero_extendqisi2
 372:../STM32F2xx_StdPeriph_Driver/src/stm32f2xx_can.c ****        ((0x0000FFFF & (uint32_t)CAN_FilterInitStruct->CAN_FilterIdHigh) << 16) |
 478              		.loc 1 372 0
 479 030e 7968     		ldr	r1, [r7, #4]
 480 0310 0988     		ldrh	r1, [r1, #0]
 481 0312 4FEA0140 		lsl	r0, r1, #16
 373:../STM32F2xx_StdPeriph_Driver/src/stm32f2xx_can.c ****         (0x0000FFFF & (uint32_t)CAN_FilterInitStruct->CAN_FilterIdLow);
 482              		.loc 1 373 0
 483 0316 7968     		ldr	r1, [r7, #4]
 484 0318 4988     		ldrh	r1, [r1, #2]
 372:../STM32F2xx_StdPeriph_Driver/src/stm32f2xx_can.c ****        ((0x0000FFFF & (uint32_t)CAN_FilterInitStruct->CAN_FilterIdHigh) << 16) |
 485              		.loc 1 372 0
 486 031a 0143     		orrs	r1, r1, r0
 371:../STM32F2xx_StdPeriph_Driver/src/stm32f2xx_can.c ****     CAN1->sFilterRegister[CAN_FilterInitStruct->CAN_FilterNumber].FR1 = 
 487              		.loc 1 371 0
 488 031c 02F14802 		add	r2, r2, #72
 489 0320 43F83210 		str	r1, [r3, r2, lsl #3]
 374:../STM32F2xx_StdPeriph_Driver/src/stm32f2xx_can.c ****     /* 32-bit mask or Second 32-bit identifier */
 375:../STM32F2xx_StdPeriph_Driver/src/stm32f2xx_can.c ****     CAN1->sFilterRegister[CAN_FilterInitStruct->CAN_FilterNumber].FR2 = 
 490              		.loc 1 375 0
 491 0324 4FF4C842 		mov	r2, #25600
 492 0328 C4F20002 		movt	r2, 16384
 493 032c 7B68     		ldr	r3, [r7, #4]
 494 032e 9B7A     		ldrb	r3, [r3, #10]	@ zero_extendqisi2
 376:../STM32F2xx_StdPeriph_Driver/src/stm32f2xx_can.c ****        ((0x0000FFFF & (uint32_t)CAN_FilterInitStruct->CAN_FilterMaskIdHigh) << 16) |
 495              		.loc 1 376 0
 496 0330 7968     		ldr	r1, [r7, #4]
 497 0332 8988     		ldrh	r1, [r1, #4]
 498 0334 4FEA0140 		lsl	r0, r1, #16
 377:../STM32F2xx_StdPeriph_Driver/src/stm32f2xx_can.c ****         (0x0000FFFF & (uint32_t)CAN_FilterInitStruct->CAN_FilterMaskIdLow);
 499              		.loc 1 377 0
 500 0338 7968     		ldr	r1, [r7, #4]
 501 033a C988     		ldrh	r1, [r1, #6]
 376:../STM32F2xx_StdPeriph_Driver/src/stm32f2xx_can.c ****        ((0x0000FFFF & (uint32_t)CAN_FilterInitStruct->CAN_FilterMaskIdHigh) << 16) |
 502              		.loc 1 376 0
 503 033c 0143     		orrs	r1, r1, r0
 375:../STM32F2xx_StdPeriph_Driver/src/stm32f2xx_can.c ****     CAN1->sFilterRegister[CAN_FilterInitStruct->CAN_FilterNumber].FR2 = 
 504              		.loc 1 375 0
 505 033e 03F14803 		add	r3, r3, #72
 506 0342 4FEAC303 		lsl	r3, r3, #3
 507 0346 D318     		adds	r3, r2, r3
 508 0348 5960     		str	r1, [r3, #4]
 509              	.L28:
 378:../STM32F2xx_StdPeriph_Driver/src/stm32f2xx_can.c ****   }
 379:../STM32F2xx_StdPeriph_Driver/src/stm32f2xx_can.c **** 
 380:../STM32F2xx_StdPeriph_Driver/src/stm32f2xx_can.c ****   /* Filter Mode */
 381:../STM32F2xx_StdPeriph_Driver/src/stm32f2xx_can.c ****   if (CAN_FilterInitStruct->CAN_FilterMode == CAN_FilterMode_IdMask)
 510              		.loc 1 381 0
 511 034a 7B68     		ldr	r3, [r7, #4]
 512 034c DB7A     		ldrb	r3, [r3, #11]	@ zero_extendqisi2
 513 034e 002B     		cmp	r3, #0
 514 0350 11D1     		bne	.L29
 382:../STM32F2xx_StdPeriph_Driver/src/stm32f2xx_can.c ****   {
 383:../STM32F2xx_StdPeriph_Driver/src/stm32f2xx_can.c ****     /*Id/Mask mode for the filter*/
 384:../STM32F2xx_StdPeriph_Driver/src/stm32f2xx_can.c ****     CAN1->FM1R &= ~(uint32_t)filter_number_bit_pos;
 515              		.loc 1 384 0
 516 0352 4FF4C843 		mov	r3, #25600
 517 0356 C4F20003 		movt	r3, 16384
 518 035a 4FF4C842 		mov	r2, #25600
 519 035e C4F20002 		movt	r2, 16384
 520 0362 D2F80422 		ldr	r2, [r2, #516]
 521 0366 1146     		mov	r1, r2
 522 0368 FA68     		ldr	r2, [r7, #12]
 523 036a 6FEA0202 		mvn	r2, r2
 524 036e 0A40     		ands	r2, r2, r1
 525 0370 C3F80422 		str	r2, [r3, #516]
 526 0374 0EE0     		b	.L30
 527              	.L29:
 385:../STM32F2xx_StdPeriph_Driver/src/stm32f2xx_can.c ****   }
 386:../STM32F2xx_StdPeriph_Driver/src/stm32f2xx_can.c ****   else /* CAN_FilterInitStruct->CAN_FilterMode == CAN_FilterMode_IdList */
 387:../STM32F2xx_StdPeriph_Driver/src/stm32f2xx_can.c ****   {
 388:../STM32F2xx_StdPeriph_Driver/src/stm32f2xx_can.c ****     /*Identifier list mode for the filter*/
 389:../STM32F2xx_StdPeriph_Driver/src/stm32f2xx_can.c ****     CAN1->FM1R |= (uint32_t)filter_number_bit_pos;
 528              		.loc 1 389 0
 529 0376 4FF4C843 		mov	r3, #25600
 530 037a C4F20003 		movt	r3, 16384
 531 037e 4FF4C842 		mov	r2, #25600
 532 0382 C4F20002 		movt	r2, 16384
 533 0386 D2F80422 		ldr	r2, [r2, #516]
 534 038a 1146     		mov	r1, r2
 535 038c FA68     		ldr	r2, [r7, #12]
 536 038e 0A43     		orrs	r2, r2, r1
 537 0390 C3F80422 		str	r2, [r3, #516]
 538              	.L30:
 390:../STM32F2xx_StdPeriph_Driver/src/stm32f2xx_can.c ****   }
 391:../STM32F2xx_StdPeriph_Driver/src/stm32f2xx_can.c **** 
 392:../STM32F2xx_StdPeriph_Driver/src/stm32f2xx_can.c ****   /* Filter FIFO assignment */
 393:../STM32F2xx_StdPeriph_Driver/src/stm32f2xx_can.c ****   if (CAN_FilterInitStruct->CAN_FilterFIFOAssignment == CAN_Filter_FIFO0)
 539              		.loc 1 393 0
 540 0394 7B68     		ldr	r3, [r7, #4]
 541 0396 1B89     		ldrh	r3, [r3, #8]
 542 0398 002B     		cmp	r3, #0
 543 039a 10D1     		bne	.L31
 394:../STM32F2xx_StdPeriph_Driver/src/stm32f2xx_can.c ****   {
 395:../STM32F2xx_StdPeriph_Driver/src/stm32f2xx_can.c ****     /* FIFO 0 assignation for the filter */
 396:../STM32F2xx_StdPeriph_Driver/src/stm32f2xx_can.c ****     CAN1->FFA1R &= ~(uint32_t)filter_number_bit_pos;
 544              		.loc 1 396 0
 545 039c 4FF4C843 		mov	r3, #25600
 546 03a0 C4F20003 		movt	r3, 16384
 547 03a4 4FF4C842 		mov	r2, #25600
 548 03a8 C4F20002 		movt	r2, 16384
 549 03ac D2F81422 		ldr	r2, [r2, #532]
 550 03b0 1146     		mov	r1, r2
 551 03b2 FA68     		ldr	r2, [r7, #12]
 552 03b4 6FEA0202 		mvn	r2, r2
 553 03b8 0A40     		ands	r2, r2, r1
 554 03ba C3F81422 		str	r2, [r3, #532]
 555              	.L31:
 397:../STM32F2xx_StdPeriph_Driver/src/stm32f2xx_can.c ****   }
 398:../STM32F2xx_StdPeriph_Driver/src/stm32f2xx_can.c **** 
 399:../STM32F2xx_StdPeriph_Driver/src/stm32f2xx_can.c ****   if (CAN_FilterInitStruct->CAN_FilterFIFOAssignment == CAN_Filter_FIFO1)
 556              		.loc 1 399 0
 557 03be 7B68     		ldr	r3, [r7, #4]
 558 03c0 1B89     		ldrh	r3, [r3, #8]
 559 03c2 012B     		cmp	r3, #1
 560 03c4 0ED1     		bne	.L32
 400:../STM32F2xx_StdPeriph_Driver/src/stm32f2xx_can.c ****   {
 401:../STM32F2xx_StdPeriph_Driver/src/stm32f2xx_can.c ****     /* FIFO 1 assignation for the filter */
 402:../STM32F2xx_StdPeriph_Driver/src/stm32f2xx_can.c ****     CAN1->FFA1R |= (uint32_t)filter_number_bit_pos;
 561              		.loc 1 402 0
 562 03c6 4FF4C843 		mov	r3, #25600
 563 03ca C4F20003 		movt	r3, 16384
 564 03ce 4FF4C842 		mov	r2, #25600
 565 03d2 C4F20002 		movt	r2, 16384
 566 03d6 D2F81422 		ldr	r2, [r2, #532]
 567 03da 1146     		mov	r1, r2
 568 03dc FA68     		ldr	r2, [r7, #12]
 569 03de 0A43     		orrs	r2, r2, r1
 570 03e0 C3F81422 		str	r2, [r3, #532]
 571              	.L32:
 403:../STM32F2xx_StdPeriph_Driver/src/stm32f2xx_can.c ****   }
 404:../STM32F2xx_StdPeriph_Driver/src/stm32f2xx_can.c ****   
 405:../STM32F2xx_StdPeriph_Driver/src/stm32f2xx_can.c ****   /* Filter activation */
 406:../STM32F2xx_StdPeriph_Driver/src/stm32f2xx_can.c ****   if (CAN_FilterInitStruct->CAN_FilterActivation == ENABLE)
 572              		.loc 1 406 0
 573 03e4 7B68     		ldr	r3, [r7, #4]
 574 03e6 5B7B     		ldrb	r3, [r3, #13]	@ zero_extendqisi2
 575 03e8 012B     		cmp	r3, #1
 576 03ea 0ED1     		bne	.L33
 407:../STM32F2xx_StdPeriph_Driver/src/stm32f2xx_can.c ****   {
 408:../STM32F2xx_StdPeriph_Driver/src/stm32f2xx_can.c ****     CAN1->FA1R |= filter_number_bit_pos;
 577              		.loc 1 408 0
 578 03ec 4FF4C843 		mov	r3, #25600
 579 03f0 C4F20003 		movt	r3, 16384
 580 03f4 4FF4C842 		mov	r2, #25600
 581 03f8 C4F20002 		movt	r2, 16384
 582 03fc D2F81C22 		ldr	r2, [r2, #540]
 583 0400 1146     		mov	r1, r2
 584 0402 FA68     		ldr	r2, [r7, #12]
 585 0404 0A43     		orrs	r2, r2, r1
 586 0406 C3F81C22 		str	r2, [r3, #540]
 587              	.L33:
 409:../STM32F2xx_StdPeriph_Driver/src/stm32f2xx_can.c ****   }
 410:../STM32F2xx_StdPeriph_Driver/src/stm32f2xx_can.c **** 
 411:../STM32F2xx_StdPeriph_Driver/src/stm32f2xx_can.c ****   /* Leave the initialisation mode for the filter */
 412:../STM32F2xx_StdPeriph_Driver/src/stm32f2xx_can.c ****   CAN1->FMR &= ~FMR_FINIT;
 588              		.loc 1 412 0
 589 040a 4FF4C843 		mov	r3, #25600
 590 040e C4F20003 		movt	r3, 16384
 591 0412 4FF4C842 		mov	r2, #25600
 592 0416 C4F20002 		movt	r2, 16384
 593 041a D2F80022 		ldr	r2, [r2, #512]
 594 041e 22F00102 		bic	r2, r2, #1
 595 0422 C3F80022 		str	r2, [r3, #512]
 413:../STM32F2xx_StdPeriph_Driver/src/stm32f2xx_can.c **** }
 596              		.loc 1 413 0
 597 0426 07F11407 		add	r7, r7, #20
 598 042a BD46     		mov	sp, r7
 599 042c 80BC     		pop	{r7}
 600 042e 7047     		bx	lr
 601              		.cfi_endproc
 602              	.LFE31:
 604              		.align	2
 605              		.global	CAN_StructInit
 606              		.thumb
 607              		.thumb_func
 609              	CAN_StructInit:
 610              	.LFB32:
 414:../STM32F2xx_StdPeriph_Driver/src/stm32f2xx_can.c **** 
 415:../STM32F2xx_StdPeriph_Driver/src/stm32f2xx_can.c **** /**
 416:../STM32F2xx_StdPeriph_Driver/src/stm32f2xx_can.c ****   * @brief  Fills each CAN_InitStruct member with its default value.
 417:../STM32F2xx_StdPeriph_Driver/src/stm32f2xx_can.c ****   * @param  CAN_InitStruct: pointer to a CAN_InitTypeDef structure which ill be initialized.
 418:../STM32F2xx_StdPeriph_Driver/src/stm32f2xx_can.c ****   * @retval None
 419:../STM32F2xx_StdPeriph_Driver/src/stm32f2xx_can.c ****   */
 420:../STM32F2xx_StdPeriph_Driver/src/stm32f2xx_can.c **** void CAN_StructInit(CAN_InitTypeDef* CAN_InitStruct)
 421:../STM32F2xx_StdPeriph_Driver/src/stm32f2xx_can.c **** {
 611              		.loc 1 421 0
 612              		.cfi_startproc
 613              		@ args = 0, pretend = 0, frame = 8
 614              		@ frame_needed = 1, uses_anonymous_args = 0
 615              		@ link register save eliminated.
 616 0430 80B4     		push	{r7}
 617              	.LCFI9:
 618              		.cfi_def_cfa_offset 4
 619              		.cfi_offset 7, -4
 620 0432 83B0     		sub	sp, sp, #12
 621              	.LCFI10:
 622              		.cfi_def_cfa_offset 16
 623 0434 00AF     		add	r7, sp, #0
 624              	.LCFI11:
 625              		.cfi_def_cfa_register 7
 626 0436 7860     		str	r0, [r7, #4]
 422:../STM32F2xx_StdPeriph_Driver/src/stm32f2xx_can.c ****   /* Reset CAN init structure parameters values */
 423:../STM32F2xx_StdPeriph_Driver/src/stm32f2xx_can.c ****   
 424:../STM32F2xx_StdPeriph_Driver/src/stm32f2xx_can.c ****   /* Initialize the time triggered communication mode */
 425:../STM32F2xx_StdPeriph_Driver/src/stm32f2xx_can.c ****   CAN_InitStruct->CAN_TTCM = DISABLE;
 627              		.loc 1 425 0
 628 0438 7B68     		ldr	r3, [r7, #4]
 629 043a 4FF00002 		mov	r2, #0
 630 043e 9A71     		strb	r2, [r3, #6]
 426:../STM32F2xx_StdPeriph_Driver/src/stm32f2xx_can.c ****   
 427:../STM32F2xx_StdPeriph_Driver/src/stm32f2xx_can.c ****   /* Initialize the automatic bus-off management */
 428:../STM32F2xx_StdPeriph_Driver/src/stm32f2xx_can.c ****   CAN_InitStruct->CAN_ABOM = DISABLE;
 631              		.loc 1 428 0
 632 0440 7B68     		ldr	r3, [r7, #4]
 633 0442 4FF00002 		mov	r2, #0
 634 0446 DA71     		strb	r2, [r3, #7]
 429:../STM32F2xx_StdPeriph_Driver/src/stm32f2xx_can.c ****   
 430:../STM32F2xx_StdPeriph_Driver/src/stm32f2xx_can.c ****   /* Initialize the automatic wake-up mode */
 431:../STM32F2xx_StdPeriph_Driver/src/stm32f2xx_can.c ****   CAN_InitStruct->CAN_AWUM = DISABLE;
 635              		.loc 1 431 0
 636 0448 7B68     		ldr	r3, [r7, #4]
 637 044a 4FF00002 		mov	r2, #0
 638 044e 1A72     		strb	r2, [r3, #8]
 432:../STM32F2xx_StdPeriph_Driver/src/stm32f2xx_can.c ****   
 433:../STM32F2xx_StdPeriph_Driver/src/stm32f2xx_can.c ****   /* Initialize the no automatic retransmission */
 434:../STM32F2xx_StdPeriph_Driver/src/stm32f2xx_can.c ****   CAN_InitStruct->CAN_NART = DISABLE;
 639              		.loc 1 434 0
 640 0450 7B68     		ldr	r3, [r7, #4]
 641 0452 4FF00002 		mov	r2, #0
 642 0456 5A72     		strb	r2, [r3, #9]
 435:../STM32F2xx_StdPeriph_Driver/src/stm32f2xx_can.c ****   
 436:../STM32F2xx_StdPeriph_Driver/src/stm32f2xx_can.c ****   /* Initialize the receive FIFO locked mode */
 437:../STM32F2xx_StdPeriph_Driver/src/stm32f2xx_can.c ****   CAN_InitStruct->CAN_RFLM = DISABLE;
 643              		.loc 1 437 0
 644 0458 7B68     		ldr	r3, [r7, #4]
 645 045a 4FF00002 		mov	r2, #0
 646 045e 9A72     		strb	r2, [r3, #10]
 438:../STM32F2xx_StdPeriph_Driver/src/stm32f2xx_can.c ****   
 439:../STM32F2xx_StdPeriph_Driver/src/stm32f2xx_can.c ****   /* Initialize the transmit FIFO priority */
 440:../STM32F2xx_StdPeriph_Driver/src/stm32f2xx_can.c ****   CAN_InitStruct->CAN_TXFP = DISABLE;
 647              		.loc 1 440 0
 648 0460 7B68     		ldr	r3, [r7, #4]
 649 0462 4FF00002 		mov	r2, #0
 650 0466 DA72     		strb	r2, [r3, #11]
 441:../STM32F2xx_StdPeriph_Driver/src/stm32f2xx_can.c ****   
 442:../STM32F2xx_StdPeriph_Driver/src/stm32f2xx_can.c ****   /* Initialize the CAN_Mode member */
 443:../STM32F2xx_StdPeriph_Driver/src/stm32f2xx_can.c ****   CAN_InitStruct->CAN_Mode = CAN_Mode_Normal;
 651              		.loc 1 443 0
 652 0468 7B68     		ldr	r3, [r7, #4]
 653 046a 4FF00002 		mov	r2, #0
 654 046e 9A70     		strb	r2, [r3, #2]
 444:../STM32F2xx_StdPeriph_Driver/src/stm32f2xx_can.c ****   
 445:../STM32F2xx_StdPeriph_Driver/src/stm32f2xx_can.c ****   /* Initialize the CAN_SJW member */
 446:../STM32F2xx_StdPeriph_Driver/src/stm32f2xx_can.c ****   CAN_InitStruct->CAN_SJW = CAN_SJW_1tq;
 655              		.loc 1 446 0
 656 0470 7B68     		ldr	r3, [r7, #4]
 657 0472 4FF00002 		mov	r2, #0
 658 0476 DA70     		strb	r2, [r3, #3]
 447:../STM32F2xx_StdPeriph_Driver/src/stm32f2xx_can.c ****   
 448:../STM32F2xx_StdPeriph_Driver/src/stm32f2xx_can.c ****   /* Initialize the CAN_BS1 member */
 449:../STM32F2xx_StdPeriph_Driver/src/stm32f2xx_can.c ****   CAN_InitStruct->CAN_BS1 = CAN_BS1_4tq;
 659              		.loc 1 449 0
 660 0478 7B68     		ldr	r3, [r7, #4]
 661 047a 4FF00302 		mov	r2, #3
 662 047e 1A71     		strb	r2, [r3, #4]
 450:../STM32F2xx_StdPeriph_Driver/src/stm32f2xx_can.c ****   
 451:../STM32F2xx_StdPeriph_Driver/src/stm32f2xx_can.c ****   /* Initialize the CAN_BS2 member */
 452:../STM32F2xx_StdPeriph_Driver/src/stm32f2xx_can.c ****   CAN_InitStruct->CAN_BS2 = CAN_BS2_3tq;
 663              		.loc 1 452 0
 664 0480 7B68     		ldr	r3, [r7, #4]
 665 0482 4FF00202 		mov	r2, #2
 666 0486 5A71     		strb	r2, [r3, #5]
 453:../STM32F2xx_StdPeriph_Driver/src/stm32f2xx_can.c ****   
 454:../STM32F2xx_StdPeriph_Driver/src/stm32f2xx_can.c ****   /* Initialize the CAN_Prescaler member */
 455:../STM32F2xx_StdPeriph_Driver/src/stm32f2xx_can.c ****   CAN_InitStruct->CAN_Prescaler = 1;
 667              		.loc 1 455 0
 668 0488 7B68     		ldr	r3, [r7, #4]
 669 048a 4FF00102 		mov	r2, #1
 670 048e 1A80     		strh	r2, [r3, #0]	@ movhi
 456:../STM32F2xx_StdPeriph_Driver/src/stm32f2xx_can.c **** }
 671              		.loc 1 456 0
 672 0490 07F10C07 		add	r7, r7, #12
 673 0494 BD46     		mov	sp, r7
 674 0496 80BC     		pop	{r7}
 675 0498 7047     		bx	lr
 676              		.cfi_endproc
 677              	.LFE32:
 679 049a 00BF     		.align	2
 680              		.global	CAN_SlaveStartBank
 681              		.thumb
 682              		.thumb_func
 684              	CAN_SlaveStartBank:
 685              	.LFB33:
 457:../STM32F2xx_StdPeriph_Driver/src/stm32f2xx_can.c **** 
 458:../STM32F2xx_StdPeriph_Driver/src/stm32f2xx_can.c **** /**
 459:../STM32F2xx_StdPeriph_Driver/src/stm32f2xx_can.c ****   * @brief  Select the start bank filter for slave CAN.
 460:../STM32F2xx_StdPeriph_Driver/src/stm32f2xx_can.c ****   * @param  CAN_BankNumber: Select the start slave bank filter from 1..27.
 461:../STM32F2xx_StdPeriph_Driver/src/stm32f2xx_can.c ****   * @retval None
 462:../STM32F2xx_StdPeriph_Driver/src/stm32f2xx_can.c ****   */
 463:../STM32F2xx_StdPeriph_Driver/src/stm32f2xx_can.c **** void CAN_SlaveStartBank(uint8_t CAN_BankNumber) 
 464:../STM32F2xx_StdPeriph_Driver/src/stm32f2xx_can.c **** {
 686              		.loc 1 464 0
 687              		.cfi_startproc
 688              		@ args = 0, pretend = 0, frame = 8
 689              		@ frame_needed = 1, uses_anonymous_args = 0
 690              		@ link register save eliminated.
 691 049c 80B4     		push	{r7}
 692              	.LCFI12:
 693              		.cfi_def_cfa_offset 4
 694              		.cfi_offset 7, -4
 695 049e 83B0     		sub	sp, sp, #12
 696              	.LCFI13:
 697              		.cfi_def_cfa_offset 16
 698 04a0 00AF     		add	r7, sp, #0
 699              	.LCFI14:
 700              		.cfi_def_cfa_register 7
 701 04a2 0346     		mov	r3, r0
 702 04a4 FB71     		strb	r3, [r7, #7]
 465:../STM32F2xx_StdPeriph_Driver/src/stm32f2xx_can.c ****   /* Check the parameters */
 466:../STM32F2xx_StdPeriph_Driver/src/stm32f2xx_can.c ****   assert_param(IS_CAN_BANKNUMBER(CAN_BankNumber));
 467:../STM32F2xx_StdPeriph_Driver/src/stm32f2xx_can.c ****   
 468:../STM32F2xx_StdPeriph_Driver/src/stm32f2xx_can.c ****   /* Enter Initialisation mode for the filter */
 469:../STM32F2xx_StdPeriph_Driver/src/stm32f2xx_can.c ****   CAN1->FMR |= FMR_FINIT;
 703              		.loc 1 469 0
 704 04a6 4FF4C843 		mov	r3, #25600
 705 04aa C4F20003 		movt	r3, 16384
 706 04ae 4FF4C842 		mov	r2, #25600
 707 04b2 C4F20002 		movt	r2, 16384
 708 04b6 D2F80022 		ldr	r2, [r2, #512]
 709 04ba 42F00102 		orr	r2, r2, #1
 710 04be C3F80022 		str	r2, [r3, #512]
 470:../STM32F2xx_StdPeriph_Driver/src/stm32f2xx_can.c ****   
 471:../STM32F2xx_StdPeriph_Driver/src/stm32f2xx_can.c ****   /* Select the start slave bank */
 472:../STM32F2xx_StdPeriph_Driver/src/stm32f2xx_can.c ****   CAN1->FMR &= (uint32_t)0xFFFFC0F1 ;
 711              		.loc 1 472 0
 712 04c2 4FF4C843 		mov	r3, #25600
 713 04c6 C4F20003 		movt	r3, 16384
 714 04ca 4FF4C842 		mov	r2, #25600
 715 04ce C4F20002 		movt	r2, 16384
 716 04d2 D2F80022 		ldr	r2, [r2, #512]
 717 04d6 22F47C52 		bic	r2, r2, #16128
 718 04da 22F00E02 		bic	r2, r2, #14
 719 04de C3F80022 		str	r2, [r3, #512]
 473:../STM32F2xx_StdPeriph_Driver/src/stm32f2xx_can.c ****   CAN1->FMR |= (uint32_t)(CAN_BankNumber)<<8;
 720              		.loc 1 473 0
 721 04e2 4FF4C843 		mov	r3, #25600
 722 04e6 C4F20003 		movt	r3, 16384
 723 04ea 4FF4C842 		mov	r2, #25600
 724 04ee C4F20002 		movt	r2, 16384
 725 04f2 D2F80022 		ldr	r2, [r2, #512]
 726 04f6 1146     		mov	r1, r2
 727 04f8 FA79     		ldrb	r2, [r7, #7]	@ zero_extendqisi2
 728 04fa 4FEA0222 		lsl	r2, r2, #8
 729 04fe 0A43     		orrs	r2, r2, r1
 730 0500 C3F80022 		str	r2, [r3, #512]
 474:../STM32F2xx_StdPeriph_Driver/src/stm32f2xx_can.c ****   
 475:../STM32F2xx_StdPeriph_Driver/src/stm32f2xx_can.c ****   /* Leave Initialisation mode for the filter */
 476:../STM32F2xx_StdPeriph_Driver/src/stm32f2xx_can.c ****   CAN1->FMR &= ~FMR_FINIT;
 731              		.loc 1 476 0
 732 0504 4FF4C843 		mov	r3, #25600
 733 0508 C4F20003 		movt	r3, 16384
 734 050c 4FF4C842 		mov	r2, #25600
 735 0510 C4F20002 		movt	r2, 16384
 736 0514 D2F80022 		ldr	r2, [r2, #512]
 737 0518 22F00102 		bic	r2, r2, #1
 738 051c C3F80022 		str	r2, [r3, #512]
 477:../STM32F2xx_StdPeriph_Driver/src/stm32f2xx_can.c **** }
 739              		.loc 1 477 0
 740 0520 07F10C07 		add	r7, r7, #12
 741 0524 BD46     		mov	sp, r7
 742 0526 80BC     		pop	{r7}
 743 0528 7047     		bx	lr
 744              		.cfi_endproc
 745              	.LFE33:
 747 052a 00BF     		.align	2
 748              		.global	CAN_DBGFreeze
 749              		.thumb
 750              		.thumb_func
 752              	CAN_DBGFreeze:
 753              	.LFB34:
 478:../STM32F2xx_StdPeriph_Driver/src/stm32f2xx_can.c **** 
 479:../STM32F2xx_StdPeriph_Driver/src/stm32f2xx_can.c **** /**
 480:../STM32F2xx_StdPeriph_Driver/src/stm32f2xx_can.c ****   * @brief  Enables or disables the DBG Freeze for CAN.
 481:../STM32F2xx_StdPeriph_Driver/src/stm32f2xx_can.c ****   * @param  CANx: where x can be 1 or 2 to to select the CAN peripheral.
 482:../STM32F2xx_StdPeriph_Driver/src/stm32f2xx_can.c ****   * @param  NewState: new state of the CAN peripheral. 
 483:../STM32F2xx_StdPeriph_Driver/src/stm32f2xx_can.c ****   *          This parameter can be: ENABLE (CAN reception/transmission is frozen
 484:../STM32F2xx_StdPeriph_Driver/src/stm32f2xx_can.c ****   *          during debug. Reception FIFOs can still be accessed/controlled normally) 
 485:../STM32F2xx_StdPeriph_Driver/src/stm32f2xx_can.c ****   *          or DISABLE (CAN is working during debug).
 486:../STM32F2xx_StdPeriph_Driver/src/stm32f2xx_can.c ****   * @retval None
 487:../STM32F2xx_StdPeriph_Driver/src/stm32f2xx_can.c ****   */
 488:../STM32F2xx_StdPeriph_Driver/src/stm32f2xx_can.c **** void CAN_DBGFreeze(CAN_TypeDef* CANx, FunctionalState NewState)
 489:../STM32F2xx_StdPeriph_Driver/src/stm32f2xx_can.c **** {
 754              		.loc 1 489 0
 755              		.cfi_startproc
 756              		@ args = 0, pretend = 0, frame = 8
 757              		@ frame_needed = 1, uses_anonymous_args = 0
 758              		@ link register save eliminated.
 759 052c 80B4     		push	{r7}
 760              	.LCFI15:
 761              		.cfi_def_cfa_offset 4
 762              		.cfi_offset 7, -4
 763 052e 83B0     		sub	sp, sp, #12
 764              	.LCFI16:
 765              		.cfi_def_cfa_offset 16
 766 0530 00AF     		add	r7, sp, #0
 767              	.LCFI17:
 768              		.cfi_def_cfa_register 7
 769 0532 7860     		str	r0, [r7, #4]
 770 0534 0B46     		mov	r3, r1
 771 0536 FB70     		strb	r3, [r7, #3]
 490:../STM32F2xx_StdPeriph_Driver/src/stm32f2xx_can.c ****   /* Check the parameters */
 491:../STM32F2xx_StdPeriph_Driver/src/stm32f2xx_can.c ****   assert_param(IS_CAN_ALL_PERIPH(CANx));
 492:../STM32F2xx_StdPeriph_Driver/src/stm32f2xx_can.c ****   assert_param(IS_FUNCTIONAL_STATE(NewState));
 493:../STM32F2xx_StdPeriph_Driver/src/stm32f2xx_can.c ****   
 494:../STM32F2xx_StdPeriph_Driver/src/stm32f2xx_can.c ****   if (NewState != DISABLE)
 772              		.loc 1 494 0
 773 0538 FB78     		ldrb	r3, [r7, #3]	@ zero_extendqisi2
 774 053a 002B     		cmp	r3, #0
 775 053c 06D0     		beq	.L37
 495:../STM32F2xx_StdPeriph_Driver/src/stm32f2xx_can.c ****   {
 496:../STM32F2xx_StdPeriph_Driver/src/stm32f2xx_can.c ****     /* Enable Debug Freeze  */
 497:../STM32F2xx_StdPeriph_Driver/src/stm32f2xx_can.c ****     CANx->MCR |= MCR_DBF;
 776              		.loc 1 497 0
 777 053e 7B68     		ldr	r3, [r7, #4]
 778 0540 1B68     		ldr	r3, [r3, #0]
 779 0542 43F48032 		orr	r2, r3, #65536
 780 0546 7B68     		ldr	r3, [r7, #4]
 781 0548 1A60     		str	r2, [r3, #0]
 782 054a 05E0     		b	.L36
 783              	.L37:
 498:../STM32F2xx_StdPeriph_Driver/src/stm32f2xx_can.c ****   }
 499:../STM32F2xx_StdPeriph_Driver/src/stm32f2xx_can.c ****   else
 500:../STM32F2xx_StdPeriph_Driver/src/stm32f2xx_can.c ****   {
 501:../STM32F2xx_StdPeriph_Driver/src/stm32f2xx_can.c ****     /* Disable Debug Freeze */
 502:../STM32F2xx_StdPeriph_Driver/src/stm32f2xx_can.c ****     CANx->MCR &= ~MCR_DBF;
 784              		.loc 1 502 0
 785 054c 7B68     		ldr	r3, [r7, #4]
 786 054e 1B68     		ldr	r3, [r3, #0]
 787 0550 23F48032 		bic	r2, r3, #65536
 788 0554 7B68     		ldr	r3, [r7, #4]
 789 0556 1A60     		str	r2, [r3, #0]
 790              	.L36:
 503:../STM32F2xx_StdPeriph_Driver/src/stm32f2xx_can.c ****   }
 504:../STM32F2xx_StdPeriph_Driver/src/stm32f2xx_can.c **** }
 791              		.loc 1 504 0
 792 0558 07F10C07 		add	r7, r7, #12
 793 055c BD46     		mov	sp, r7
 794 055e 80BC     		pop	{r7}
 795 0560 7047     		bx	lr
 796              		.cfi_endproc
 797              	.LFE34:
 799 0562 00BF     		.align	2
 800              		.global	CAN_TTComModeCmd
 801              		.thumb
 802              		.thumb_func
 804              	CAN_TTComModeCmd:
 805              	.LFB35:
 505:../STM32F2xx_StdPeriph_Driver/src/stm32f2xx_can.c **** 
 506:../STM32F2xx_StdPeriph_Driver/src/stm32f2xx_can.c **** 
 507:../STM32F2xx_StdPeriph_Driver/src/stm32f2xx_can.c **** /**
 508:../STM32F2xx_StdPeriph_Driver/src/stm32f2xx_can.c ****   * @brief  Enables or disables the CAN Time TriggerOperation communication mode.
 509:../STM32F2xx_StdPeriph_Driver/src/stm32f2xx_can.c ****   * @note   DLC must be programmed as 8 in order Time Stamp (2 bytes) to be 
 510:../STM32F2xx_StdPeriph_Driver/src/stm32f2xx_can.c ****   *         sent over the CAN bus.  
 511:../STM32F2xx_StdPeriph_Driver/src/stm32f2xx_can.c ****   * @param  CANx: where x can be 1 or 2 to to select the CAN peripheral.
 512:../STM32F2xx_StdPeriph_Driver/src/stm32f2xx_can.c ****   * @param  NewState: Mode new state. This parameter can be: ENABLE or DISABLE.
 513:../STM32F2xx_StdPeriph_Driver/src/stm32f2xx_can.c ****   *         When enabled, Time stamp (TIME[15:0]) value is  sent in the last two
 514:../STM32F2xx_StdPeriph_Driver/src/stm32f2xx_can.c ****   *         data bytes of the 8-byte message: TIME[7:0] in data byte 6 and TIME[15:8] 
 515:../STM32F2xx_StdPeriph_Driver/src/stm32f2xx_can.c ****   *         in data byte 7. 
 516:../STM32F2xx_StdPeriph_Driver/src/stm32f2xx_can.c ****   * @retval None
 517:../STM32F2xx_StdPeriph_Driver/src/stm32f2xx_can.c ****   */
 518:../STM32F2xx_StdPeriph_Driver/src/stm32f2xx_can.c **** void CAN_TTComModeCmd(CAN_TypeDef* CANx, FunctionalState NewState)
 519:../STM32F2xx_StdPeriph_Driver/src/stm32f2xx_can.c **** {
 806              		.loc 1 519 0
 807              		.cfi_startproc
 808              		@ args = 0, pretend = 0, frame = 8
 809              		@ frame_needed = 1, uses_anonymous_args = 0
 810              		@ link register save eliminated.
 811 0564 80B4     		push	{r7}
 812              	.LCFI18:
 813              		.cfi_def_cfa_offset 4
 814              		.cfi_offset 7, -4
 815 0566 83B0     		sub	sp, sp, #12
 816              	.LCFI19:
 817              		.cfi_def_cfa_offset 16
 818 0568 00AF     		add	r7, sp, #0
 819              	.LCFI20:
 820              		.cfi_def_cfa_register 7
 821 056a 7860     		str	r0, [r7, #4]
 822 056c 0B46     		mov	r3, r1
 823 056e FB70     		strb	r3, [r7, #3]
 520:../STM32F2xx_StdPeriph_Driver/src/stm32f2xx_can.c ****   /* Check the parameters */
 521:../STM32F2xx_StdPeriph_Driver/src/stm32f2xx_can.c ****   assert_param(IS_CAN_ALL_PERIPH(CANx));
 522:../STM32F2xx_StdPeriph_Driver/src/stm32f2xx_can.c ****   assert_param(IS_FUNCTIONAL_STATE(NewState));
 523:../STM32F2xx_StdPeriph_Driver/src/stm32f2xx_can.c ****   if (NewState != DISABLE)
 824              		.loc 1 523 0
 825 0570 FB78     		ldrb	r3, [r7, #3]	@ zero_extendqisi2
 826 0572 002B     		cmp	r3, #0
 827 0574 1ED0     		beq	.L40
 524:../STM32F2xx_StdPeriph_Driver/src/stm32f2xx_can.c ****   {
 525:../STM32F2xx_StdPeriph_Driver/src/stm32f2xx_can.c ****     /* Enable the TTCM mode */
 526:../STM32F2xx_StdPeriph_Driver/src/stm32f2xx_can.c ****     CANx->MCR |= CAN_MCR_TTCM;
 828              		.loc 1 526 0
 829 0576 7B68     		ldr	r3, [r7, #4]
 830 0578 1B68     		ldr	r3, [r3, #0]
 831 057a 43F08002 		orr	r2, r3, #128
 832 057e 7B68     		ldr	r3, [r7, #4]
 833 0580 1A60     		str	r2, [r3, #0]
 527:../STM32F2xx_StdPeriph_Driver/src/stm32f2xx_can.c **** 
 528:../STM32F2xx_StdPeriph_Driver/src/stm32f2xx_can.c ****     /* Set TGT bits */
 529:../STM32F2xx_StdPeriph_Driver/src/stm32f2xx_can.c ****     CANx->sTxMailBox[0].TDTR |= ((uint32_t)CAN_TDT0R_TGT);
 834              		.loc 1 529 0
 835 0582 7B68     		ldr	r3, [r7, #4]
 836 0584 D3F88431 		ldr	r3, [r3, #388]
 837 0588 43F48072 		orr	r2, r3, #256
 838 058c 7B68     		ldr	r3, [r7, #4]
 839 058e C3F88421 		str	r2, [r3, #388]
 530:../STM32F2xx_StdPeriph_Driver/src/stm32f2xx_can.c ****     CANx->sTxMailBox[1].TDTR |= ((uint32_t)CAN_TDT1R_TGT);
 840              		.loc 1 530 0
 841 0592 7B68     		ldr	r3, [r7, #4]
 842 0594 D3F89431 		ldr	r3, [r3, #404]
 843 0598 43F48072 		orr	r2, r3, #256
 844 059c 7B68     		ldr	r3, [r7, #4]
 845 059e C3F89421 		str	r2, [r3, #404]
 531:../STM32F2xx_StdPeriph_Driver/src/stm32f2xx_can.c ****     CANx->sTxMailBox[2].TDTR |= ((uint32_t)CAN_TDT2R_TGT);
 846              		.loc 1 531 0
 847 05a2 7B68     		ldr	r3, [r7, #4]
 848 05a4 D3F8A431 		ldr	r3, [r3, #420]
 849 05a8 43F48072 		orr	r2, r3, #256
 850 05ac 7B68     		ldr	r3, [r7, #4]
 851 05ae C3F8A421 		str	r2, [r3, #420]
 852 05b2 1DE0     		b	.L39
 853              	.L40:
 532:../STM32F2xx_StdPeriph_Driver/src/stm32f2xx_can.c ****   }
 533:../STM32F2xx_StdPeriph_Driver/src/stm32f2xx_can.c ****   else
 534:../STM32F2xx_StdPeriph_Driver/src/stm32f2xx_can.c ****   {
 535:../STM32F2xx_StdPeriph_Driver/src/stm32f2xx_can.c ****     /* Disable the TTCM mode */
 536:../STM32F2xx_StdPeriph_Driver/src/stm32f2xx_can.c ****     CANx->MCR &= (uint32_t)(~(uint32_t)CAN_MCR_TTCM);
 854              		.loc 1 536 0
 855 05b4 7B68     		ldr	r3, [r7, #4]
 856 05b6 1B68     		ldr	r3, [r3, #0]
 857 05b8 23F08002 		bic	r2, r3, #128
 858 05bc 7B68     		ldr	r3, [r7, #4]
 859 05be 1A60     		str	r2, [r3, #0]
 537:../STM32F2xx_StdPeriph_Driver/src/stm32f2xx_can.c **** 
 538:../STM32F2xx_StdPeriph_Driver/src/stm32f2xx_can.c ****     /* Reset TGT bits */
 539:../STM32F2xx_StdPeriph_Driver/src/stm32f2xx_can.c ****     CANx->sTxMailBox[0].TDTR &= ((uint32_t)~CAN_TDT0R_TGT);
 860              		.loc 1 539 0
 861 05c0 7B68     		ldr	r3, [r7, #4]
 862 05c2 D3F88431 		ldr	r3, [r3, #388]
 863 05c6 23F48072 		bic	r2, r3, #256
 864 05ca 7B68     		ldr	r3, [r7, #4]
 865 05cc C3F88421 		str	r2, [r3, #388]
 540:../STM32F2xx_StdPeriph_Driver/src/stm32f2xx_can.c ****     CANx->sTxMailBox[1].TDTR &= ((uint32_t)~CAN_TDT1R_TGT);
 866              		.loc 1 540 0
 867 05d0 7B68     		ldr	r3, [r7, #4]
 868 05d2 D3F89431 		ldr	r3, [r3, #404]
 869 05d6 23F48072 		bic	r2, r3, #256
 870 05da 7B68     		ldr	r3, [r7, #4]
 871 05dc C3F89421 		str	r2, [r3, #404]
 541:../STM32F2xx_StdPeriph_Driver/src/stm32f2xx_can.c ****     CANx->sTxMailBox[2].TDTR &= ((uint32_t)~CAN_TDT2R_TGT);
 872              		.loc 1 541 0
 873 05e0 7B68     		ldr	r3, [r7, #4]
 874 05e2 D3F8A431 		ldr	r3, [r3, #420]
 875 05e6 23F48072 		bic	r2, r3, #256
 876 05ea 7B68     		ldr	r3, [r7, #4]
 877 05ec C3F8A421 		str	r2, [r3, #420]
 878              	.L39:
 542:../STM32F2xx_StdPeriph_Driver/src/stm32f2xx_can.c ****   }
 543:../STM32F2xx_StdPeriph_Driver/src/stm32f2xx_can.c **** }
 879              		.loc 1 543 0
 880 05f0 07F10C07 		add	r7, r7, #12
 881 05f4 BD46     		mov	sp, r7
 882 05f6 80BC     		pop	{r7}
 883 05f8 7047     		bx	lr
 884              		.cfi_endproc
 885              	.LFE35:
 887 05fa 00BF     		.align	2
 888              		.global	CAN_Transmit
 889              		.thumb
 890              		.thumb_func
 892              	CAN_Transmit:
 893              	.LFB36:
 544:../STM32F2xx_StdPeriph_Driver/src/stm32f2xx_can.c **** /**
 545:../STM32F2xx_StdPeriph_Driver/src/stm32f2xx_can.c ****   * @}
 546:../STM32F2xx_StdPeriph_Driver/src/stm32f2xx_can.c ****   */
 547:../STM32F2xx_StdPeriph_Driver/src/stm32f2xx_can.c **** 
 548:../STM32F2xx_StdPeriph_Driver/src/stm32f2xx_can.c **** 
 549:../STM32F2xx_StdPeriph_Driver/src/stm32f2xx_can.c **** /** @defgroup CAN_Group2 CAN Frames Transmission functions
 550:../STM32F2xx_StdPeriph_Driver/src/stm32f2xx_can.c ****  *  @brief    CAN Frames Transmission functions 
 551:../STM32F2xx_StdPeriph_Driver/src/stm32f2xx_can.c ****  *
 552:../STM32F2xx_StdPeriph_Driver/src/stm32f2xx_can.c **** @verbatim    
 553:../STM32F2xx_StdPeriph_Driver/src/stm32f2xx_can.c ****  ===============================================================================
 554:../STM32F2xx_StdPeriph_Driver/src/stm32f2xx_can.c ****                       CAN Frames Transmission functions
 555:../STM32F2xx_StdPeriph_Driver/src/stm32f2xx_can.c ****  ===============================================================================  
 556:../STM32F2xx_StdPeriph_Driver/src/stm32f2xx_can.c ****   This section provides functions allowing to 
 557:../STM32F2xx_StdPeriph_Driver/src/stm32f2xx_can.c ****    - Initiate and transmit a CAN frame message (if there is an empty mailbox).
 558:../STM32F2xx_StdPeriph_Driver/src/stm32f2xx_can.c ****    - Check the transmission status of a CAN Frame
 559:../STM32F2xx_StdPeriph_Driver/src/stm32f2xx_can.c ****    - Cancel a transmit request
 560:../STM32F2xx_StdPeriph_Driver/src/stm32f2xx_can.c ****    
 561:../STM32F2xx_StdPeriph_Driver/src/stm32f2xx_can.c **** @endverbatim
 562:../STM32F2xx_StdPeriph_Driver/src/stm32f2xx_can.c ****   * @{
 563:../STM32F2xx_StdPeriph_Driver/src/stm32f2xx_can.c ****   */
 564:../STM32F2xx_StdPeriph_Driver/src/stm32f2xx_can.c **** 
 565:../STM32F2xx_StdPeriph_Driver/src/stm32f2xx_can.c **** /**
 566:../STM32F2xx_StdPeriph_Driver/src/stm32f2xx_can.c ****   * @brief  Initiates and transmits a CAN frame message.
 567:../STM32F2xx_StdPeriph_Driver/src/stm32f2xx_can.c ****   * @param  CANx: where x can be 1 or 2 to to select the CAN peripheral.
 568:../STM32F2xx_StdPeriph_Driver/src/stm32f2xx_can.c ****   * @param  TxMessage: pointer to a structure which contains CAN Id, CAN DLC and CAN data.
 569:../STM32F2xx_StdPeriph_Driver/src/stm32f2xx_can.c ****   * @retval The number of the mailbox that is used for transmission or
 570:../STM32F2xx_StdPeriph_Driver/src/stm32f2xx_can.c ****   *         CAN_TxStatus_NoMailBox if there is no empty mailbox.
 571:../STM32F2xx_StdPeriph_Driver/src/stm32f2xx_can.c ****   */
 572:../STM32F2xx_StdPeriph_Driver/src/stm32f2xx_can.c **** uint8_t CAN_Transmit(CAN_TypeDef* CANx, CanTxMsg* TxMessage)
 573:../STM32F2xx_StdPeriph_Driver/src/stm32f2xx_can.c **** {
 894              		.loc 1 573 0
 895              		.cfi_startproc
 896              		@ args = 0, pretend = 0, frame = 16
 897              		@ frame_needed = 1, uses_anonymous_args = 0
 898              		@ link register save eliminated.
 899 05fc 80B4     		push	{r7}
 900              	.LCFI21:
 901              		.cfi_def_cfa_offset 4
 902              		.cfi_offset 7, -4
 903 05fe 85B0     		sub	sp, sp, #20
 904              	.LCFI22:
 905              		.cfi_def_cfa_offset 24
 906 0600 00AF     		add	r7, sp, #0
 907              	.LCFI23:
 908              		.cfi_def_cfa_register 7
 909 0602 7860     		str	r0, [r7, #4]
 910 0604 3960     		str	r1, [r7, #0]
 574:../STM32F2xx_StdPeriph_Driver/src/stm32f2xx_can.c ****   uint8_t transmit_mailbox = 0;
 911              		.loc 1 574 0
 912 0606 4FF00003 		mov	r3, #0
 913 060a FB73     		strb	r3, [r7, #15]
 575:../STM32F2xx_StdPeriph_Driver/src/stm32f2xx_can.c ****   /* Check the parameters */
 576:../STM32F2xx_StdPeriph_Driver/src/stm32f2xx_can.c ****   assert_param(IS_CAN_ALL_PERIPH(CANx));
 577:../STM32F2xx_StdPeriph_Driver/src/stm32f2xx_can.c ****   assert_param(IS_CAN_IDTYPE(TxMessage->IDE));
 578:../STM32F2xx_StdPeriph_Driver/src/stm32f2xx_can.c ****   assert_param(IS_CAN_RTR(TxMessage->RTR));
 579:../STM32F2xx_StdPeriph_Driver/src/stm32f2xx_can.c ****   assert_param(IS_CAN_DLC(TxMessage->DLC));
 580:../STM32F2xx_StdPeriph_Driver/src/stm32f2xx_can.c **** 
 581:../STM32F2xx_StdPeriph_Driver/src/stm32f2xx_can.c ****   /* Select one empty transmit mailbox */
 582:../STM32F2xx_StdPeriph_Driver/src/stm32f2xx_can.c ****   if ((CANx->TSR&CAN_TSR_TME0) == CAN_TSR_TME0)
 914              		.loc 1 582 0
 915 060c 7B68     		ldr	r3, [r7, #4]
 916 060e 9B68     		ldr	r3, [r3, #8]
 917 0610 03F08063 		and	r3, r3, #67108864
 918 0614 002B     		cmp	r3, #0
 919 0616 03D0     		beq	.L43
 583:../STM32F2xx_StdPeriph_Driver/src/stm32f2xx_can.c ****   {
 584:../STM32F2xx_StdPeriph_Driver/src/stm32f2xx_can.c ****     transmit_mailbox = 0;
 920              		.loc 1 584 0
 921 0618 4FF00003 		mov	r3, #0
 922 061c FB73     		strb	r3, [r7, #15]
 923 061e 16E0     		b	.L44
 924              	.L43:
 585:../STM32F2xx_StdPeriph_Driver/src/stm32f2xx_can.c ****   }
 586:../STM32F2xx_StdPeriph_Driver/src/stm32f2xx_can.c ****   else if ((CANx->TSR&CAN_TSR_TME1) == CAN_TSR_TME1)
 925              		.loc 1 586 0
 926 0620 7B68     		ldr	r3, [r7, #4]
 927 0622 9B68     		ldr	r3, [r3, #8]
 928 0624 03F00063 		and	r3, r3, #134217728
 929 0628 002B     		cmp	r3, #0
 930 062a 03D0     		beq	.L45
 587:../STM32F2xx_StdPeriph_Driver/src/stm32f2xx_can.c ****   {
 588:../STM32F2xx_StdPeriph_Driver/src/stm32f2xx_can.c ****     transmit_mailbox = 1;
 931              		.loc 1 588 0
 932 062c 4FF00103 		mov	r3, #1
 933 0630 FB73     		strb	r3, [r7, #15]
 934 0632 0CE0     		b	.L44
 935              	.L45:
 589:../STM32F2xx_StdPeriph_Driver/src/stm32f2xx_can.c ****   }
 590:../STM32F2xx_StdPeriph_Driver/src/stm32f2xx_can.c ****   else if ((CANx->TSR&CAN_TSR_TME2) == CAN_TSR_TME2)
 936              		.loc 1 590 0
 937 0634 7B68     		ldr	r3, [r7, #4]
 938 0636 9B68     		ldr	r3, [r3, #8]
 939 0638 03F08053 		and	r3, r3, #268435456
 940 063c 002B     		cmp	r3, #0
 941 063e 03D0     		beq	.L46
 591:../STM32F2xx_StdPeriph_Driver/src/stm32f2xx_can.c ****   {
 592:../STM32F2xx_StdPeriph_Driver/src/stm32f2xx_can.c ****     transmit_mailbox = 2;
 942              		.loc 1 592 0
 943 0640 4FF00203 		mov	r3, #2
 944 0644 FB73     		strb	r3, [r7, #15]
 945 0646 02E0     		b	.L44
 946              	.L46:
 593:../STM32F2xx_StdPeriph_Driver/src/stm32f2xx_can.c ****   }
 594:../STM32F2xx_StdPeriph_Driver/src/stm32f2xx_can.c ****   else
 595:../STM32F2xx_StdPeriph_Driver/src/stm32f2xx_can.c ****   {
 596:../STM32F2xx_StdPeriph_Driver/src/stm32f2xx_can.c ****     transmit_mailbox = CAN_TxStatus_NoMailBox;
 947              		.loc 1 596 0
 948 0648 4FF00403 		mov	r3, #4
 949 064c FB73     		strb	r3, [r7, #15]
 950              	.L44:
 597:../STM32F2xx_StdPeriph_Driver/src/stm32f2xx_can.c ****   }
 598:../STM32F2xx_StdPeriph_Driver/src/stm32f2xx_can.c **** 
 599:../STM32F2xx_StdPeriph_Driver/src/stm32f2xx_can.c ****   if (transmit_mailbox != CAN_TxStatus_NoMailBox)
 951              		.loc 1 599 0
 952 064e FB7B     		ldrb	r3, [r7, #15]	@ zero_extendqisi2
 953 0650 042B     		cmp	r3, #4
 954 0652 00F0BD80 		beq	.L47
 600:../STM32F2xx_StdPeriph_Driver/src/stm32f2xx_can.c ****   {
 601:../STM32F2xx_StdPeriph_Driver/src/stm32f2xx_can.c ****     /* Set up the Id */
 602:../STM32F2xx_StdPeriph_Driver/src/stm32f2xx_can.c ****     CANx->sTxMailBox[transmit_mailbox].TIR &= TMIDxR_TXRQ;
 955              		.loc 1 602 0
 956 0656 FB7B     		ldrb	r3, [r7, #15]	@ zero_extendqisi2
 957 0658 FA7B     		ldrb	r2, [r7, #15]	@ zero_extendqisi2
 958 065a 7968     		ldr	r1, [r7, #4]
 959 065c 02F11802 		add	r2, r2, #24
 960 0660 4FEA0212 		lsl	r2, r2, #4
 961 0664 8A18     		adds	r2, r1, r2
 962 0666 1268     		ldr	r2, [r2, #0]
 963 0668 02F00102 		and	r2, r2, #1
 964 066c 7968     		ldr	r1, [r7, #4]
 965 066e 03F11803 		add	r3, r3, #24
 966 0672 4FEA0313 		lsl	r3, r3, #4
 967 0676 CB18     		adds	r3, r1, r3
 968 0678 1A60     		str	r2, [r3, #0]
 603:../STM32F2xx_StdPeriph_Driver/src/stm32f2xx_can.c ****     if (TxMessage->IDE == CAN_Id_Standard)
 969              		.loc 1 603 0
 970 067a 3B68     		ldr	r3, [r7, #0]
 971 067c 1B7A     		ldrb	r3, [r3, #8]	@ zero_extendqisi2
 972 067e 002B     		cmp	r3, #0
 973 0680 19D1     		bne	.L48
 604:../STM32F2xx_StdPeriph_Driver/src/stm32f2xx_can.c ****     {
 605:../STM32F2xx_StdPeriph_Driver/src/stm32f2xx_can.c ****       assert_param(IS_CAN_STDID(TxMessage->StdId));  
 606:../STM32F2xx_StdPeriph_Driver/src/stm32f2xx_can.c ****       CANx->sTxMailBox[transmit_mailbox].TIR |= ((TxMessage->StdId << 21) | \
 974              		.loc 1 606 0
 975 0682 FB7B     		ldrb	r3, [r7, #15]	@ zero_extendqisi2
 976 0684 FA7B     		ldrb	r2, [r7, #15]	@ zero_extendqisi2
 977 0686 7968     		ldr	r1, [r7, #4]
 978 0688 02F11802 		add	r2, r2, #24
 979 068c 4FEA0212 		lsl	r2, r2, #4
 980 0690 8A18     		adds	r2, r1, r2
 981 0692 1268     		ldr	r2, [r2, #0]
 982 0694 1146     		mov	r1, r2
 983 0696 3A68     		ldr	r2, [r7, #0]
 984 0698 1268     		ldr	r2, [r2, #0]
 985 069a 4FEA4250 		lsl	r0, r2, #21
 607:../STM32F2xx_StdPeriph_Driver/src/stm32f2xx_can.c ****                                                   TxMessage->RTR);
 986              		.loc 1 607 0
 987 069e 3A68     		ldr	r2, [r7, #0]
 988 06a0 527A     		ldrb	r2, [r2, #9]	@ zero_extendqisi2
 606:../STM32F2xx_StdPeriph_Driver/src/stm32f2xx_can.c ****       CANx->sTxMailBox[transmit_mailbox].TIR |= ((TxMessage->StdId << 21) | \
 989              		.loc 1 606 0
 990 06a2 0243     		orrs	r2, r2, r0
 991 06a4 0A43     		orrs	r2, r2, r1
 992 06a6 7968     		ldr	r1, [r7, #4]
 993 06a8 03F11803 		add	r3, r3, #24
 994 06ac 4FEA0313 		lsl	r3, r3, #4
 995 06b0 CB18     		adds	r3, r1, r3
 996 06b2 1A60     		str	r2, [r3, #0]
 997 06b4 1BE0     		b	.L49
 998              	.L48:
 608:../STM32F2xx_StdPeriph_Driver/src/stm32f2xx_can.c ****     }
 609:../STM32F2xx_StdPeriph_Driver/src/stm32f2xx_can.c ****     else
 610:../STM32F2xx_StdPeriph_Driver/src/stm32f2xx_can.c ****     {
 611:../STM32F2xx_StdPeriph_Driver/src/stm32f2xx_can.c ****       assert_param(IS_CAN_EXTID(TxMessage->ExtId));
 612:../STM32F2xx_StdPeriph_Driver/src/stm32f2xx_can.c ****       CANx->sTxMailBox[transmit_mailbox].TIR |= ((TxMessage->ExtId << 3) | \
 999              		.loc 1 612 0
 1000 06b6 FB7B     		ldrb	r3, [r7, #15]	@ zero_extendqisi2
 1001 06b8 FA7B     		ldrb	r2, [r7, #15]	@ zero_extendqisi2
 1002 06ba 7968     		ldr	r1, [r7, #4]
 1003 06bc 02F11802 		add	r2, r2, #24
 1004 06c0 4FEA0212 		lsl	r2, r2, #4
 1005 06c4 8A18     		adds	r2, r1, r2
 1006 06c6 1268     		ldr	r2, [r2, #0]
 1007 06c8 1146     		mov	r1, r2
 1008 06ca 3A68     		ldr	r2, [r7, #0]
 1009 06cc 5268     		ldr	r2, [r2, #4]
 1010 06ce 4FEAC200 		lsl	r0, r2, #3
 613:../STM32F2xx_StdPeriph_Driver/src/stm32f2xx_can.c ****                                                   TxMessage->IDE | \
 1011              		.loc 1 613 0
 1012 06d2 3A68     		ldr	r2, [r7, #0]
 1013 06d4 127A     		ldrb	r2, [r2, #8]	@ zero_extendqisi2
 612:../STM32F2xx_StdPeriph_Driver/src/stm32f2xx_can.c ****       CANx->sTxMailBox[transmit_mailbox].TIR |= ((TxMessage->ExtId << 3) | \
 1014              		.loc 1 612 0
 1015 06d6 1043     		orrs	r0, r0, r2
 614:../STM32F2xx_StdPeriph_Driver/src/stm32f2xx_can.c ****                                                   TxMessage->RTR);
 1016              		.loc 1 614 0
 1017 06d8 3A68     		ldr	r2, [r7, #0]
 1018 06da 527A     		ldrb	r2, [r2, #9]	@ zero_extendqisi2
 613:../STM32F2xx_StdPeriph_Driver/src/stm32f2xx_can.c ****                                                   TxMessage->IDE | \
 1019              		.loc 1 613 0
 1020 06dc 0243     		orrs	r2, r2, r0
 612:../STM32F2xx_StdPeriph_Driver/src/stm32f2xx_can.c ****       CANx->sTxMailBox[transmit_mailbox].TIR |= ((TxMessage->ExtId << 3) | \
 1021              		.loc 1 612 0
 1022 06de 0A43     		orrs	r2, r2, r1
 1023 06e0 7968     		ldr	r1, [r7, #4]
 1024 06e2 03F11803 		add	r3, r3, #24
 1025 06e6 4FEA0313 		lsl	r3, r3, #4
 1026 06ea CB18     		adds	r3, r1, r3
 1027 06ec 1A60     		str	r2, [r3, #0]
 1028              	.L49:
 615:../STM32F2xx_StdPeriph_Driver/src/stm32f2xx_can.c ****     }
 616:../STM32F2xx_StdPeriph_Driver/src/stm32f2xx_can.c ****     
 617:../STM32F2xx_StdPeriph_Driver/src/stm32f2xx_can.c ****     /* Set up the DLC */
 618:../STM32F2xx_StdPeriph_Driver/src/stm32f2xx_can.c ****     TxMessage->DLC &= (uint8_t)0x0000000F;
 1029              		.loc 1 618 0
 1030 06ee 3B68     		ldr	r3, [r7, #0]
 1031 06f0 9B7A     		ldrb	r3, [r3, #10]	@ zero_extendqisi2
 1032 06f2 03F00F03 		and	r3, r3, #15
 1033 06f6 DAB2     		uxtb	r2, r3
 1034 06f8 3B68     		ldr	r3, [r7, #0]
 1035 06fa 9A72     		strb	r2, [r3, #10]
 619:../STM32F2xx_StdPeriph_Driver/src/stm32f2xx_can.c ****     CANx->sTxMailBox[transmit_mailbox].TDTR &= (uint32_t)0xFFFFFFF0;
 1036              		.loc 1 619 0
 1037 06fc FB7B     		ldrb	r3, [r7, #15]	@ zero_extendqisi2
 1038 06fe FA7B     		ldrb	r2, [r7, #15]	@ zero_extendqisi2
 1039 0700 7968     		ldr	r1, [r7, #4]
 1040 0702 02F11802 		add	r2, r2, #24
 1041 0706 4FEA0212 		lsl	r2, r2, #4
 1042 070a 8A18     		adds	r2, r1, r2
 1043 070c 5268     		ldr	r2, [r2, #4]
 1044 070e 22F00F02 		bic	r2, r2, #15
 1045 0712 7968     		ldr	r1, [r7, #4]
 1046 0714 03F11803 		add	r3, r3, #24
 1047 0718 4FEA0313 		lsl	r3, r3, #4
 1048 071c CB18     		adds	r3, r1, r3
 1049 071e 5A60     		str	r2, [r3, #4]
 620:../STM32F2xx_StdPeriph_Driver/src/stm32f2xx_can.c ****     CANx->sTxMailBox[transmit_mailbox].TDTR |= TxMessage->DLC;
 1050              		.loc 1 620 0
 1051 0720 FB7B     		ldrb	r3, [r7, #15]	@ zero_extendqisi2
 1052 0722 FA7B     		ldrb	r2, [r7, #15]	@ zero_extendqisi2
 1053 0724 7968     		ldr	r1, [r7, #4]
 1054 0726 02F11802 		add	r2, r2, #24
 1055 072a 4FEA0212 		lsl	r2, r2, #4
 1056 072e 8A18     		adds	r2, r1, r2
 1057 0730 5268     		ldr	r2, [r2, #4]
 1058 0732 1146     		mov	r1, r2
 1059 0734 3A68     		ldr	r2, [r7, #0]
 1060 0736 927A     		ldrb	r2, [r2, #10]	@ zero_extendqisi2
 1061 0738 0A43     		orrs	r2, r2, r1
 1062 073a 7968     		ldr	r1, [r7, #4]
 1063 073c 03F11803 		add	r3, r3, #24
 1064 0740 4FEA0313 		lsl	r3, r3, #4
 1065 0744 CB18     		adds	r3, r1, r3
 1066 0746 5A60     		str	r2, [r3, #4]
 621:../STM32F2xx_StdPeriph_Driver/src/stm32f2xx_can.c **** 
 622:../STM32F2xx_StdPeriph_Driver/src/stm32f2xx_can.c ****     /* Set up the data field */
 623:../STM32F2xx_StdPeriph_Driver/src/stm32f2xx_can.c ****     CANx->sTxMailBox[transmit_mailbox].TDLR = (((uint32_t)TxMessage->Data[3] << 24) | 
 1067              		.loc 1 623 0
 1068 0748 FB7B     		ldrb	r3, [r7, #15]	@ zero_extendqisi2
 1069 074a 3A68     		ldr	r2, [r7, #0]
 1070 074c 927B     		ldrb	r2, [r2, #14]	@ zero_extendqisi2
 1071 074e 4FEA0261 		lsl	r1, r2, #24
 624:../STM32F2xx_StdPeriph_Driver/src/stm32f2xx_can.c ****                                              ((uint32_t)TxMessage->Data[2] << 16) |
 1072              		.loc 1 624 0
 1073 0752 3A68     		ldr	r2, [r7, #0]
 1074 0754 527B     		ldrb	r2, [r2, #13]	@ zero_extendqisi2
 1075 0756 4FEA0242 		lsl	r2, r2, #16
 623:../STM32F2xx_StdPeriph_Driver/src/stm32f2xx_can.c ****     CANx->sTxMailBox[transmit_mailbox].TDLR = (((uint32_t)TxMessage->Data[3] << 24) | 
 1076              		.loc 1 623 0
 1077 075a 1143     		orrs	r1, r1, r2
 625:../STM32F2xx_StdPeriph_Driver/src/stm32f2xx_can.c ****                                              ((uint32_t)TxMessage->Data[1] << 8) | 
 1078              		.loc 1 625 0
 1079 075c 3A68     		ldr	r2, [r7, #0]
 1080 075e 127B     		ldrb	r2, [r2, #12]	@ zero_extendqisi2
 1081 0760 4FEA0222 		lsl	r2, r2, #8
 624:../STM32F2xx_StdPeriph_Driver/src/stm32f2xx_can.c ****                                              ((uint32_t)TxMessage->Data[2] << 16) |
 1082              		.loc 1 624 0
 1083 0764 1143     		orrs	r1, r1, r2
 626:../STM32F2xx_StdPeriph_Driver/src/stm32f2xx_can.c ****                                              ((uint32_t)TxMessage->Data[0]));
 1084              		.loc 1 626 0
 1085 0766 3A68     		ldr	r2, [r7, #0]
 1086 0768 D27A     		ldrb	r2, [r2, #11]	@ zero_extendqisi2
 625:../STM32F2xx_StdPeriph_Driver/src/stm32f2xx_can.c ****                                              ((uint32_t)TxMessage->Data[1] << 8) | 
 1087              		.loc 1 625 0
 1088 076a 0A43     		orrs	r2, r2, r1
 623:../STM32F2xx_StdPeriph_Driver/src/stm32f2xx_can.c ****     CANx->sTxMailBox[transmit_mailbox].TDLR = (((uint32_t)TxMessage->Data[3] << 24) | 
 1089              		.loc 1 623 0
 1090 076c 7968     		ldr	r1, [r7, #4]
 1091 076e 4FEA0313 		lsl	r3, r3, #4
 1092 0772 CB18     		adds	r3, r1, r3
 1093 0774 03F5C473 		add	r3, r3, #392
 1094 0778 1A60     		str	r2, [r3, #0]
 627:../STM32F2xx_StdPeriph_Driver/src/stm32f2xx_can.c ****     CANx->sTxMailBox[transmit_mailbox].TDHR = (((uint32_t)TxMessage->Data[7] << 24) | 
 1095              		.loc 1 627 0
 1096 077a FB7B     		ldrb	r3, [r7, #15]	@ zero_extendqisi2
 1097 077c 3A68     		ldr	r2, [r7, #0]
 1098 077e 927C     		ldrb	r2, [r2, #18]	@ zero_extendqisi2
 1099 0780 4FEA0261 		lsl	r1, r2, #24
 628:../STM32F2xx_StdPeriph_Driver/src/stm32f2xx_can.c ****                                              ((uint32_t)TxMessage->Data[6] << 16) |
 1100              		.loc 1 628 0
 1101 0784 3A68     		ldr	r2, [r7, #0]
 1102 0786 527C     		ldrb	r2, [r2, #17]	@ zero_extendqisi2
 1103 0788 4FEA0242 		lsl	r2, r2, #16
 627:../STM32F2xx_StdPeriph_Driver/src/stm32f2xx_can.c ****     CANx->sTxMailBox[transmit_mailbox].TDHR = (((uint32_t)TxMessage->Data[7] << 24) | 
 1104              		.loc 1 627 0
 1105 078c 1143     		orrs	r1, r1, r2
 629:../STM32F2xx_StdPeriph_Driver/src/stm32f2xx_can.c ****                                              ((uint32_t)TxMessage->Data[5] << 8) |
 1106              		.loc 1 629 0
 1107 078e 3A68     		ldr	r2, [r7, #0]
 1108 0790 127C     		ldrb	r2, [r2, #16]	@ zero_extendqisi2
 1109 0792 4FEA0222 		lsl	r2, r2, #8
 628:../STM32F2xx_StdPeriph_Driver/src/stm32f2xx_can.c ****                                              ((uint32_t)TxMessage->Data[6] << 16) |
 1110              		.loc 1 628 0
 1111 0796 1143     		orrs	r1, r1, r2
 630:../STM32F2xx_StdPeriph_Driver/src/stm32f2xx_can.c ****                                              ((uint32_t)TxMessage->Data[4]));
 1112              		.loc 1 630 0
 1113 0798 3A68     		ldr	r2, [r7, #0]
 1114 079a D27B     		ldrb	r2, [r2, #15]	@ zero_extendqisi2
 629:../STM32F2xx_StdPeriph_Driver/src/stm32f2xx_can.c ****                                              ((uint32_t)TxMessage->Data[5] << 8) |
 1115              		.loc 1 629 0
 1116 079c 0A43     		orrs	r2, r2, r1
 627:../STM32F2xx_StdPeriph_Driver/src/stm32f2xx_can.c ****     CANx->sTxMailBox[transmit_mailbox].TDHR = (((uint32_t)TxMessage->Data[7] << 24) | 
 1117              		.loc 1 627 0
 1118 079e 7968     		ldr	r1, [r7, #4]
 1119 07a0 4FEA0313 		lsl	r3, r3, #4
 1120 07a4 CB18     		adds	r3, r1, r3
 1121 07a6 03F5C473 		add	r3, r3, #392
 1122 07aa 5A60     		str	r2, [r3, #4]
 631:../STM32F2xx_StdPeriph_Driver/src/stm32f2xx_can.c ****     /* Request transmission */
 632:../STM32F2xx_StdPeriph_Driver/src/stm32f2xx_can.c ****     CANx->sTxMailBox[transmit_mailbox].TIR |= TMIDxR_TXRQ;
 1123              		.loc 1 632 0
 1124 07ac FB7B     		ldrb	r3, [r7, #15]	@ zero_extendqisi2
 1125 07ae FA7B     		ldrb	r2, [r7, #15]	@ zero_extendqisi2
 1126 07b0 7968     		ldr	r1, [r7, #4]
 1127 07b2 02F11802 		add	r2, r2, #24
 1128 07b6 4FEA0212 		lsl	r2, r2, #4
 1129 07ba 8A18     		adds	r2, r1, r2
 1130 07bc 1268     		ldr	r2, [r2, #0]
 1131 07be 42F00102 		orr	r2, r2, #1
 1132 07c2 7968     		ldr	r1, [r7, #4]
 1133 07c4 03F11803 		add	r3, r3, #24
 1134 07c8 4FEA0313 		lsl	r3, r3, #4
 1135 07cc CB18     		adds	r3, r1, r3
 1136 07ce 1A60     		str	r2, [r3, #0]
 1137              	.L47:
 633:../STM32F2xx_StdPeriph_Driver/src/stm32f2xx_can.c ****   }
 634:../STM32F2xx_StdPeriph_Driver/src/stm32f2xx_can.c ****   return transmit_mailbox;
 1138              		.loc 1 634 0
 1139 07d0 FB7B     		ldrb	r3, [r7, #15]	@ zero_extendqisi2
 635:../STM32F2xx_StdPeriph_Driver/src/stm32f2xx_can.c **** }
 1140              		.loc 1 635 0
 1141 07d2 1846     		mov	r0, r3
 1142 07d4 07F11407 		add	r7, r7, #20
 1143 07d8 BD46     		mov	sp, r7
 1144 07da 80BC     		pop	{r7}
 1145 07dc 7047     		bx	lr
 1146              		.cfi_endproc
 1147              	.LFE36:
 1149 07de 00BF     		.align	2
 1150              		.global	CAN_TransmitStatus
 1151              		.thumb
 1152              		.thumb_func
 1154              	CAN_TransmitStatus:
 1155              	.LFB37:
 636:../STM32F2xx_StdPeriph_Driver/src/stm32f2xx_can.c **** 
 637:../STM32F2xx_StdPeriph_Driver/src/stm32f2xx_can.c **** /**
 638:../STM32F2xx_StdPeriph_Driver/src/stm32f2xx_can.c ****   * @brief  Checks the transmission status of a CAN Frame.
 639:../STM32F2xx_StdPeriph_Driver/src/stm32f2xx_can.c ****   * @param  CANx: where x can be 1 or 2 to select the CAN peripheral.
 640:../STM32F2xx_StdPeriph_Driver/src/stm32f2xx_can.c ****   * @param  TransmitMailbox: the number of the mailbox that is used for transmission.
 641:../STM32F2xx_StdPeriph_Driver/src/stm32f2xx_can.c ****   * @retval CAN_TxStatus_Ok if the CAN driver transmits the message, 
 642:../STM32F2xx_StdPeriph_Driver/src/stm32f2xx_can.c ****   *         CAN_TxStatus_Failed in an other case.
 643:../STM32F2xx_StdPeriph_Driver/src/stm32f2xx_can.c ****   */
 644:../STM32F2xx_StdPeriph_Driver/src/stm32f2xx_can.c **** uint8_t CAN_TransmitStatus(CAN_TypeDef* CANx, uint8_t TransmitMailbox)
 645:../STM32F2xx_StdPeriph_Driver/src/stm32f2xx_can.c **** {
 1156              		.loc 1 645 0
 1157              		.cfi_startproc
 1158              		@ args = 0, pretend = 0, frame = 16
 1159              		@ frame_needed = 1, uses_anonymous_args = 0
 1160              		@ link register save eliminated.
 1161 07e0 80B4     		push	{r7}
 1162              	.LCFI24:
 1163              		.cfi_def_cfa_offset 4
 1164              		.cfi_offset 7, -4
 1165 07e2 85B0     		sub	sp, sp, #20
 1166              	.LCFI25:
 1167              		.cfi_def_cfa_offset 24
 1168 07e4 00AF     		add	r7, sp, #0
 1169              	.LCFI26:
 1170              		.cfi_def_cfa_register 7
 1171 07e6 7860     		str	r0, [r7, #4]
 1172 07e8 0B46     		mov	r3, r1
 1173 07ea FB70     		strb	r3, [r7, #3]
 646:../STM32F2xx_StdPeriph_Driver/src/stm32f2xx_can.c ****   uint32_t state = 0;
 1174              		.loc 1 646 0
 1175 07ec 4FF00003 		mov	r3, #0
 1176 07f0 FB60     		str	r3, [r7, #12]
 647:../STM32F2xx_StdPeriph_Driver/src/stm32f2xx_can.c **** 
 648:../STM32F2xx_StdPeriph_Driver/src/stm32f2xx_can.c ****   /* Check the parameters */
 649:../STM32F2xx_StdPeriph_Driver/src/stm32f2xx_can.c ****   assert_param(IS_CAN_ALL_PERIPH(CANx));
 650:../STM32F2xx_StdPeriph_Driver/src/stm32f2xx_can.c ****   assert_param(IS_CAN_TRANSMITMAILBOX(TransmitMailbox));
 651:../STM32F2xx_StdPeriph_Driver/src/stm32f2xx_can.c ****  
 652:../STM32F2xx_StdPeriph_Driver/src/stm32f2xx_can.c ****   switch (TransmitMailbox)
 1177              		.loc 1 652 0
 1178 07f2 FB78     		ldrb	r3, [r7, #3]	@ zero_extendqisi2
 1179 07f4 012B     		cmp	r3, #1
 1180 07f6 0DD0     		beq	.L53
 1181 07f8 022B     		cmp	r3, #2
 1182 07fa 15D0     		beq	.L54
 1183 07fc 002B     		cmp	r3, #0
 1184 07fe 1DD1     		bne	.L66
 1185              	.L52:
 653:../STM32F2xx_StdPeriph_Driver/src/stm32f2xx_can.c ****   {
 654:../STM32F2xx_StdPeriph_Driver/src/stm32f2xx_can.c ****     case (CAN_TXMAILBOX_0): 
 655:../STM32F2xx_StdPeriph_Driver/src/stm32f2xx_can.c ****       state =   CANx->TSR &  (CAN_TSR_RQCP0 | CAN_TSR_TXOK0 | CAN_TSR_TME0);
 1186              		.loc 1 655 0
 1187 0800 7B68     		ldr	r3, [r7, #4]
 1188 0802 9B68     		ldr	r3, [r3, #8]
 1189 0804 1A46     		mov	r2, r3
 1190 0806 4FF00303 		mov	r3, #3
 1191 080a C0F20043 		movt	r3, 1024
 1192 080e 1340     		ands	r3, r3, r2
 1193 0810 FB60     		str	r3, [r7, #12]
 656:../STM32F2xx_StdPeriph_Driver/src/stm32f2xx_can.c ****       break;
 1194              		.loc 1 656 0
 1195 0812 17E0     		b	.L55
 1196              	.L53:
 657:../STM32F2xx_StdPeriph_Driver/src/stm32f2xx_can.c ****     case (CAN_TXMAILBOX_1): 
 658:../STM32F2xx_StdPeriph_Driver/src/stm32f2xx_can.c ****       state =   CANx->TSR &  (CAN_TSR_RQCP1 | CAN_TSR_TXOK1 | CAN_TSR_TME1);
 1197              		.loc 1 658 0
 1198 0814 7B68     		ldr	r3, [r7, #4]
 1199 0816 9B68     		ldr	r3, [r3, #8]
 1200 0818 1A46     		mov	r2, r3
 1201 081a 4FF44073 		mov	r3, #768
 1202 081e C0F60003 		movt	r3, 2048
 1203 0822 1340     		ands	r3, r3, r2
 1204 0824 FB60     		str	r3, [r7, #12]
 659:../STM32F2xx_StdPeriph_Driver/src/stm32f2xx_can.c ****       break;
 1205              		.loc 1 659 0
 1206 0826 0DE0     		b	.L55
 1207              	.L54:
 660:../STM32F2xx_StdPeriph_Driver/src/stm32f2xx_can.c ****     case (CAN_TXMAILBOX_2): 
 661:../STM32F2xx_StdPeriph_Driver/src/stm32f2xx_can.c ****       state =   CANx->TSR &  (CAN_TSR_RQCP2 | CAN_TSR_TXOK2 | CAN_TSR_TME2);
 1208              		.loc 1 661 0
 1209 0828 7B68     		ldr	r3, [r7, #4]
 1210 082a 9B68     		ldr	r3, [r3, #8]
 1211 082c 1A46     		mov	r2, r3
 1212 082e 4FF00003 		mov	r3, #0
 1213 0832 C1F20303 		movt	r3, 4099
 1214 0836 1340     		ands	r3, r3, r2
 1215 0838 FB60     		str	r3, [r7, #12]
 662:../STM32F2xx_StdPeriph_Driver/src/stm32f2xx_can.c ****       break;
 1216              		.loc 1 662 0
 1217 083a 03E0     		b	.L55
 1218              	.L66:
 663:../STM32F2xx_StdPeriph_Driver/src/stm32f2xx_can.c ****     default:
 664:../STM32F2xx_StdPeriph_Driver/src/stm32f2xx_can.c ****       state = CAN_TxStatus_Failed;
 1219              		.loc 1 664 0
 1220 083c 4FF00003 		mov	r3, #0
 1221 0840 FB60     		str	r3, [r7, #12]
 665:../STM32F2xx_StdPeriph_Driver/src/stm32f2xx_can.c ****       break;
 1222              		.loc 1 665 0
 1223 0842 00BF     		nop
 1224              	.L55:
 666:../STM32F2xx_StdPeriph_Driver/src/stm32f2xx_can.c ****   }
 667:../STM32F2xx_StdPeriph_Driver/src/stm32f2xx_can.c ****   switch (state)
 1225              		.loc 1 667 0
 1226 0844 FB68     		ldr	r3, [r7, #12]
 1227 0846 4FF48072 		mov	r2, #256
 1228 084a C0F60002 		movt	r2, 2048
 1229 084e 9342     		cmp	r3, r2
 1230 0850 2FD0     		beq	.L60
 1231 0852 4FF48072 		mov	r2, #256
 1232 0856 C0F60002 		movt	r2, 2048
 1233 085a 9342     		cmp	r3, r2
 1234 085c 0ED8     		bhi	.L64
 1235 085e 4FF00102 		mov	r2, #1
 1236 0862 C0F20042 		movt	r2, 1024
 1237 0866 9342     		cmp	r3, r2
 1238 0868 1FD0     		beq	.L58
 1239 086a 4FF00302 		mov	r2, #3
 1240 086e C0F20042 		movt	r2, 1024
 1241 0872 9342     		cmp	r3, r2
 1242 0874 25D0     		beq	.L59
 1243 0876 002B     		cmp	r3, #0
 1244 0878 13D0     		beq	.L57
 1245 087a 2EE0     		b	.L56
 1246              	.L64:
 1247 087c 4FF00002 		mov	r2, #0
 1248 0880 C1F20102 		movt	r2, 4097
 1249 0884 9342     		cmp	r3, r2
 1250 0886 18D0     		beq	.L62
 1251 0888 4FF00002 		mov	r2, #0
 1252 088c C1F20302 		movt	r2, 4099
 1253 0890 9342     		cmp	r3, r2
 1254 0892 1ED0     		beq	.L63
 1255 0894 4FF44072 		mov	r2, #768
 1256 0898 C0F60002 		movt	r2, 2048
 1257 089c 9342     		cmp	r3, r2
 1258 089e 14D0     		beq	.L61
 1259 08a0 1BE0     		b	.L56
 1260              	.L57:
 668:../STM32F2xx_StdPeriph_Driver/src/stm32f2xx_can.c ****   {
 669:../STM32F2xx_StdPeriph_Driver/src/stm32f2xx_can.c ****       /* transmit pending  */
 670:../STM32F2xx_StdPeriph_Driver/src/stm32f2xx_can.c ****     case (0x0): state = CAN_TxStatus_Pending;
 1261              		.loc 1 670 0
 1262 08a2 4FF00203 		mov	r3, #2
 1263 08a6 FB60     		str	r3, [r7, #12]
 671:../STM32F2xx_StdPeriph_Driver/src/stm32f2xx_can.c ****       break;
 1264              		.loc 1 671 0
 1265 08a8 1BE0     		b	.L65
 1266              	.L58:
 672:../STM32F2xx_StdPeriph_Driver/src/stm32f2xx_can.c ****       /* transmit failed  */
 673:../STM32F2xx_StdPeriph_Driver/src/stm32f2xx_can.c ****      case (CAN_TSR_RQCP0 | CAN_TSR_TME0): state = CAN_TxStatus_Failed;
 1267              		.loc 1 673 0
 1268 08aa 4FF00003 		mov	r3, #0
 1269 08ae FB60     		str	r3, [r7, #12]
 674:../STM32F2xx_StdPeriph_Driver/src/stm32f2xx_can.c ****       break;
 1270              		.loc 1 674 0
 1271 08b0 17E0     		b	.L65
 1272              	.L60:
 675:../STM32F2xx_StdPeriph_Driver/src/stm32f2xx_can.c ****      case (CAN_TSR_RQCP1 | CAN_TSR_TME1): state = CAN_TxStatus_Failed;
 1273              		.loc 1 675 0
 1274 08b2 4FF00003 		mov	r3, #0
 1275 08b6 FB60     		str	r3, [r7, #12]
 676:../STM32F2xx_StdPeriph_Driver/src/stm32f2xx_can.c ****       break;
 1276              		.loc 1 676 0
 1277 08b8 13E0     		b	.L65
 1278              	.L62:
 677:../STM32F2xx_StdPeriph_Driver/src/stm32f2xx_can.c ****      case (CAN_TSR_RQCP2 | CAN_TSR_TME2): state = CAN_TxStatus_Failed;
 1279              		.loc 1 677 0
 1280 08ba 4FF00003 		mov	r3, #0
 1281 08be FB60     		str	r3, [r7, #12]
 678:../STM32F2xx_StdPeriph_Driver/src/stm32f2xx_can.c ****       break;
 1282              		.loc 1 678 0
 1283 08c0 0FE0     		b	.L65
 1284              	.L59:
 679:../STM32F2xx_StdPeriph_Driver/src/stm32f2xx_can.c ****       /* transmit succeeded  */
 680:../STM32F2xx_StdPeriph_Driver/src/stm32f2xx_can.c ****     case (CAN_TSR_RQCP0 | CAN_TSR_TXOK0 | CAN_TSR_TME0):state = CAN_TxStatus_Ok;
 1285              		.loc 1 680 0
 1286 08c2 4FF00103 		mov	r3, #1
 1287 08c6 FB60     		str	r3, [r7, #12]
 681:../STM32F2xx_StdPeriph_Driver/src/stm32f2xx_can.c ****       break;
 1288              		.loc 1 681 0
 1289 08c8 0BE0     		b	.L65
 1290              	.L61:
 682:../STM32F2xx_StdPeriph_Driver/src/stm32f2xx_can.c ****     case (CAN_TSR_RQCP1 | CAN_TSR_TXOK1 | CAN_TSR_TME1):state = CAN_TxStatus_Ok;
 1291              		.loc 1 682 0
 1292 08ca 4FF00103 		mov	r3, #1
 1293 08ce FB60     		str	r3, [r7, #12]
 683:../STM32F2xx_StdPeriph_Driver/src/stm32f2xx_can.c ****       break;
 1294              		.loc 1 683 0
 1295 08d0 07E0     		b	.L65
 1296              	.L63:
 684:../STM32F2xx_StdPeriph_Driver/src/stm32f2xx_can.c ****     case (CAN_TSR_RQCP2 | CAN_TSR_TXOK2 | CAN_TSR_TME2):state = CAN_TxStatus_Ok;
 1297              		.loc 1 684 0
 1298 08d2 4FF00103 		mov	r3, #1
 1299 08d6 FB60     		str	r3, [r7, #12]
 685:../STM32F2xx_StdPeriph_Driver/src/stm32f2xx_can.c ****       break;
 1300              		.loc 1 685 0
 1301 08d8 03E0     		b	.L65
 1302              	.L56:
 686:../STM32F2xx_StdPeriph_Driver/src/stm32f2xx_can.c ****     default: state = CAN_TxStatus_Failed;
 1303              		.loc 1 686 0
 1304 08da 4FF00003 		mov	r3, #0
 1305 08de FB60     		str	r3, [r7, #12]
 687:../STM32F2xx_StdPeriph_Driver/src/stm32f2xx_can.c ****       break;
 1306              		.loc 1 687 0
 1307 08e0 00BF     		nop
 1308              	.L65:
 688:../STM32F2xx_StdPeriph_Driver/src/stm32f2xx_can.c ****   }
 689:../STM32F2xx_StdPeriph_Driver/src/stm32f2xx_can.c ****   return (uint8_t) state;
 1309              		.loc 1 689 0
 1310 08e2 FB68     		ldr	r3, [r7, #12]
 1311 08e4 DBB2     		uxtb	r3, r3
 690:../STM32F2xx_StdPeriph_Driver/src/stm32f2xx_can.c **** }
 1312              		.loc 1 690 0
 1313 08e6 1846     		mov	r0, r3
 1314 08e8 07F11407 		add	r7, r7, #20
 1315 08ec BD46     		mov	sp, r7
 1316 08ee 80BC     		pop	{r7}
 1317 08f0 7047     		bx	lr
 1318              		.cfi_endproc
 1319              	.LFE37:
 1321 08f2 00BF     		.align	2
 1322              		.global	CAN_CancelTransmit
 1323              		.thumb
 1324              		.thumb_func
 1326              	CAN_CancelTransmit:
 1327              	.LFB38:
 691:../STM32F2xx_StdPeriph_Driver/src/stm32f2xx_can.c **** 
 692:../STM32F2xx_StdPeriph_Driver/src/stm32f2xx_can.c **** /**
 693:../STM32F2xx_StdPeriph_Driver/src/stm32f2xx_can.c ****   * @brief  Cancels a transmit request.
 694:../STM32F2xx_StdPeriph_Driver/src/stm32f2xx_can.c ****   * @param  CANx: where x can be 1 or 2 to select the CAN peripheral.
 695:../STM32F2xx_StdPeriph_Driver/src/stm32f2xx_can.c ****   * @param  Mailbox: Mailbox number.
 696:../STM32F2xx_StdPeriph_Driver/src/stm32f2xx_can.c ****   * @retval None
 697:../STM32F2xx_StdPeriph_Driver/src/stm32f2xx_can.c ****   */
 698:../STM32F2xx_StdPeriph_Driver/src/stm32f2xx_can.c **** void CAN_CancelTransmit(CAN_TypeDef* CANx, uint8_t Mailbox)
 699:../STM32F2xx_StdPeriph_Driver/src/stm32f2xx_can.c **** {
 1328              		.loc 1 699 0
 1329              		.cfi_startproc
 1330              		@ args = 0, pretend = 0, frame = 8
 1331              		@ frame_needed = 1, uses_anonymous_args = 0
 1332              		@ link register save eliminated.
 1333 08f4 80B4     		push	{r7}
 1334              	.LCFI27:
 1335              		.cfi_def_cfa_offset 4
 1336              		.cfi_offset 7, -4
 1337 08f6 83B0     		sub	sp, sp, #12
 1338              	.LCFI28:
 1339              		.cfi_def_cfa_offset 16
 1340 08f8 00AF     		add	r7, sp, #0
 1341              	.LCFI29:
 1342              		.cfi_def_cfa_register 7
 1343 08fa 7860     		str	r0, [r7, #4]
 1344 08fc 0B46     		mov	r3, r1
 1345 08fe FB70     		strb	r3, [r7, #3]
 700:../STM32F2xx_StdPeriph_Driver/src/stm32f2xx_can.c ****   /* Check the parameters */
 701:../STM32F2xx_StdPeriph_Driver/src/stm32f2xx_can.c ****   assert_param(IS_CAN_ALL_PERIPH(CANx));
 702:../STM32F2xx_StdPeriph_Driver/src/stm32f2xx_can.c ****   assert_param(IS_CAN_TRANSMITMAILBOX(Mailbox));
 703:../STM32F2xx_StdPeriph_Driver/src/stm32f2xx_can.c ****   /* abort transmission */
 704:../STM32F2xx_StdPeriph_Driver/src/stm32f2xx_can.c ****   switch (Mailbox)
 1346              		.loc 1 704 0
 1347 0900 FB78     		ldrb	r3, [r7, #3]	@ zero_extendqisi2
 1348 0902 012B     		cmp	r3, #1
 1349 0904 0AD0     		beq	.L70
 1350 0906 022B     		cmp	r3, #2
 1351 0908 0FD0     		beq	.L71
 1352 090a 002B     		cmp	r3, #0
 1353 090c 14D1     		bne	.L73
 1354              	.L69:
 705:../STM32F2xx_StdPeriph_Driver/src/stm32f2xx_can.c ****   {
 706:../STM32F2xx_StdPeriph_Driver/src/stm32f2xx_can.c ****     case (CAN_TXMAILBOX_0): CANx->TSR |= CAN_TSR_ABRQ0;
 1355              		.loc 1 706 0
 1356 090e 7B68     		ldr	r3, [r7, #4]
 1357 0910 9B68     		ldr	r3, [r3, #8]
 1358 0912 43F08002 		orr	r2, r3, #128
 1359 0916 7B68     		ldr	r3, [r7, #4]
 1360 0918 9A60     		str	r2, [r3, #8]
 707:../STM32F2xx_StdPeriph_Driver/src/stm32f2xx_can.c ****       break;
 1361              		.loc 1 707 0
 1362 091a 0EE0     		b	.L67
 1363              	.L70:
 708:../STM32F2xx_StdPeriph_Driver/src/stm32f2xx_can.c ****     case (CAN_TXMAILBOX_1): CANx->TSR |= CAN_TSR_ABRQ1;
 1364              		.loc 1 708 0
 1365 091c 7B68     		ldr	r3, [r7, #4]
 1366 091e 9B68     		ldr	r3, [r3, #8]
 1367 0920 43F40042 		orr	r2, r3, #32768
 1368 0924 7B68     		ldr	r3, [r7, #4]
 1369 0926 9A60     		str	r2, [r3, #8]
 709:../STM32F2xx_StdPeriph_Driver/src/stm32f2xx_can.c ****       break;
 1370              		.loc 1 709 0
 1371 0928 07E0     		b	.L67
 1372              	.L71:
 710:../STM32F2xx_StdPeriph_Driver/src/stm32f2xx_can.c ****     case (CAN_TXMAILBOX_2): CANx->TSR |= CAN_TSR_ABRQ2;
 1373              		.loc 1 710 0
 1374 092a 7B68     		ldr	r3, [r7, #4]
 1375 092c 9B68     		ldr	r3, [r3, #8]
 1376 092e 43F40002 		orr	r2, r3, #8388608
 1377 0932 7B68     		ldr	r3, [r7, #4]
 1378 0934 9A60     		str	r2, [r3, #8]
 711:../STM32F2xx_StdPeriph_Driver/src/stm32f2xx_can.c ****       break;
 1379              		.loc 1 711 0
 1380 0936 00E0     		b	.L67
 1381              	.L73:
 712:../STM32F2xx_StdPeriph_Driver/src/stm32f2xx_can.c ****     default:
 713:../STM32F2xx_StdPeriph_Driver/src/stm32f2xx_can.c ****       break;
 1382              		.loc 1 713 0
 1383 0938 00BF     		nop
 1384              	.L67:
 714:../STM32F2xx_StdPeriph_Driver/src/stm32f2xx_can.c ****   }
 715:../STM32F2xx_StdPeriph_Driver/src/stm32f2xx_can.c **** }
 1385              		.loc 1 715 0
 1386 093a 07F10C07 		add	r7, r7, #12
 1387 093e BD46     		mov	sp, r7
 1388 0940 80BC     		pop	{r7}
 1389 0942 7047     		bx	lr
 1390              		.cfi_endproc
 1391              	.LFE38:
 1393              		.align	2
 1394              		.global	CAN_Receive
 1395              		.thumb
 1396              		.thumb_func
 1398              	CAN_Receive:
 1399              	.LFB39:
 716:../STM32F2xx_StdPeriph_Driver/src/stm32f2xx_can.c **** /**
 717:../STM32F2xx_StdPeriph_Driver/src/stm32f2xx_can.c ****   * @}
 718:../STM32F2xx_StdPeriph_Driver/src/stm32f2xx_can.c ****   */
 719:../STM32F2xx_StdPeriph_Driver/src/stm32f2xx_can.c **** 
 720:../STM32F2xx_StdPeriph_Driver/src/stm32f2xx_can.c **** 
 721:../STM32F2xx_StdPeriph_Driver/src/stm32f2xx_can.c **** /** @defgroup CAN_Group3 CAN Frames Reception functions
 722:../STM32F2xx_StdPeriph_Driver/src/stm32f2xx_can.c ****  *  @brief    CAN Frames Reception functions 
 723:../STM32F2xx_StdPeriph_Driver/src/stm32f2xx_can.c ****  *
 724:../STM32F2xx_StdPeriph_Driver/src/stm32f2xx_can.c **** @verbatim    
 725:../STM32F2xx_StdPeriph_Driver/src/stm32f2xx_can.c ****  ===============================================================================
 726:../STM32F2xx_StdPeriph_Driver/src/stm32f2xx_can.c ****                       CAN Frames Reception functions
 727:../STM32F2xx_StdPeriph_Driver/src/stm32f2xx_can.c ****  ===============================================================================  
 728:../STM32F2xx_StdPeriph_Driver/src/stm32f2xx_can.c ****   This section provides functions allowing to 
 729:../STM32F2xx_StdPeriph_Driver/src/stm32f2xx_can.c ****    -  Receive a correct CAN frame
 730:../STM32F2xx_StdPeriph_Driver/src/stm32f2xx_can.c ****    -  Release a specified receive FIFO (2 FIFOs are available)
 731:../STM32F2xx_StdPeriph_Driver/src/stm32f2xx_can.c ****    -  Return the number of the pending received CAN frames
 732:../STM32F2xx_StdPeriph_Driver/src/stm32f2xx_can.c ****    
 733:../STM32F2xx_StdPeriph_Driver/src/stm32f2xx_can.c **** @endverbatim
 734:../STM32F2xx_StdPeriph_Driver/src/stm32f2xx_can.c ****   * @{
 735:../STM32F2xx_StdPeriph_Driver/src/stm32f2xx_can.c ****   */
 736:../STM32F2xx_StdPeriph_Driver/src/stm32f2xx_can.c **** 
 737:../STM32F2xx_StdPeriph_Driver/src/stm32f2xx_can.c **** /**
 738:../STM32F2xx_StdPeriph_Driver/src/stm32f2xx_can.c ****   * @brief  Receives a correct CAN frame.
 739:../STM32F2xx_StdPeriph_Driver/src/stm32f2xx_can.c ****   * @param  CANx: where x can be 1 or 2 to select the CAN peripheral.
 740:../STM32F2xx_StdPeriph_Driver/src/stm32f2xx_can.c ****   * @param  FIFONumber: Receive FIFO number, CAN_FIFO0 or CAN_FIFO1.
 741:../STM32F2xx_StdPeriph_Driver/src/stm32f2xx_can.c ****   * @param  RxMessage: pointer to a structure receive frame which contains CAN Id,
 742:../STM32F2xx_StdPeriph_Driver/src/stm32f2xx_can.c ****   *         CAN DLC, CAN data and FMI number.
 743:../STM32F2xx_StdPeriph_Driver/src/stm32f2xx_can.c ****   * @retval None
 744:../STM32F2xx_StdPeriph_Driver/src/stm32f2xx_can.c ****   */
 745:../STM32F2xx_StdPeriph_Driver/src/stm32f2xx_can.c **** void CAN_Receive(CAN_TypeDef* CANx, uint8_t FIFONumber, CanRxMsg* RxMessage)
 746:../STM32F2xx_StdPeriph_Driver/src/stm32f2xx_can.c **** {
 1400              		.loc 1 746 0
 1401              		.cfi_startproc
 1402              		@ args = 0, pretend = 0, frame = 16
 1403              		@ frame_needed = 1, uses_anonymous_args = 0
 1404              		@ link register save eliminated.
 1405 0944 80B4     		push	{r7}
 1406              	.LCFI30:
 1407              		.cfi_def_cfa_offset 4
 1408              		.cfi_offset 7, -4
 1409 0946 85B0     		sub	sp, sp, #20
 1410              	.LCFI31:
 1411              		.cfi_def_cfa_offset 24
 1412 0948 00AF     		add	r7, sp, #0
 1413              	.LCFI32:
 1414              		.cfi_def_cfa_register 7
 1415 094a F860     		str	r0, [r7, #12]
 1416 094c 0B46     		mov	r3, r1
 1417 094e 7A60     		str	r2, [r7, #4]
 1418 0950 FB72     		strb	r3, [r7, #11]
 747:../STM32F2xx_StdPeriph_Driver/src/stm32f2xx_can.c ****   /* Check the parameters */
 748:../STM32F2xx_StdPeriph_Driver/src/stm32f2xx_can.c ****   assert_param(IS_CAN_ALL_PERIPH(CANx));
 749:../STM32F2xx_StdPeriph_Driver/src/stm32f2xx_can.c ****   assert_param(IS_CAN_FIFO(FIFONumber));
 750:../STM32F2xx_StdPeriph_Driver/src/stm32f2xx_can.c ****   /* Get the Id */
 751:../STM32F2xx_StdPeriph_Driver/src/stm32f2xx_can.c ****   RxMessage->IDE = (uint8_t)0x04 & CANx->sFIFOMailBox[FIFONumber].RIR;
 1419              		.loc 1 751 0
 1420 0952 FB7A     		ldrb	r3, [r7, #11]	@ zero_extendqisi2
 1421 0954 FA68     		ldr	r2, [r7, #12]
 1422 0956 03F11B03 		add	r3, r3, #27
 1423 095a 4FEA0313 		lsl	r3, r3, #4
 1424 095e D318     		adds	r3, r2, r3
 1425 0960 1B68     		ldr	r3, [r3, #0]
 1426 0962 DBB2     		uxtb	r3, r3
 1427 0964 03F00403 		and	r3, r3, #4
 1428 0968 DAB2     		uxtb	r2, r3
 1429 096a 7B68     		ldr	r3, [r7, #4]
 1430 096c 1A72     		strb	r2, [r3, #8]
 752:../STM32F2xx_StdPeriph_Driver/src/stm32f2xx_can.c ****   if (RxMessage->IDE == CAN_Id_Standard)
 1431              		.loc 1 752 0
 1432 096e 7B68     		ldr	r3, [r7, #4]
 1433 0970 1B7A     		ldrb	r3, [r3, #8]	@ zero_extendqisi2
 1434 0972 002B     		cmp	r3, #0
 1435 0974 0CD1     		bne	.L75
 753:../STM32F2xx_StdPeriph_Driver/src/stm32f2xx_can.c ****   {
 754:../STM32F2xx_StdPeriph_Driver/src/stm32f2xx_can.c ****     RxMessage->StdId = (uint32_t)0x000007FF & (CANx->sFIFOMailBox[FIFONumber].RIR >> 21);
 1436              		.loc 1 754 0
 1437 0976 FB7A     		ldrb	r3, [r7, #11]	@ zero_extendqisi2
 1438 0978 FA68     		ldr	r2, [r7, #12]
 1439 097a 03F11B03 		add	r3, r3, #27
 1440 097e 4FEA0313 		lsl	r3, r3, #4
 1441 0982 D318     		adds	r3, r2, r3
 1442 0984 1B68     		ldr	r3, [r3, #0]
 1443 0986 4FEA5352 		lsr	r2, r3, #21
 1444 098a 7B68     		ldr	r3, [r7, #4]
 1445 098c 1A60     		str	r2, [r3, #0]
 1446 098e 0BE0     		b	.L76
 1447              	.L75:
 755:../STM32F2xx_StdPeriph_Driver/src/stm32f2xx_can.c ****   }
 756:../STM32F2xx_StdPeriph_Driver/src/stm32f2xx_can.c ****   else
 757:../STM32F2xx_StdPeriph_Driver/src/stm32f2xx_can.c ****   {
 758:../STM32F2xx_StdPeriph_Driver/src/stm32f2xx_can.c ****     RxMessage->ExtId = (uint32_t)0x1FFFFFFF & (CANx->sFIFOMailBox[FIFONumber].RIR >> 3);
 1448              		.loc 1 758 0
 1449 0990 FB7A     		ldrb	r3, [r7, #11]	@ zero_extendqisi2
 1450 0992 FA68     		ldr	r2, [r7, #12]
 1451 0994 03F11B03 		add	r3, r3, #27
 1452 0998 4FEA0313 		lsl	r3, r3, #4
 1453 099c D318     		adds	r3, r2, r3
 1454 099e 1B68     		ldr	r3, [r3, #0]
 1455 09a0 4FEAD302 		lsr	r2, r3, #3
 1456 09a4 7B68     		ldr	r3, [r7, #4]
 1457 09a6 5A60     		str	r2, [r3, #4]
 1458              	.L76:
 759:../STM32F2xx_StdPeriph_Driver/src/stm32f2xx_can.c ****   }
 760:../STM32F2xx_StdPeriph_Driver/src/stm32f2xx_can.c ****   
 761:../STM32F2xx_StdPeriph_Driver/src/stm32f2xx_can.c ****   RxMessage->RTR = (uint8_t)0x02 & CANx->sFIFOMailBox[FIFONumber].RIR;
 1459              		.loc 1 761 0
 1460 09a8 FB7A     		ldrb	r3, [r7, #11]	@ zero_extendqisi2
 1461 09aa FA68     		ldr	r2, [r7, #12]
 1462 09ac 03F11B03 		add	r3, r3, #27
 1463 09b0 4FEA0313 		lsl	r3, r3, #4
 1464 09b4 D318     		adds	r3, r2, r3
 1465 09b6 1B68     		ldr	r3, [r3, #0]
 1466 09b8 DBB2     		uxtb	r3, r3
 1467 09ba 03F00203 		and	r3, r3, #2
 1468 09be DAB2     		uxtb	r2, r3
 1469 09c0 7B68     		ldr	r3, [r7, #4]
 1470 09c2 5A72     		strb	r2, [r3, #9]
 762:../STM32F2xx_StdPeriph_Driver/src/stm32f2xx_can.c ****   /* Get the DLC */
 763:../STM32F2xx_StdPeriph_Driver/src/stm32f2xx_can.c ****   RxMessage->DLC = (uint8_t)0x0F & CANx->sFIFOMailBox[FIFONumber].RDTR;
 1471              		.loc 1 763 0
 1472 09c4 FB7A     		ldrb	r3, [r7, #11]	@ zero_extendqisi2
 1473 09c6 FA68     		ldr	r2, [r7, #12]
 1474 09c8 03F11B03 		add	r3, r3, #27
 1475 09cc 4FEA0313 		lsl	r3, r3, #4
 1476 09d0 D318     		adds	r3, r2, r3
 1477 09d2 5B68     		ldr	r3, [r3, #4]
 1478 09d4 DBB2     		uxtb	r3, r3
 1479 09d6 03F00F03 		and	r3, r3, #15
 1480 09da DAB2     		uxtb	r2, r3
 1481 09dc 7B68     		ldr	r3, [r7, #4]
 1482 09de 9A72     		strb	r2, [r3, #10]
 764:../STM32F2xx_StdPeriph_Driver/src/stm32f2xx_can.c ****   /* Get the FMI */
 765:../STM32F2xx_StdPeriph_Driver/src/stm32f2xx_can.c ****   RxMessage->FMI = (uint8_t)0xFF & (CANx->sFIFOMailBox[FIFONumber].RDTR >> 8);
 1483              		.loc 1 765 0
 1484 09e0 FB7A     		ldrb	r3, [r7, #11]	@ zero_extendqisi2
 1485 09e2 FA68     		ldr	r2, [r7, #12]
 1486 09e4 03F11B03 		add	r3, r3, #27
 1487 09e8 4FEA0313 		lsl	r3, r3, #4
 1488 09ec D318     		adds	r3, r2, r3
 1489 09ee 5B68     		ldr	r3, [r3, #4]
 1490 09f0 4FEA1323 		lsr	r3, r3, #8
 1491 09f4 DAB2     		uxtb	r2, r3
 1492 09f6 7B68     		ldr	r3, [r7, #4]
 1493 09f8 DA74     		strb	r2, [r3, #19]
 766:../STM32F2xx_StdPeriph_Driver/src/stm32f2xx_can.c ****   /* Get the data field */
 767:../STM32F2xx_StdPeriph_Driver/src/stm32f2xx_can.c ****   RxMessage->Data[0] = (uint8_t)0xFF & CANx->sFIFOMailBox[FIFONumber].RDLR;
 1494              		.loc 1 767 0
 1495 09fa FB7A     		ldrb	r3, [r7, #11]	@ zero_extendqisi2
 1496 09fc FA68     		ldr	r2, [r7, #12]
 1497 09fe 4FEA0313 		lsl	r3, r3, #4
 1498 0a02 D318     		adds	r3, r2, r3
 1499 0a04 03F5DC73 		add	r3, r3, #440
 1500 0a08 1B68     		ldr	r3, [r3, #0]
 1501 0a0a DAB2     		uxtb	r2, r3
 1502 0a0c 7B68     		ldr	r3, [r7, #4]
 1503 0a0e DA72     		strb	r2, [r3, #11]
 768:../STM32F2xx_StdPeriph_Driver/src/stm32f2xx_can.c ****   RxMessage->Data[1] = (uint8_t)0xFF & (CANx->sFIFOMailBox[FIFONumber].RDLR >> 8);
 1504              		.loc 1 768 0
 1505 0a10 FB7A     		ldrb	r3, [r7, #11]	@ zero_extendqisi2
 1506 0a12 FA68     		ldr	r2, [r7, #12]
 1507 0a14 4FEA0313 		lsl	r3, r3, #4
 1508 0a18 D318     		adds	r3, r2, r3
 1509 0a1a 03F5DC73 		add	r3, r3, #440
 1510 0a1e 1B68     		ldr	r3, [r3, #0]
 1511 0a20 4FEA1323 		lsr	r3, r3, #8
 1512 0a24 DAB2     		uxtb	r2, r3
 1513 0a26 7B68     		ldr	r3, [r7, #4]
 1514 0a28 1A73     		strb	r2, [r3, #12]
 769:../STM32F2xx_StdPeriph_Driver/src/stm32f2xx_can.c ****   RxMessage->Data[2] = (uint8_t)0xFF & (CANx->sFIFOMailBox[FIFONumber].RDLR >> 16);
 1515              		.loc 1 769 0
 1516 0a2a FB7A     		ldrb	r3, [r7, #11]	@ zero_extendqisi2
 1517 0a2c FA68     		ldr	r2, [r7, #12]
 1518 0a2e 4FEA0313 		lsl	r3, r3, #4
 1519 0a32 D318     		adds	r3, r2, r3
 1520 0a34 03F5DC73 		add	r3, r3, #440
 1521 0a38 1B68     		ldr	r3, [r3, #0]
 1522 0a3a 4FEA1343 		lsr	r3, r3, #16
 1523 0a3e DAB2     		uxtb	r2, r3
 1524 0a40 7B68     		ldr	r3, [r7, #4]
 1525 0a42 5A73     		strb	r2, [r3, #13]
 770:../STM32F2xx_StdPeriph_Driver/src/stm32f2xx_can.c ****   RxMessage->Data[3] = (uint8_t)0xFF & (CANx->sFIFOMailBox[FIFONumber].RDLR >> 24);
 1526              		.loc 1 770 0
 1527 0a44 FB7A     		ldrb	r3, [r7, #11]	@ zero_extendqisi2
 1528 0a46 FA68     		ldr	r2, [r7, #12]
 1529 0a48 4FEA0313 		lsl	r3, r3, #4
 1530 0a4c D318     		adds	r3, r2, r3
 1531 0a4e 03F5DC73 		add	r3, r3, #440
 1532 0a52 1B68     		ldr	r3, [r3, #0]
 1533 0a54 4FEA1363 		lsr	r3, r3, #24
 1534 0a58 DAB2     		uxtb	r2, r3
 1535 0a5a 7B68     		ldr	r3, [r7, #4]
 1536 0a5c 9A73     		strb	r2, [r3, #14]
 771:../STM32F2xx_StdPeriph_Driver/src/stm32f2xx_can.c ****   RxMessage->Data[4] = (uint8_t)0xFF & CANx->sFIFOMailBox[FIFONumber].RDHR;
 1537              		.loc 1 771 0
 1538 0a5e FB7A     		ldrb	r3, [r7, #11]	@ zero_extendqisi2
 1539 0a60 FA68     		ldr	r2, [r7, #12]
 1540 0a62 4FEA0313 		lsl	r3, r3, #4
 1541 0a66 D318     		adds	r3, r2, r3
 1542 0a68 03F5DC73 		add	r3, r3, #440
 1543 0a6c 5B68     		ldr	r3, [r3, #4]
 1544 0a6e DAB2     		uxtb	r2, r3
 1545 0a70 7B68     		ldr	r3, [r7, #4]
 1546 0a72 DA73     		strb	r2, [r3, #15]
 772:../STM32F2xx_StdPeriph_Driver/src/stm32f2xx_can.c ****   RxMessage->Data[5] = (uint8_t)0xFF & (CANx->sFIFOMailBox[FIFONumber].RDHR >> 8);
 1547              		.loc 1 772 0
 1548 0a74 FB7A     		ldrb	r3, [r7, #11]	@ zero_extendqisi2
 1549 0a76 FA68     		ldr	r2, [r7, #12]
 1550 0a78 4FEA0313 		lsl	r3, r3, #4
 1551 0a7c D318     		adds	r3, r2, r3
 1552 0a7e 03F5DC73 		add	r3, r3, #440
 1553 0a82 5B68     		ldr	r3, [r3, #4]
 1554 0a84 4FEA1323 		lsr	r3, r3, #8
 1555 0a88 DAB2     		uxtb	r2, r3
 1556 0a8a 7B68     		ldr	r3, [r7, #4]
 1557 0a8c 1A74     		strb	r2, [r3, #16]
 773:../STM32F2xx_StdPeriph_Driver/src/stm32f2xx_can.c ****   RxMessage->Data[6] = (uint8_t)0xFF & (CANx->sFIFOMailBox[FIFONumber].RDHR >> 16);
 1558              		.loc 1 773 0
 1559 0a8e FB7A     		ldrb	r3, [r7, #11]	@ zero_extendqisi2
 1560 0a90 FA68     		ldr	r2, [r7, #12]
 1561 0a92 4FEA0313 		lsl	r3, r3, #4
 1562 0a96 D318     		adds	r3, r2, r3
 1563 0a98 03F5DC73 		add	r3, r3, #440
 1564 0a9c 5B68     		ldr	r3, [r3, #4]
 1565 0a9e 4FEA1343 		lsr	r3, r3, #16
 1566 0aa2 DAB2     		uxtb	r2, r3
 1567 0aa4 7B68     		ldr	r3, [r7, #4]
 1568 0aa6 5A74     		strb	r2, [r3, #17]
 774:../STM32F2xx_StdPeriph_Driver/src/stm32f2xx_can.c ****   RxMessage->Data[7] = (uint8_t)0xFF & (CANx->sFIFOMailBox[FIFONumber].RDHR >> 24);
 1569              		.loc 1 774 0
 1570 0aa8 FB7A     		ldrb	r3, [r7, #11]	@ zero_extendqisi2
 1571 0aaa FA68     		ldr	r2, [r7, #12]
 1572 0aac 4FEA0313 		lsl	r3, r3, #4
 1573 0ab0 D318     		adds	r3, r2, r3
 1574 0ab2 03F5DC73 		add	r3, r3, #440
 1575 0ab6 5B68     		ldr	r3, [r3, #4]
 1576 0ab8 4FEA1363 		lsr	r3, r3, #24
 1577 0abc DAB2     		uxtb	r2, r3
 1578 0abe 7B68     		ldr	r3, [r7, #4]
 1579 0ac0 9A74     		strb	r2, [r3, #18]
 775:../STM32F2xx_StdPeriph_Driver/src/stm32f2xx_can.c ****   /* Release the FIFO */
 776:../STM32F2xx_StdPeriph_Driver/src/stm32f2xx_can.c ****   /* Release FIFO0 */
 777:../STM32F2xx_StdPeriph_Driver/src/stm32f2xx_can.c ****   if (FIFONumber == CAN_FIFO0)
 1580              		.loc 1 777 0
 1581 0ac2 FB7A     		ldrb	r3, [r7, #11]	@ zero_extendqisi2
 1582 0ac4 002B     		cmp	r3, #0
 1583 0ac6 06D1     		bne	.L77
 778:../STM32F2xx_StdPeriph_Driver/src/stm32f2xx_can.c ****   {
 779:../STM32F2xx_StdPeriph_Driver/src/stm32f2xx_can.c ****     CANx->RF0R |= CAN_RF0R_RFOM0;
 1584              		.loc 1 779 0
 1585 0ac8 FB68     		ldr	r3, [r7, #12]
 1586 0aca DB68     		ldr	r3, [r3, #12]
 1587 0acc 43F02002 		orr	r2, r3, #32
 1588 0ad0 FB68     		ldr	r3, [r7, #12]
 1589 0ad2 DA60     		str	r2, [r3, #12]
 1590 0ad4 05E0     		b	.L74
 1591              	.L77:
 780:../STM32F2xx_StdPeriph_Driver/src/stm32f2xx_can.c ****   }
 781:../STM32F2xx_StdPeriph_Driver/src/stm32f2xx_can.c ****   /* Release FIFO1 */
 782:../STM32F2xx_StdPeriph_Driver/src/stm32f2xx_can.c ****   else /* FIFONumber == CAN_FIFO1 */
 783:../STM32F2xx_StdPeriph_Driver/src/stm32f2xx_can.c ****   {
 784:../STM32F2xx_StdPeriph_Driver/src/stm32f2xx_can.c ****     CANx->RF1R |= CAN_RF1R_RFOM1;
 1592              		.loc 1 784 0
 1593 0ad6 FB68     		ldr	r3, [r7, #12]
 1594 0ad8 1B69     		ldr	r3, [r3, #16]
 1595 0ada 43F02002 		orr	r2, r3, #32
 1596 0ade FB68     		ldr	r3, [r7, #12]
 1597 0ae0 1A61     		str	r2, [r3, #16]
 1598              	.L74:
 785:../STM32F2xx_StdPeriph_Driver/src/stm32f2xx_can.c ****   }
 786:../STM32F2xx_StdPeriph_Driver/src/stm32f2xx_can.c **** }
 1599              		.loc 1 786 0
 1600 0ae2 07F11407 		add	r7, r7, #20
 1601 0ae6 BD46     		mov	sp, r7
 1602 0ae8 80BC     		pop	{r7}
 1603 0aea 7047     		bx	lr
 1604              		.cfi_endproc
 1605              	.LFE39:
 1607              		.align	2
 1608              		.global	CAN_FIFORelease
 1609              		.thumb
 1610              		.thumb_func
 1612              	CAN_FIFORelease:
 1613              	.LFB40:
 787:../STM32F2xx_StdPeriph_Driver/src/stm32f2xx_can.c **** 
 788:../STM32F2xx_StdPeriph_Driver/src/stm32f2xx_can.c **** /**
 789:../STM32F2xx_StdPeriph_Driver/src/stm32f2xx_can.c ****   * @brief  Releases the specified receive FIFO.
 790:../STM32F2xx_StdPeriph_Driver/src/stm32f2xx_can.c ****   * @param  CANx: where x can be 1 or 2 to select the CAN peripheral.
 791:../STM32F2xx_StdPeriph_Driver/src/stm32f2xx_can.c ****   * @param  FIFONumber: FIFO to release, CAN_FIFO0 or CAN_FIFO1.
 792:../STM32F2xx_StdPeriph_Driver/src/stm32f2xx_can.c ****   * @retval None
 793:../STM32F2xx_StdPeriph_Driver/src/stm32f2xx_can.c ****   */
 794:../STM32F2xx_StdPeriph_Driver/src/stm32f2xx_can.c **** void CAN_FIFORelease(CAN_TypeDef* CANx, uint8_t FIFONumber)
 795:../STM32F2xx_StdPeriph_Driver/src/stm32f2xx_can.c **** {
 1614              		.loc 1 795 0
 1615              		.cfi_startproc
 1616              		@ args = 0, pretend = 0, frame = 8
 1617              		@ frame_needed = 1, uses_anonymous_args = 0
 1618              		@ link register save eliminated.
 1619 0aec 80B4     		push	{r7}
 1620              	.LCFI33:
 1621              		.cfi_def_cfa_offset 4
 1622              		.cfi_offset 7, -4
 1623 0aee 83B0     		sub	sp, sp, #12
 1624              	.LCFI34:
 1625              		.cfi_def_cfa_offset 16
 1626 0af0 00AF     		add	r7, sp, #0
 1627              	.LCFI35:
 1628              		.cfi_def_cfa_register 7
 1629 0af2 7860     		str	r0, [r7, #4]
 1630 0af4 0B46     		mov	r3, r1
 1631 0af6 FB70     		strb	r3, [r7, #3]
 796:../STM32F2xx_StdPeriph_Driver/src/stm32f2xx_can.c ****   /* Check the parameters */
 797:../STM32F2xx_StdPeriph_Driver/src/stm32f2xx_can.c ****   assert_param(IS_CAN_ALL_PERIPH(CANx));
 798:../STM32F2xx_StdPeriph_Driver/src/stm32f2xx_can.c ****   assert_param(IS_CAN_FIFO(FIFONumber));
 799:../STM32F2xx_StdPeriph_Driver/src/stm32f2xx_can.c ****   /* Release FIFO0 */
 800:../STM32F2xx_StdPeriph_Driver/src/stm32f2xx_can.c ****   if (FIFONumber == CAN_FIFO0)
 1632              		.loc 1 800 0
 1633 0af8 FB78     		ldrb	r3, [r7, #3]	@ zero_extendqisi2
 1634 0afa 002B     		cmp	r3, #0
 1635 0afc 06D1     		bne	.L80
 801:../STM32F2xx_StdPeriph_Driver/src/stm32f2xx_can.c ****   {
 802:../STM32F2xx_StdPeriph_Driver/src/stm32f2xx_can.c ****     CANx->RF0R |= CAN_RF0R_RFOM0;
 1636              		.loc 1 802 0
 1637 0afe 7B68     		ldr	r3, [r7, #4]
 1638 0b00 DB68     		ldr	r3, [r3, #12]
 1639 0b02 43F02002 		orr	r2, r3, #32
 1640 0b06 7B68     		ldr	r3, [r7, #4]
 1641 0b08 DA60     		str	r2, [r3, #12]
 1642 0b0a 05E0     		b	.L79
 1643              	.L80:
 803:../STM32F2xx_StdPeriph_Driver/src/stm32f2xx_can.c ****   }
 804:../STM32F2xx_StdPeriph_Driver/src/stm32f2xx_can.c ****   /* Release FIFO1 */
 805:../STM32F2xx_StdPeriph_Driver/src/stm32f2xx_can.c ****   else /* FIFONumber == CAN_FIFO1 */
 806:../STM32F2xx_StdPeriph_Driver/src/stm32f2xx_can.c ****   {
 807:../STM32F2xx_StdPeriph_Driver/src/stm32f2xx_can.c ****     CANx->RF1R |= CAN_RF1R_RFOM1;
 1644              		.loc 1 807 0
 1645 0b0c 7B68     		ldr	r3, [r7, #4]
 1646 0b0e 1B69     		ldr	r3, [r3, #16]
 1647 0b10 43F02002 		orr	r2, r3, #32
 1648 0b14 7B68     		ldr	r3, [r7, #4]
 1649 0b16 1A61     		str	r2, [r3, #16]
 1650              	.L79:
 808:../STM32F2xx_StdPeriph_Driver/src/stm32f2xx_can.c ****   }
 809:../STM32F2xx_StdPeriph_Driver/src/stm32f2xx_can.c **** }
 1651              		.loc 1 809 0
 1652 0b18 07F10C07 		add	r7, r7, #12
 1653 0b1c BD46     		mov	sp, r7
 1654 0b1e 80BC     		pop	{r7}
 1655 0b20 7047     		bx	lr
 1656              		.cfi_endproc
 1657              	.LFE40:
 1659 0b22 00BF     		.align	2
 1660              		.global	CAN_MessagePending
 1661              		.thumb
 1662              		.thumb_func
 1664              	CAN_MessagePending:
 1665              	.LFB41:
 810:../STM32F2xx_StdPeriph_Driver/src/stm32f2xx_can.c **** 
 811:../STM32F2xx_StdPeriph_Driver/src/stm32f2xx_can.c **** /**
 812:../STM32F2xx_StdPeriph_Driver/src/stm32f2xx_can.c ****   * @brief  Returns the number of pending received messages.
 813:../STM32F2xx_StdPeriph_Driver/src/stm32f2xx_can.c ****   * @param  CANx: where x can be 1 or 2 to select the CAN peripheral.
 814:../STM32F2xx_StdPeriph_Driver/src/stm32f2xx_can.c ****   * @param  FIFONumber: Receive FIFO number, CAN_FIFO0 or CAN_FIFO1.
 815:../STM32F2xx_StdPeriph_Driver/src/stm32f2xx_can.c ****   * @retval NbMessage : which is the number of pending message.
 816:../STM32F2xx_StdPeriph_Driver/src/stm32f2xx_can.c ****   */
 817:../STM32F2xx_StdPeriph_Driver/src/stm32f2xx_can.c **** uint8_t CAN_MessagePending(CAN_TypeDef* CANx, uint8_t FIFONumber)
 818:../STM32F2xx_StdPeriph_Driver/src/stm32f2xx_can.c **** {
 1666              		.loc 1 818 0
 1667              		.cfi_startproc
 1668              		@ args = 0, pretend = 0, frame = 16
 1669              		@ frame_needed = 1, uses_anonymous_args = 0
 1670              		@ link register save eliminated.
 1671 0b24 80B4     		push	{r7}
 1672              	.LCFI36:
 1673              		.cfi_def_cfa_offset 4
 1674              		.cfi_offset 7, -4
 1675 0b26 85B0     		sub	sp, sp, #20
 1676              	.LCFI37:
 1677              		.cfi_def_cfa_offset 24
 1678 0b28 00AF     		add	r7, sp, #0
 1679              	.LCFI38:
 1680              		.cfi_def_cfa_register 7
 1681 0b2a 7860     		str	r0, [r7, #4]
 1682 0b2c 0B46     		mov	r3, r1
 1683 0b2e FB70     		strb	r3, [r7, #3]
 819:../STM32F2xx_StdPeriph_Driver/src/stm32f2xx_can.c ****   uint8_t message_pending=0;
 1684              		.loc 1 819 0
 1685 0b30 4FF00003 		mov	r3, #0
 1686 0b34 FB73     		strb	r3, [r7, #15]
 820:../STM32F2xx_StdPeriph_Driver/src/stm32f2xx_can.c ****   /* Check the parameters */
 821:../STM32F2xx_StdPeriph_Driver/src/stm32f2xx_can.c ****   assert_param(IS_CAN_ALL_PERIPH(CANx));
 822:../STM32F2xx_StdPeriph_Driver/src/stm32f2xx_can.c ****   assert_param(IS_CAN_FIFO(FIFONumber));
 823:../STM32F2xx_StdPeriph_Driver/src/stm32f2xx_can.c ****   if (FIFONumber == CAN_FIFO0)
 1687              		.loc 1 823 0
 1688 0b36 FB78     		ldrb	r3, [r7, #3]	@ zero_extendqisi2
 1689 0b38 002B     		cmp	r3, #0
 1690 0b3a 06D1     		bne	.L83
 824:../STM32F2xx_StdPeriph_Driver/src/stm32f2xx_can.c ****   {
 825:../STM32F2xx_StdPeriph_Driver/src/stm32f2xx_can.c ****     message_pending = (uint8_t)(CANx->RF0R&(uint32_t)0x03);
 1691              		.loc 1 825 0
 1692 0b3c 7B68     		ldr	r3, [r7, #4]
 1693 0b3e DB68     		ldr	r3, [r3, #12]
 1694 0b40 DBB2     		uxtb	r3, r3
 1695 0b42 03F00303 		and	r3, r3, #3
 1696 0b46 FB73     		strb	r3, [r7, #15]
 1697 0b48 0CE0     		b	.L84
 1698              	.L83:
 826:../STM32F2xx_StdPeriph_Driver/src/stm32f2xx_can.c ****   }
 827:../STM32F2xx_StdPeriph_Driver/src/stm32f2xx_can.c ****   else if (FIFONumber == CAN_FIFO1)
 1699              		.loc 1 827 0
 1700 0b4a FB78     		ldrb	r3, [r7, #3]	@ zero_extendqisi2
 1701 0b4c 012B     		cmp	r3, #1
 1702 0b4e 06D1     		bne	.L85
 828:../STM32F2xx_StdPeriph_Driver/src/stm32f2xx_can.c ****   {
 829:../STM32F2xx_StdPeriph_Driver/src/stm32f2xx_can.c ****     message_pending = (uint8_t)(CANx->RF1R&(uint32_t)0x03);
 1703              		.loc 1 829 0
 1704 0b50 7B68     		ldr	r3, [r7, #4]
 1705 0b52 1B69     		ldr	r3, [r3, #16]
 1706 0b54 DBB2     		uxtb	r3, r3
 1707 0b56 03F00303 		and	r3, r3, #3
 1708 0b5a FB73     		strb	r3, [r7, #15]
 1709 0b5c 02E0     		b	.L84
 1710              	.L85:
 830:../STM32F2xx_StdPeriph_Driver/src/stm32f2xx_can.c ****   }
 831:../STM32F2xx_StdPeriph_Driver/src/stm32f2xx_can.c ****   else
 832:../STM32F2xx_StdPeriph_Driver/src/stm32f2xx_can.c ****   {
 833:../STM32F2xx_StdPeriph_Driver/src/stm32f2xx_can.c ****     message_pending = 0;
 1711              		.loc 1 833 0
 1712 0b5e 4FF00003 		mov	r3, #0
 1713 0b62 FB73     		strb	r3, [r7, #15]
 1714              	.L84:
 834:../STM32F2xx_StdPeriph_Driver/src/stm32f2xx_can.c ****   }
 835:../STM32F2xx_StdPeriph_Driver/src/stm32f2xx_can.c ****   return message_pending;
 1715              		.loc 1 835 0
 1716 0b64 FB7B     		ldrb	r3, [r7, #15]	@ zero_extendqisi2
 836:../STM32F2xx_StdPeriph_Driver/src/stm32f2xx_can.c **** }
 1717              		.loc 1 836 0
 1718 0b66 1846     		mov	r0, r3
 1719 0b68 07F11407 		add	r7, r7, #20
 1720 0b6c BD46     		mov	sp, r7
 1721 0b6e 80BC     		pop	{r7}
 1722 0b70 7047     		bx	lr
 1723              		.cfi_endproc
 1724              	.LFE41:
 1726 0b72 00BF     		.align	2
 1727              		.global	CAN_OperatingModeRequest
 1728              		.thumb
 1729              		.thumb_func
 1731              	CAN_OperatingModeRequest:
 1732              	.LFB42:
 837:../STM32F2xx_StdPeriph_Driver/src/stm32f2xx_can.c **** /**
 838:../STM32F2xx_StdPeriph_Driver/src/stm32f2xx_can.c ****   * @}
 839:../STM32F2xx_StdPeriph_Driver/src/stm32f2xx_can.c ****   */
 840:../STM32F2xx_StdPeriph_Driver/src/stm32f2xx_can.c **** 
 841:../STM32F2xx_StdPeriph_Driver/src/stm32f2xx_can.c **** 
 842:../STM32F2xx_StdPeriph_Driver/src/stm32f2xx_can.c **** /** @defgroup CAN_Group4 CAN Operation modes functions
 843:../STM32F2xx_StdPeriph_Driver/src/stm32f2xx_can.c ****  *  @brief    CAN Operation modes functions 
 844:../STM32F2xx_StdPeriph_Driver/src/stm32f2xx_can.c ****  *
 845:../STM32F2xx_StdPeriph_Driver/src/stm32f2xx_can.c **** @verbatim    
 846:../STM32F2xx_StdPeriph_Driver/src/stm32f2xx_can.c ****  ===============================================================================
 847:../STM32F2xx_StdPeriph_Driver/src/stm32f2xx_can.c ****                       CAN Operation modes functions
 848:../STM32F2xx_StdPeriph_Driver/src/stm32f2xx_can.c ****  ===============================================================================  
 849:../STM32F2xx_StdPeriph_Driver/src/stm32f2xx_can.c ****   This section provides functions allowing to select the CAN Operation modes
 850:../STM32F2xx_StdPeriph_Driver/src/stm32f2xx_can.c ****   - sleep mode
 851:../STM32F2xx_StdPeriph_Driver/src/stm32f2xx_can.c ****   - normal mode 
 852:../STM32F2xx_StdPeriph_Driver/src/stm32f2xx_can.c ****   - initialization mode
 853:../STM32F2xx_StdPeriph_Driver/src/stm32f2xx_can.c ****    
 854:../STM32F2xx_StdPeriph_Driver/src/stm32f2xx_can.c **** @endverbatim
 855:../STM32F2xx_StdPeriph_Driver/src/stm32f2xx_can.c ****   * @{
 856:../STM32F2xx_StdPeriph_Driver/src/stm32f2xx_can.c ****   */
 857:../STM32F2xx_StdPeriph_Driver/src/stm32f2xx_can.c ****   
 858:../STM32F2xx_StdPeriph_Driver/src/stm32f2xx_can.c ****   
 859:../STM32F2xx_StdPeriph_Driver/src/stm32f2xx_can.c **** /**
 860:../STM32F2xx_StdPeriph_Driver/src/stm32f2xx_can.c ****   * @brief  Selects the CAN Operation mode.
 861:../STM32F2xx_StdPeriph_Driver/src/stm32f2xx_can.c ****   * @param  CAN_OperatingMode: CAN Operating Mode.
 862:../STM32F2xx_StdPeriph_Driver/src/stm32f2xx_can.c ****   *         This parameter can be one of @ref CAN_OperatingMode_TypeDef enumeration.
 863:../STM32F2xx_StdPeriph_Driver/src/stm32f2xx_can.c ****   * @retval status of the requested mode which can be 
 864:../STM32F2xx_StdPeriph_Driver/src/stm32f2xx_can.c ****   *         - CAN_ModeStatus_Failed:  CAN failed entering the specific mode 
 865:../STM32F2xx_StdPeriph_Driver/src/stm32f2xx_can.c ****   *         - CAN_ModeStatus_Success: CAN Succeed entering the specific mode 
 866:../STM32F2xx_StdPeriph_Driver/src/stm32f2xx_can.c ****   */
 867:../STM32F2xx_StdPeriph_Driver/src/stm32f2xx_can.c **** uint8_t CAN_OperatingModeRequest(CAN_TypeDef* CANx, uint8_t CAN_OperatingMode)
 868:../STM32F2xx_StdPeriph_Driver/src/stm32f2xx_can.c **** {
 1733              		.loc 1 868 0
 1734              		.cfi_startproc
 1735              		@ args = 0, pretend = 0, frame = 16
 1736              		@ frame_needed = 1, uses_anonymous_args = 0
 1737              		@ link register save eliminated.
 1738 0b74 80B4     		push	{r7}
 1739              	.LCFI39:
 1740              		.cfi_def_cfa_offset 4
 1741              		.cfi_offset 7, -4
 1742 0b76 85B0     		sub	sp, sp, #20
 1743              	.LCFI40:
 1744              		.cfi_def_cfa_offset 24
 1745 0b78 00AF     		add	r7, sp, #0
 1746              	.LCFI41:
 1747              		.cfi_def_cfa_register 7
 1748 0b7a 7860     		str	r0, [r7, #4]
 1749 0b7c 0B46     		mov	r3, r1
 1750 0b7e FB70     		strb	r3, [r7, #3]
 869:../STM32F2xx_StdPeriph_Driver/src/stm32f2xx_can.c ****   uint8_t status = CAN_ModeStatus_Failed;
 1751              		.loc 1 869 0
 1752 0b80 4FF00003 		mov	r3, #0
 1753 0b84 FB73     		strb	r3, [r7, #15]
 870:../STM32F2xx_StdPeriph_Driver/src/stm32f2xx_can.c ****   
 871:../STM32F2xx_StdPeriph_Driver/src/stm32f2xx_can.c ****   /* Timeout for INAK or also for SLAK bits*/
 872:../STM32F2xx_StdPeriph_Driver/src/stm32f2xx_can.c ****   uint32_t timeout = INAK_TIMEOUT; 
 1754              		.loc 1 872 0
 1755 0b86 4FF6FF73 		movw	r3, #65535
 1756 0b8a BB60     		str	r3, [r7, #8]
 873:../STM32F2xx_StdPeriph_Driver/src/stm32f2xx_can.c **** 
 874:../STM32F2xx_StdPeriph_Driver/src/stm32f2xx_can.c ****   /* Check the parameters */
 875:../STM32F2xx_StdPeriph_Driver/src/stm32f2xx_can.c ****   assert_param(IS_CAN_ALL_PERIPH(CANx));
 876:../STM32F2xx_StdPeriph_Driver/src/stm32f2xx_can.c ****   assert_param(IS_CAN_OPERATING_MODE(CAN_OperatingMode));
 877:../STM32F2xx_StdPeriph_Driver/src/stm32f2xx_can.c **** 
 878:../STM32F2xx_StdPeriph_Driver/src/stm32f2xx_can.c ****   if (CAN_OperatingMode == CAN_OperatingMode_Initialization)
 1757              		.loc 1 878 0
 1758 0b8c FB78     		ldrb	r3, [r7, #3]	@ zero_extendqisi2
 1759 0b8e 002B     		cmp	r3, #0
 1760 0b90 23D1     		bne	.L87
 879:../STM32F2xx_StdPeriph_Driver/src/stm32f2xx_can.c ****   {
 880:../STM32F2xx_StdPeriph_Driver/src/stm32f2xx_can.c ****     /* Request initialisation */
 881:../STM32F2xx_StdPeriph_Driver/src/stm32f2xx_can.c ****     CANx->MCR = (uint32_t)((CANx->MCR & (uint32_t)(~(uint32_t)CAN_MCR_SLEEP)) | CAN_MCR_INRQ);
 1761              		.loc 1 881 0
 1762 0b92 7B68     		ldr	r3, [r7, #4]
 1763 0b94 1B68     		ldr	r3, [r3, #0]
 1764 0b96 23F00303 		bic	r3, r3, #3
 1765 0b9a 43F00102 		orr	r2, r3, #1
 1766 0b9e 7B68     		ldr	r3, [r7, #4]
 1767 0ba0 1A60     		str	r2, [r3, #0]
 882:../STM32F2xx_StdPeriph_Driver/src/stm32f2xx_can.c **** 
 883:../STM32F2xx_StdPeriph_Driver/src/stm32f2xx_can.c ****     /* Wait the acknowledge */
 884:../STM32F2xx_StdPeriph_Driver/src/stm32f2xx_can.c ****     while (((CANx->MSR & CAN_MODE_MASK) != CAN_MSR_INAK) && (timeout != 0))
 1768              		.loc 1 884 0
 1769 0ba2 03E0     		b	.L88
 1770              	.L90:
 885:../STM32F2xx_StdPeriph_Driver/src/stm32f2xx_can.c ****     {
 886:../STM32F2xx_StdPeriph_Driver/src/stm32f2xx_can.c ****       timeout--;
 1771              		.loc 1 886 0
 1772 0ba4 BB68     		ldr	r3, [r7, #8]
 1773 0ba6 03F1FF33 		add	r3, r3, #-1
 1774 0baa BB60     		str	r3, [r7, #8]
 1775              	.L88:
 884:../STM32F2xx_StdPeriph_Driver/src/stm32f2xx_can.c ****     while (((CANx->MSR & CAN_MODE_MASK) != CAN_MSR_INAK) && (timeout != 0))
 1776              		.loc 1 884 0 discriminator 1
 1777 0bac 7B68     		ldr	r3, [r7, #4]
 1778 0bae 5B68     		ldr	r3, [r3, #4]
 1779 0bb0 03F00303 		and	r3, r3, #3
 1780 0bb4 012B     		cmp	r3, #1
 1781 0bb6 02D0     		beq	.L89
 884:../STM32F2xx_StdPeriph_Driver/src/stm32f2xx_can.c ****     while (((CANx->MSR & CAN_MODE_MASK) != CAN_MSR_INAK) && (timeout != 0))
 1782              		.loc 1 884 0 is_stmt 0 discriminator 2
 1783 0bb8 BB68     		ldr	r3, [r7, #8]
 1784 0bba 002B     		cmp	r3, #0
 1785 0bbc F2D1     		bne	.L90
 1786              	.L89:
 887:../STM32F2xx_StdPeriph_Driver/src/stm32f2xx_can.c ****     }
 888:../STM32F2xx_StdPeriph_Driver/src/stm32f2xx_can.c ****     if ((CANx->MSR & CAN_MODE_MASK) != CAN_MSR_INAK)
 1787              		.loc 1 888 0 is_stmt 1
 1788 0bbe 7B68     		ldr	r3, [r7, #4]
 1789 0bc0 5B68     		ldr	r3, [r3, #4]
 1790 0bc2 03F00303 		and	r3, r3, #3
 1791 0bc6 012B     		cmp	r3, #1
 1792 0bc8 03D0     		beq	.L91
 889:../STM32F2xx_StdPeriph_Driver/src/stm32f2xx_can.c ****     {
 890:../STM32F2xx_StdPeriph_Driver/src/stm32f2xx_can.c ****       status = CAN_ModeStatus_Failed;
 1793              		.loc 1 890 0
 1794 0bca 4FF00003 		mov	r3, #0
 1795 0bce FB73     		strb	r3, [r7, #15]
 1796 0bd0 52E0     		b	.L92
 1797              	.L91:
 891:../STM32F2xx_StdPeriph_Driver/src/stm32f2xx_can.c ****     }
 892:../STM32F2xx_StdPeriph_Driver/src/stm32f2xx_can.c ****     else
 893:../STM32F2xx_StdPeriph_Driver/src/stm32f2xx_can.c ****     {
 894:../STM32F2xx_StdPeriph_Driver/src/stm32f2xx_can.c ****       status = CAN_ModeStatus_Success;
 1798              		.loc 1 894 0
 1799 0bd2 4FF00103 		mov	r3, #1
 1800 0bd6 FB73     		strb	r3, [r7, #15]
 1801 0bd8 4EE0     		b	.L92
 1802              	.L87:
 895:../STM32F2xx_StdPeriph_Driver/src/stm32f2xx_can.c ****     }
 896:../STM32F2xx_StdPeriph_Driver/src/stm32f2xx_can.c ****   }
 897:../STM32F2xx_StdPeriph_Driver/src/stm32f2xx_can.c ****   else  if (CAN_OperatingMode == CAN_OperatingMode_Normal)
 1803              		.loc 1 897 0
 1804 0bda FB78     		ldrb	r3, [r7, #3]	@ zero_extendqisi2
 1805 0bdc 012B     		cmp	r3, #1
 1806 0bde 21D1     		bne	.L93
 898:../STM32F2xx_StdPeriph_Driver/src/stm32f2xx_can.c ****   {
 899:../STM32F2xx_StdPeriph_Driver/src/stm32f2xx_can.c ****     /* Request leave initialisation and sleep mode  and enter Normal mode */
 900:../STM32F2xx_StdPeriph_Driver/src/stm32f2xx_can.c ****     CANx->MCR &= (uint32_t)(~(CAN_MCR_SLEEP|CAN_MCR_INRQ));
 1807              		.loc 1 900 0
 1808 0be0 7B68     		ldr	r3, [r7, #4]
 1809 0be2 1B68     		ldr	r3, [r3, #0]
 1810 0be4 23F00302 		bic	r2, r3, #3
 1811 0be8 7B68     		ldr	r3, [r7, #4]
 1812 0bea 1A60     		str	r2, [r3, #0]
 901:../STM32F2xx_StdPeriph_Driver/src/stm32f2xx_can.c **** 
 902:../STM32F2xx_StdPeriph_Driver/src/stm32f2xx_can.c ****     /* Wait the acknowledge */
 903:../STM32F2xx_StdPeriph_Driver/src/stm32f2xx_can.c ****     while (((CANx->MSR & CAN_MODE_MASK) != 0) && (timeout!=0))
 1813              		.loc 1 903 0
 1814 0bec 03E0     		b	.L94
 1815              	.L96:
 904:../STM32F2xx_StdPeriph_Driver/src/stm32f2xx_can.c ****     {
 905:../STM32F2xx_StdPeriph_Driver/src/stm32f2xx_can.c ****       timeout--;
 1816              		.loc 1 905 0
 1817 0bee BB68     		ldr	r3, [r7, #8]
 1818 0bf0 03F1FF33 		add	r3, r3, #-1
 1819 0bf4 BB60     		str	r3, [r7, #8]
 1820              	.L94:
 903:../STM32F2xx_StdPeriph_Driver/src/stm32f2xx_can.c ****     while (((CANx->MSR & CAN_MODE_MASK) != 0) && (timeout!=0))
 1821              		.loc 1 903 0 discriminator 1
 1822 0bf6 7B68     		ldr	r3, [r7, #4]
 1823 0bf8 5B68     		ldr	r3, [r3, #4]
 1824 0bfa 03F00303 		and	r3, r3, #3
 1825 0bfe 002B     		cmp	r3, #0
 1826 0c00 02D0     		beq	.L95
 903:../STM32F2xx_StdPeriph_Driver/src/stm32f2xx_can.c ****     while (((CANx->MSR & CAN_MODE_MASK) != 0) && (timeout!=0))
 1827              		.loc 1 903 0 is_stmt 0 discriminator 2
 1828 0c02 BB68     		ldr	r3, [r7, #8]
 1829 0c04 002B     		cmp	r3, #0
 1830 0c06 F2D1     		bne	.L96
 1831              	.L95:
 906:../STM32F2xx_StdPeriph_Driver/src/stm32f2xx_can.c ****     }
 907:../STM32F2xx_StdPeriph_Driver/src/stm32f2xx_can.c ****     if ((CANx->MSR & CAN_MODE_MASK) != 0)
 1832              		.loc 1 907 0 is_stmt 1
 1833 0c08 7B68     		ldr	r3, [r7, #4]
 1834 0c0a 5B68     		ldr	r3, [r3, #4]
 1835 0c0c 03F00303 		and	r3, r3, #3
 1836 0c10 002B     		cmp	r3, #0
 1837 0c12 03D0     		beq	.L97
 908:../STM32F2xx_StdPeriph_Driver/src/stm32f2xx_can.c ****     {
 909:../STM32F2xx_StdPeriph_Driver/src/stm32f2xx_can.c ****       status = CAN_ModeStatus_Failed;
 1838              		.loc 1 909 0
 1839 0c14 4FF00003 		mov	r3, #0
 1840 0c18 FB73     		strb	r3, [r7, #15]
 1841 0c1a 2DE0     		b	.L92
 1842              	.L97:
 910:../STM32F2xx_StdPeriph_Driver/src/stm32f2xx_can.c ****     }
 911:../STM32F2xx_StdPeriph_Driver/src/stm32f2xx_can.c ****     else
 912:../STM32F2xx_StdPeriph_Driver/src/stm32f2xx_can.c ****     {
 913:../STM32F2xx_StdPeriph_Driver/src/stm32f2xx_can.c ****       status = CAN_ModeStatus_Success;
 1843              		.loc 1 913 0
 1844 0c1c 4FF00103 		mov	r3, #1
 1845 0c20 FB73     		strb	r3, [r7, #15]
 1846 0c22 29E0     		b	.L92
 1847              	.L93:
 914:../STM32F2xx_StdPeriph_Driver/src/stm32f2xx_can.c ****     }
 915:../STM32F2xx_StdPeriph_Driver/src/stm32f2xx_can.c ****   }
 916:../STM32F2xx_StdPeriph_Driver/src/stm32f2xx_can.c ****   else  if (CAN_OperatingMode == CAN_OperatingMode_Sleep)
 1848              		.loc 1 916 0
 1849 0c24 FB78     		ldrb	r3, [r7, #3]	@ zero_extendqisi2
 1850 0c26 022B     		cmp	r3, #2
 1851 0c28 23D1     		bne	.L98
 917:../STM32F2xx_StdPeriph_Driver/src/stm32f2xx_can.c ****   {
 918:../STM32F2xx_StdPeriph_Driver/src/stm32f2xx_can.c ****     /* Request Sleep mode */
 919:../STM32F2xx_StdPeriph_Driver/src/stm32f2xx_can.c ****     CANx->MCR = (uint32_t)((CANx->MCR & (uint32_t)(~(uint32_t)CAN_MCR_INRQ)) | CAN_MCR_SLEEP);
 1852              		.loc 1 919 0
 1853 0c2a 7B68     		ldr	r3, [r7, #4]
 1854 0c2c 1B68     		ldr	r3, [r3, #0]
 1855 0c2e 23F00303 		bic	r3, r3, #3
 1856 0c32 43F00202 		orr	r2, r3, #2
 1857 0c36 7B68     		ldr	r3, [r7, #4]
 1858 0c38 1A60     		str	r2, [r3, #0]
 920:../STM32F2xx_StdPeriph_Driver/src/stm32f2xx_can.c **** 
 921:../STM32F2xx_StdPeriph_Driver/src/stm32f2xx_can.c ****     /* Wait the acknowledge */
 922:../STM32F2xx_StdPeriph_Driver/src/stm32f2xx_can.c ****     while (((CANx->MSR & CAN_MODE_MASK) != CAN_MSR_SLAK) && (timeout!=0))
 1859              		.loc 1 922 0
 1860 0c3a 03E0     		b	.L99
 1861              	.L101:
 923:../STM32F2xx_StdPeriph_Driver/src/stm32f2xx_can.c ****     {
 924:../STM32F2xx_StdPeriph_Driver/src/stm32f2xx_can.c ****       timeout--;
 1862              		.loc 1 924 0
 1863 0c3c BB68     		ldr	r3, [r7, #8]
 1864 0c3e 03F1FF33 		add	r3, r3, #-1
 1865 0c42 BB60     		str	r3, [r7, #8]
 1866              	.L99:
 922:../STM32F2xx_StdPeriph_Driver/src/stm32f2xx_can.c ****     while (((CANx->MSR & CAN_MODE_MASK) != CAN_MSR_SLAK) && (timeout!=0))
 1867              		.loc 1 922 0 discriminator 1
 1868 0c44 7B68     		ldr	r3, [r7, #4]
 1869 0c46 5B68     		ldr	r3, [r3, #4]
 1870 0c48 03F00303 		and	r3, r3, #3
 1871 0c4c 022B     		cmp	r3, #2
 1872 0c4e 02D0     		beq	.L100
 922:../STM32F2xx_StdPeriph_Driver/src/stm32f2xx_can.c ****     while (((CANx->MSR & CAN_MODE_MASK) != CAN_MSR_SLAK) && (timeout!=0))
 1873              		.loc 1 922 0 is_stmt 0 discriminator 2
 1874 0c50 BB68     		ldr	r3, [r7, #8]
 1875 0c52 002B     		cmp	r3, #0
 1876 0c54 F2D1     		bne	.L101
 1877              	.L100:
 925:../STM32F2xx_StdPeriph_Driver/src/stm32f2xx_can.c ****     }
 926:../STM32F2xx_StdPeriph_Driver/src/stm32f2xx_can.c ****     if ((CANx->MSR & CAN_MODE_MASK) != CAN_MSR_SLAK)
 1878              		.loc 1 926 0 is_stmt 1
 1879 0c56 7B68     		ldr	r3, [r7, #4]
 1880 0c58 5B68     		ldr	r3, [r3, #4]
 1881 0c5a 03F00303 		and	r3, r3, #3
 1882 0c5e 022B     		cmp	r3, #2
 1883 0c60 03D0     		beq	.L102
 927:../STM32F2xx_StdPeriph_Driver/src/stm32f2xx_can.c ****     {
 928:../STM32F2xx_StdPeriph_Driver/src/stm32f2xx_can.c ****       status = CAN_ModeStatus_Failed;
 1884              		.loc 1 928 0
 1885 0c62 4FF00003 		mov	r3, #0
 1886 0c66 FB73     		strb	r3, [r7, #15]
 1887 0c68 06E0     		b	.L92
 1888              	.L102:
 929:../STM32F2xx_StdPeriph_Driver/src/stm32f2xx_can.c ****     }
 930:../STM32F2xx_StdPeriph_Driver/src/stm32f2xx_can.c ****     else
 931:../STM32F2xx_StdPeriph_Driver/src/stm32f2xx_can.c ****     {
 932:../STM32F2xx_StdPeriph_Driver/src/stm32f2xx_can.c ****       status = CAN_ModeStatus_Success;
 1889              		.loc 1 932 0
 1890 0c6a 4FF00103 		mov	r3, #1
 1891 0c6e FB73     		strb	r3, [r7, #15]
 1892 0c70 02E0     		b	.L92
 1893              	.L98:
 933:../STM32F2xx_StdPeriph_Driver/src/stm32f2xx_can.c ****     }
 934:../STM32F2xx_StdPeriph_Driver/src/stm32f2xx_can.c ****   }
 935:../STM32F2xx_StdPeriph_Driver/src/stm32f2xx_can.c ****   else
 936:../STM32F2xx_StdPeriph_Driver/src/stm32f2xx_can.c ****   {
 937:../STM32F2xx_StdPeriph_Driver/src/stm32f2xx_can.c ****     status = CAN_ModeStatus_Failed;
 1894              		.loc 1 937 0
 1895 0c72 4FF00003 		mov	r3, #0
 1896 0c76 FB73     		strb	r3, [r7, #15]
 1897              	.L92:
 938:../STM32F2xx_StdPeriph_Driver/src/stm32f2xx_can.c ****   }
 939:../STM32F2xx_StdPeriph_Driver/src/stm32f2xx_can.c **** 
 940:../STM32F2xx_StdPeriph_Driver/src/stm32f2xx_can.c ****   return  (uint8_t) status;
 1898              		.loc 1 940 0
 1899 0c78 FB7B     		ldrb	r3, [r7, #15]	@ zero_extendqisi2
 941:../STM32F2xx_StdPeriph_Driver/src/stm32f2xx_can.c **** }
 1900              		.loc 1 941 0
 1901 0c7a 1846     		mov	r0, r3
 1902 0c7c 07F11407 		add	r7, r7, #20
 1903 0c80 BD46     		mov	sp, r7
 1904 0c82 80BC     		pop	{r7}
 1905 0c84 7047     		bx	lr
 1906              		.cfi_endproc
 1907              	.LFE42:
 1909 0c86 00BF     		.align	2
 1910              		.global	CAN_Sleep
 1911              		.thumb
 1912              		.thumb_func
 1914              	CAN_Sleep:
 1915              	.LFB43:
 942:../STM32F2xx_StdPeriph_Driver/src/stm32f2xx_can.c **** 
 943:../STM32F2xx_StdPeriph_Driver/src/stm32f2xx_can.c **** /**
 944:../STM32F2xx_StdPeriph_Driver/src/stm32f2xx_can.c ****   * @brief  Enters the Sleep (low power) mode.
 945:../STM32F2xx_StdPeriph_Driver/src/stm32f2xx_can.c ****   * @param  CANx: where x can be 1 or 2 to select the CAN peripheral.
 946:../STM32F2xx_StdPeriph_Driver/src/stm32f2xx_can.c ****   * @retval CAN_Sleep_Ok if sleep entered, CAN_Sleep_Failed otherwise.
 947:../STM32F2xx_StdPeriph_Driver/src/stm32f2xx_can.c ****   */
 948:../STM32F2xx_StdPeriph_Driver/src/stm32f2xx_can.c **** uint8_t CAN_Sleep(CAN_TypeDef* CANx)
 949:../STM32F2xx_StdPeriph_Driver/src/stm32f2xx_can.c **** {
 1916              		.loc 1 949 0
 1917              		.cfi_startproc
 1918              		@ args = 0, pretend = 0, frame = 16
 1919              		@ frame_needed = 1, uses_anonymous_args = 0
 1920              		@ link register save eliminated.
 1921 0c88 80B4     		push	{r7}
 1922              	.LCFI42:
 1923              		.cfi_def_cfa_offset 4
 1924              		.cfi_offset 7, -4
 1925 0c8a 85B0     		sub	sp, sp, #20
 1926              	.LCFI43:
 1927              		.cfi_def_cfa_offset 24
 1928 0c8c 00AF     		add	r7, sp, #0
 1929              	.LCFI44:
 1930              		.cfi_def_cfa_register 7
 1931 0c8e 7860     		str	r0, [r7, #4]
 950:../STM32F2xx_StdPeriph_Driver/src/stm32f2xx_can.c ****   uint8_t sleepstatus = CAN_Sleep_Failed;
 1932              		.loc 1 950 0
 1933 0c90 4FF00003 		mov	r3, #0
 1934 0c94 FB73     		strb	r3, [r7, #15]
 951:../STM32F2xx_StdPeriph_Driver/src/stm32f2xx_can.c ****   
 952:../STM32F2xx_StdPeriph_Driver/src/stm32f2xx_can.c ****   /* Check the parameters */
 953:../STM32F2xx_StdPeriph_Driver/src/stm32f2xx_can.c ****   assert_param(IS_CAN_ALL_PERIPH(CANx));
 954:../STM32F2xx_StdPeriph_Driver/src/stm32f2xx_can.c ****     
 955:../STM32F2xx_StdPeriph_Driver/src/stm32f2xx_can.c ****   /* Request Sleep mode */
 956:../STM32F2xx_StdPeriph_Driver/src/stm32f2xx_can.c ****    CANx->MCR = (((CANx->MCR) & (uint32_t)(~(uint32_t)CAN_MCR_INRQ)) | CAN_MCR_SLEEP);
 1935              		.loc 1 956 0
 1936 0c96 7B68     		ldr	r3, [r7, #4]
 1937 0c98 1B68     		ldr	r3, [r3, #0]
 1938 0c9a 23F00303 		bic	r3, r3, #3
 1939 0c9e 43F00202 		orr	r2, r3, #2
 1940 0ca2 7B68     		ldr	r3, [r7, #4]
 1941 0ca4 1A60     		str	r2, [r3, #0]
 957:../STM32F2xx_StdPeriph_Driver/src/stm32f2xx_can.c ****    
 958:../STM32F2xx_StdPeriph_Driver/src/stm32f2xx_can.c ****   /* Sleep mode status */
 959:../STM32F2xx_StdPeriph_Driver/src/stm32f2xx_can.c ****   if ((CANx->MSR & (CAN_MSR_SLAK|CAN_MSR_INAK)) == CAN_MSR_SLAK)
 1942              		.loc 1 959 0
 1943 0ca6 7B68     		ldr	r3, [r7, #4]
 1944 0ca8 5B68     		ldr	r3, [r3, #4]
 1945 0caa 03F00303 		and	r3, r3, #3
 1946 0cae 022B     		cmp	r3, #2
 1947 0cb0 02D1     		bne	.L104
 960:../STM32F2xx_StdPeriph_Driver/src/stm32f2xx_can.c ****   {
 961:../STM32F2xx_StdPeriph_Driver/src/stm32f2xx_can.c ****     /* Sleep mode not entered */
 962:../STM32F2xx_StdPeriph_Driver/src/stm32f2xx_can.c ****     sleepstatus =  CAN_Sleep_Ok;
 1948              		.loc 1 962 0
 1949 0cb2 4FF00103 		mov	r3, #1
 1950 0cb6 FB73     		strb	r3, [r7, #15]
 1951              	.L104:
 963:../STM32F2xx_StdPeriph_Driver/src/stm32f2xx_can.c ****   }
 964:../STM32F2xx_StdPeriph_Driver/src/stm32f2xx_can.c ****   /* return sleep mode status */
 965:../STM32F2xx_StdPeriph_Driver/src/stm32f2xx_can.c ****    return (uint8_t)sleepstatus;
 1952              		.loc 1 965 0
 1953 0cb8 FB7B     		ldrb	r3, [r7, #15]	@ zero_extendqisi2
 966:../STM32F2xx_StdPeriph_Driver/src/stm32f2xx_can.c **** }
 1954              		.loc 1 966 0
 1955 0cba 1846     		mov	r0, r3
 1956 0cbc 07F11407 		add	r7, r7, #20
 1957 0cc0 BD46     		mov	sp, r7
 1958 0cc2 80BC     		pop	{r7}
 1959 0cc4 7047     		bx	lr
 1960              		.cfi_endproc
 1961              	.LFE43:
 1963 0cc6 00BF     		.align	2
 1964              		.global	CAN_WakeUp
 1965              		.thumb
 1966              		.thumb_func
 1968              	CAN_WakeUp:
 1969              	.LFB44:
 967:../STM32F2xx_StdPeriph_Driver/src/stm32f2xx_can.c **** 
 968:../STM32F2xx_StdPeriph_Driver/src/stm32f2xx_can.c **** /**
 969:../STM32F2xx_StdPeriph_Driver/src/stm32f2xx_can.c ****   * @brief  Wakes up the CAN peripheral from sleep mode .
 970:../STM32F2xx_StdPeriph_Driver/src/stm32f2xx_can.c ****   * @param  CANx: where x can be 1 or 2 to select the CAN peripheral.
 971:../STM32F2xx_StdPeriph_Driver/src/stm32f2xx_can.c ****   * @retval CAN_WakeUp_Ok if sleep mode left, CAN_WakeUp_Failed otherwise.
 972:../STM32F2xx_StdPeriph_Driver/src/stm32f2xx_can.c ****   */
 973:../STM32F2xx_StdPeriph_Driver/src/stm32f2xx_can.c **** uint8_t CAN_WakeUp(CAN_TypeDef* CANx)
 974:../STM32F2xx_StdPeriph_Driver/src/stm32f2xx_can.c **** {
 1970              		.loc 1 974 0
 1971              		.cfi_startproc
 1972              		@ args = 0, pretend = 0, frame = 16
 1973              		@ frame_needed = 1, uses_anonymous_args = 0
 1974              		@ link register save eliminated.
 1975 0cc8 80B4     		push	{r7}
 1976              	.LCFI45:
 1977              		.cfi_def_cfa_offset 4
 1978              		.cfi_offset 7, -4
 1979 0cca 85B0     		sub	sp, sp, #20
 1980              	.LCFI46:
 1981              		.cfi_def_cfa_offset 24
 1982 0ccc 00AF     		add	r7, sp, #0
 1983              	.LCFI47:
 1984              		.cfi_def_cfa_register 7
 1985 0cce 7860     		str	r0, [r7, #4]
 975:../STM32F2xx_StdPeriph_Driver/src/stm32f2xx_can.c ****   uint32_t wait_slak = SLAK_TIMEOUT;
 1986              		.loc 1 975 0
 1987 0cd0 4FF6FF73 		movw	r3, #65535
 1988 0cd4 FB60     		str	r3, [r7, #12]
 976:../STM32F2xx_StdPeriph_Driver/src/stm32f2xx_can.c ****   uint8_t wakeupstatus = CAN_WakeUp_Failed;
 1989              		.loc 1 976 0
 1990 0cd6 4FF00003 		mov	r3, #0
 1991 0cda FB72     		strb	r3, [r7, #11]
 977:../STM32F2xx_StdPeriph_Driver/src/stm32f2xx_can.c ****   
 978:../STM32F2xx_StdPeriph_Driver/src/stm32f2xx_can.c ****   /* Check the parameters */
 979:../STM32F2xx_StdPeriph_Driver/src/stm32f2xx_can.c ****   assert_param(IS_CAN_ALL_PERIPH(CANx));
 980:../STM32F2xx_StdPeriph_Driver/src/stm32f2xx_can.c ****     
 981:../STM32F2xx_StdPeriph_Driver/src/stm32f2xx_can.c ****   /* Wake up request */
 982:../STM32F2xx_StdPeriph_Driver/src/stm32f2xx_can.c ****   CANx->MCR &= ~(uint32_t)CAN_MCR_SLEEP;
 1992              		.loc 1 982 0
 1993 0cdc 7B68     		ldr	r3, [r7, #4]
 1994 0cde 1B68     		ldr	r3, [r3, #0]
 1995 0ce0 23F00202 		bic	r2, r3, #2
 1996 0ce4 7B68     		ldr	r3, [r7, #4]
 1997 0ce6 1A60     		str	r2, [r3, #0]
 983:../STM32F2xx_StdPeriph_Driver/src/stm32f2xx_can.c ****     
 984:../STM32F2xx_StdPeriph_Driver/src/stm32f2xx_can.c ****   /* Sleep mode status */
 985:../STM32F2xx_StdPeriph_Driver/src/stm32f2xx_can.c ****   while(((CANx->MSR & CAN_MSR_SLAK) == CAN_MSR_SLAK)&&(wait_slak!=0x00))
 1998              		.loc 1 985 0
 1999 0ce8 03E0     		b	.L106
 2000              	.L108:
 986:../STM32F2xx_StdPeriph_Driver/src/stm32f2xx_can.c ****   {
 987:../STM32F2xx_StdPeriph_Driver/src/stm32f2xx_can.c ****    wait_slak--;
 2001              		.loc 1 987 0
 2002 0cea FB68     		ldr	r3, [r7, #12]
 2003 0cec 03F1FF33 		add	r3, r3, #-1
 2004 0cf0 FB60     		str	r3, [r7, #12]
 2005              	.L106:
 985:../STM32F2xx_StdPeriph_Driver/src/stm32f2xx_can.c ****   while(((CANx->MSR & CAN_MSR_SLAK) == CAN_MSR_SLAK)&&(wait_slak!=0x00))
 2006              		.loc 1 985 0 discriminator 1
 2007 0cf2 7B68     		ldr	r3, [r7, #4]
 2008 0cf4 5B68     		ldr	r3, [r3, #4]
 2009 0cf6 03F00203 		and	r3, r3, #2
 2010 0cfa 002B     		cmp	r3, #0
 2011 0cfc 02D0     		beq	.L107
 985:../STM32F2xx_StdPeriph_Driver/src/stm32f2xx_can.c ****   while(((CANx->MSR & CAN_MSR_SLAK) == CAN_MSR_SLAK)&&(wait_slak!=0x00))
 2012              		.loc 1 985 0 is_stmt 0 discriminator 2
 2013 0cfe FB68     		ldr	r3, [r7, #12]
 2014 0d00 002B     		cmp	r3, #0
 2015 0d02 F2D1     		bne	.L108
 2016              	.L107:
 988:../STM32F2xx_StdPeriph_Driver/src/stm32f2xx_can.c ****   }
 989:../STM32F2xx_StdPeriph_Driver/src/stm32f2xx_can.c ****   if((CANx->MSR & CAN_MSR_SLAK) != CAN_MSR_SLAK)
 2017              		.loc 1 989 0 is_stmt 1
 2018 0d04 7B68     		ldr	r3, [r7, #4]
 2019 0d06 5B68     		ldr	r3, [r3, #4]
 2020 0d08 03F00203 		and	r3, r3, #2
 2021 0d0c 002B     		cmp	r3, #0
 2022 0d0e 02D1     		bne	.L109
 990:../STM32F2xx_StdPeriph_Driver/src/stm32f2xx_can.c ****   {
 991:../STM32F2xx_StdPeriph_Driver/src/stm32f2xx_can.c ****    /* wake up done : Sleep mode exited */
 992:../STM32F2xx_StdPeriph_Driver/src/stm32f2xx_can.c ****     wakeupstatus = CAN_WakeUp_Ok;
 2023              		.loc 1 992 0
 2024 0d10 4FF00103 		mov	r3, #1
 2025 0d14 FB72     		strb	r3, [r7, #11]
 2026              	.L109:
 993:../STM32F2xx_StdPeriph_Driver/src/stm32f2xx_can.c ****   }
 994:../STM32F2xx_StdPeriph_Driver/src/stm32f2xx_can.c ****   /* return wakeup status */
 995:../STM32F2xx_StdPeriph_Driver/src/stm32f2xx_can.c ****   return (uint8_t)wakeupstatus;
 2027              		.loc 1 995 0
 2028 0d16 FB7A     		ldrb	r3, [r7, #11]	@ zero_extendqisi2
 996:../STM32F2xx_StdPeriph_Driver/src/stm32f2xx_can.c **** }
 2029              		.loc 1 996 0
 2030 0d18 1846     		mov	r0, r3
 2031 0d1a 07F11407 		add	r7, r7, #20
 2032 0d1e BD46     		mov	sp, r7
 2033 0d20 80BC     		pop	{r7}
 2034 0d22 7047     		bx	lr
 2035              		.cfi_endproc
 2036              	.LFE44:
 2038              		.align	2
 2039              		.global	CAN_GetLastErrorCode
 2040              		.thumb
 2041              		.thumb_func
 2043              	CAN_GetLastErrorCode:
 2044              	.LFB45:
 997:../STM32F2xx_StdPeriph_Driver/src/stm32f2xx_can.c **** /**
 998:../STM32F2xx_StdPeriph_Driver/src/stm32f2xx_can.c ****   * @}
 999:../STM32F2xx_StdPeriph_Driver/src/stm32f2xx_can.c ****   */
1000:../STM32F2xx_StdPeriph_Driver/src/stm32f2xx_can.c **** 
1001:../STM32F2xx_StdPeriph_Driver/src/stm32f2xx_can.c **** 
1002:../STM32F2xx_StdPeriph_Driver/src/stm32f2xx_can.c **** /** @defgroup CAN_Group5 CAN Bus Error management functions
1003:../STM32F2xx_StdPeriph_Driver/src/stm32f2xx_can.c ****  *  @brief    CAN Bus Error management functions 
1004:../STM32F2xx_StdPeriph_Driver/src/stm32f2xx_can.c ****  *
1005:../STM32F2xx_StdPeriph_Driver/src/stm32f2xx_can.c **** @verbatim    
1006:../STM32F2xx_StdPeriph_Driver/src/stm32f2xx_can.c ****  ===============================================================================
1007:../STM32F2xx_StdPeriph_Driver/src/stm32f2xx_can.c ****                       CAN Bus Error management functions
1008:../STM32F2xx_StdPeriph_Driver/src/stm32f2xx_can.c ****  ===============================================================================  
1009:../STM32F2xx_StdPeriph_Driver/src/stm32f2xx_can.c ****   This section provides functions allowing to 
1010:../STM32F2xx_StdPeriph_Driver/src/stm32f2xx_can.c ****    -  Return the CANx's last error code (LEC)
1011:../STM32F2xx_StdPeriph_Driver/src/stm32f2xx_can.c ****    -  Return the CANx Receive Error Counter (REC)
1012:../STM32F2xx_StdPeriph_Driver/src/stm32f2xx_can.c ****    -  Return the LSB of the 9-bit CANx Transmit Error Counter(TEC).
1013:../STM32F2xx_StdPeriph_Driver/src/stm32f2xx_can.c ****    
1014:../STM32F2xx_StdPeriph_Driver/src/stm32f2xx_can.c ****    @note If TEC is greater than 255, The CAN is in bus-off state.
1015:../STM32F2xx_StdPeriph_Driver/src/stm32f2xx_can.c ****    @note if REC or TEC are greater than 96, an Error warning flag occurs.
1016:../STM32F2xx_StdPeriph_Driver/src/stm32f2xx_can.c ****    @note if REC or TEC are greater than 127, an Error Passive Flag occurs.
1017:../STM32F2xx_StdPeriph_Driver/src/stm32f2xx_can.c ****                         
1018:../STM32F2xx_StdPeriph_Driver/src/stm32f2xx_can.c **** @endverbatim
1019:../STM32F2xx_StdPeriph_Driver/src/stm32f2xx_can.c ****   * @{
1020:../STM32F2xx_StdPeriph_Driver/src/stm32f2xx_can.c ****   */
1021:../STM32F2xx_StdPeriph_Driver/src/stm32f2xx_can.c ****   
1022:../STM32F2xx_StdPeriph_Driver/src/stm32f2xx_can.c **** /**
1023:../STM32F2xx_StdPeriph_Driver/src/stm32f2xx_can.c ****   * @brief  Returns the CANx's last error code (LEC).
1024:../STM32F2xx_StdPeriph_Driver/src/stm32f2xx_can.c ****   * @param  CANx: where x can be 1 or 2 to select the CAN peripheral.
1025:../STM32F2xx_StdPeriph_Driver/src/stm32f2xx_can.c ****   * @retval Error code: 
1026:../STM32F2xx_StdPeriph_Driver/src/stm32f2xx_can.c ****   *          - CAN_ERRORCODE_NoErr: No Error  
1027:../STM32F2xx_StdPeriph_Driver/src/stm32f2xx_can.c ****   *          - CAN_ERRORCODE_StuffErr: Stuff Error
1028:../STM32F2xx_StdPeriph_Driver/src/stm32f2xx_can.c ****   *          - CAN_ERRORCODE_FormErr: Form Error
1029:../STM32F2xx_StdPeriph_Driver/src/stm32f2xx_can.c ****   *          - CAN_ERRORCODE_ACKErr : Acknowledgment Error
1030:../STM32F2xx_StdPeriph_Driver/src/stm32f2xx_can.c ****   *          - CAN_ERRORCODE_BitRecessiveErr: Bit Recessive Error
1031:../STM32F2xx_StdPeriph_Driver/src/stm32f2xx_can.c ****   *          - CAN_ERRORCODE_BitDominantErr: Bit Dominant Error
1032:../STM32F2xx_StdPeriph_Driver/src/stm32f2xx_can.c ****   *          - CAN_ERRORCODE_CRCErr: CRC Error
1033:../STM32F2xx_StdPeriph_Driver/src/stm32f2xx_can.c ****   *          - CAN_ERRORCODE_SoftwareSetErr: Software Set Error  
1034:../STM32F2xx_StdPeriph_Driver/src/stm32f2xx_can.c ****   */
1035:../STM32F2xx_StdPeriph_Driver/src/stm32f2xx_can.c **** uint8_t CAN_GetLastErrorCode(CAN_TypeDef* CANx)
1036:../STM32F2xx_StdPeriph_Driver/src/stm32f2xx_can.c **** {
 2045              		.loc 1 1036 0
 2046              		.cfi_startproc
 2047              		@ args = 0, pretend = 0, frame = 16
 2048              		@ frame_needed = 1, uses_anonymous_args = 0
 2049              		@ link register save eliminated.
 2050 0d24 80B4     		push	{r7}
 2051              	.LCFI48:
 2052              		.cfi_def_cfa_offset 4
 2053              		.cfi_offset 7, -4
 2054 0d26 85B0     		sub	sp, sp, #20
 2055              	.LCFI49:
 2056              		.cfi_def_cfa_offset 24
 2057 0d28 00AF     		add	r7, sp, #0
 2058              	.LCFI50:
 2059              		.cfi_def_cfa_register 7
 2060 0d2a 7860     		str	r0, [r7, #4]
1037:../STM32F2xx_StdPeriph_Driver/src/stm32f2xx_can.c ****   uint8_t errorcode=0;
 2061              		.loc 1 1037 0
 2062 0d2c 4FF00003 		mov	r3, #0
 2063 0d30 FB73     		strb	r3, [r7, #15]
1038:../STM32F2xx_StdPeriph_Driver/src/stm32f2xx_can.c ****   
1039:../STM32F2xx_StdPeriph_Driver/src/stm32f2xx_can.c ****   /* Check the parameters */
1040:../STM32F2xx_StdPeriph_Driver/src/stm32f2xx_can.c ****   assert_param(IS_CAN_ALL_PERIPH(CANx));
1041:../STM32F2xx_StdPeriph_Driver/src/stm32f2xx_can.c ****   
1042:../STM32F2xx_StdPeriph_Driver/src/stm32f2xx_can.c ****   /* Get the error code*/
1043:../STM32F2xx_StdPeriph_Driver/src/stm32f2xx_can.c ****   errorcode = (((uint8_t)CANx->ESR) & (uint8_t)CAN_ESR_LEC);
 2064              		.loc 1 1043 0
 2065 0d32 7B68     		ldr	r3, [r7, #4]
 2066 0d34 9B69     		ldr	r3, [r3, #24]
 2067 0d36 DBB2     		uxtb	r3, r3
 2068 0d38 03F07003 		and	r3, r3, #112
 2069 0d3c FB73     		strb	r3, [r7, #15]
1044:../STM32F2xx_StdPeriph_Driver/src/stm32f2xx_can.c ****   
1045:../STM32F2xx_StdPeriph_Driver/src/stm32f2xx_can.c ****   /* Return the error code*/
1046:../STM32F2xx_StdPeriph_Driver/src/stm32f2xx_can.c ****   return errorcode;
 2070              		.loc 1 1046 0
 2071 0d3e FB7B     		ldrb	r3, [r7, #15]	@ zero_extendqisi2
1047:../STM32F2xx_StdPeriph_Driver/src/stm32f2xx_can.c **** }
 2072              		.loc 1 1047 0
 2073 0d40 1846     		mov	r0, r3
 2074 0d42 07F11407 		add	r7, r7, #20
 2075 0d46 BD46     		mov	sp, r7
 2076 0d48 80BC     		pop	{r7}
 2077 0d4a 7047     		bx	lr
 2078              		.cfi_endproc
 2079              	.LFE45:
 2081              		.align	2
 2082              		.global	CAN_GetReceiveErrorCounter
 2083              		.thumb
 2084              		.thumb_func
 2086              	CAN_GetReceiveErrorCounter:
 2087              	.LFB46:
1048:../STM32F2xx_StdPeriph_Driver/src/stm32f2xx_can.c **** 
1049:../STM32F2xx_StdPeriph_Driver/src/stm32f2xx_can.c **** /**
1050:../STM32F2xx_StdPeriph_Driver/src/stm32f2xx_can.c ****   * @brief  Returns the CANx Receive Error Counter (REC).
1051:../STM32F2xx_StdPeriph_Driver/src/stm32f2xx_can.c ****   * @note   In case of an error during reception, this counter is incremented 
1052:../STM32F2xx_StdPeriph_Driver/src/stm32f2xx_can.c ****   *         by 1 or by 8 depending on the error condition as defined by the CAN 
1053:../STM32F2xx_StdPeriph_Driver/src/stm32f2xx_can.c ****   *         standard. After every successful reception, the counter is 
1054:../STM32F2xx_StdPeriph_Driver/src/stm32f2xx_can.c ****   *         decremented by 1 or reset to 120 if its value was higher than 128. 
1055:../STM32F2xx_StdPeriph_Driver/src/stm32f2xx_can.c ****   *         When the counter value exceeds 127, the CAN controller enters the 
1056:../STM32F2xx_StdPeriph_Driver/src/stm32f2xx_can.c ****   *         error passive state.  
1057:../STM32F2xx_StdPeriph_Driver/src/stm32f2xx_can.c ****   * @param  CANx: where x can be 1 or 2 to to select the CAN peripheral.  
1058:../STM32F2xx_StdPeriph_Driver/src/stm32f2xx_can.c ****   * @retval CAN Receive Error Counter. 
1059:../STM32F2xx_StdPeriph_Driver/src/stm32f2xx_can.c ****   */
1060:../STM32F2xx_StdPeriph_Driver/src/stm32f2xx_can.c **** uint8_t CAN_GetReceiveErrorCounter(CAN_TypeDef* CANx)
1061:../STM32F2xx_StdPeriph_Driver/src/stm32f2xx_can.c **** {
 2088              		.loc 1 1061 0
 2089              		.cfi_startproc
 2090              		@ args = 0, pretend = 0, frame = 16
 2091              		@ frame_needed = 1, uses_anonymous_args = 0
 2092              		@ link register save eliminated.
 2093 0d4c 80B4     		push	{r7}
 2094              	.LCFI51:
 2095              		.cfi_def_cfa_offset 4
 2096              		.cfi_offset 7, -4
 2097 0d4e 85B0     		sub	sp, sp, #20
 2098              	.LCFI52:
 2099              		.cfi_def_cfa_offset 24
 2100 0d50 00AF     		add	r7, sp, #0
 2101              	.LCFI53:
 2102              		.cfi_def_cfa_register 7
 2103 0d52 7860     		str	r0, [r7, #4]
1062:../STM32F2xx_StdPeriph_Driver/src/stm32f2xx_can.c ****   uint8_t counter=0;
 2104              		.loc 1 1062 0
 2105 0d54 4FF00003 		mov	r3, #0
 2106 0d58 FB73     		strb	r3, [r7, #15]
1063:../STM32F2xx_StdPeriph_Driver/src/stm32f2xx_can.c ****   
1064:../STM32F2xx_StdPeriph_Driver/src/stm32f2xx_can.c ****   /* Check the parameters */
1065:../STM32F2xx_StdPeriph_Driver/src/stm32f2xx_can.c ****   assert_param(IS_CAN_ALL_PERIPH(CANx));
1066:../STM32F2xx_StdPeriph_Driver/src/stm32f2xx_can.c ****   
1067:../STM32F2xx_StdPeriph_Driver/src/stm32f2xx_can.c ****   /* Get the Receive Error Counter*/
1068:../STM32F2xx_StdPeriph_Driver/src/stm32f2xx_can.c ****   counter = (uint8_t)((CANx->ESR & CAN_ESR_REC)>> 24);
 2107              		.loc 1 1068 0
 2108 0d5a 7B68     		ldr	r3, [r7, #4]
 2109 0d5c 9B69     		ldr	r3, [r3, #24]
 2110 0d5e 4FEA1363 		lsr	r3, r3, #24
 2111 0d62 FB73     		strb	r3, [r7, #15]
1069:../STM32F2xx_StdPeriph_Driver/src/stm32f2xx_can.c ****   
1070:../STM32F2xx_StdPeriph_Driver/src/stm32f2xx_can.c ****   /* Return the Receive Error Counter*/
1071:../STM32F2xx_StdPeriph_Driver/src/stm32f2xx_can.c ****   return counter;
 2112              		.loc 1 1071 0
 2113 0d64 FB7B     		ldrb	r3, [r7, #15]	@ zero_extendqisi2
1072:../STM32F2xx_StdPeriph_Driver/src/stm32f2xx_can.c **** }
 2114              		.loc 1 1072 0
 2115 0d66 1846     		mov	r0, r3
 2116 0d68 07F11407 		add	r7, r7, #20
 2117 0d6c BD46     		mov	sp, r7
 2118 0d6e 80BC     		pop	{r7}
 2119 0d70 7047     		bx	lr
 2120              		.cfi_endproc
 2121              	.LFE46:
 2123 0d72 00BF     		.align	2
 2124              		.global	CAN_GetLSBTransmitErrorCounter
 2125              		.thumb
 2126              		.thumb_func
 2128              	CAN_GetLSBTransmitErrorCounter:
 2129              	.LFB47:
1073:../STM32F2xx_StdPeriph_Driver/src/stm32f2xx_can.c **** 
1074:../STM32F2xx_StdPeriph_Driver/src/stm32f2xx_can.c **** 
1075:../STM32F2xx_StdPeriph_Driver/src/stm32f2xx_can.c **** /**
1076:../STM32F2xx_StdPeriph_Driver/src/stm32f2xx_can.c ****   * @brief  Returns the LSB of the 9-bit CANx Transmit Error Counter(TEC).
1077:../STM32F2xx_StdPeriph_Driver/src/stm32f2xx_can.c ****   * @param  CANx: where x can be 1 or 2 to to select the CAN peripheral.
1078:../STM32F2xx_StdPeriph_Driver/src/stm32f2xx_can.c ****   * @retval LSB of the 9-bit CAN Transmit Error Counter. 
1079:../STM32F2xx_StdPeriph_Driver/src/stm32f2xx_can.c ****   */
1080:../STM32F2xx_StdPeriph_Driver/src/stm32f2xx_can.c **** uint8_t CAN_GetLSBTransmitErrorCounter(CAN_TypeDef* CANx)
1081:../STM32F2xx_StdPeriph_Driver/src/stm32f2xx_can.c **** {
 2130              		.loc 1 1081 0
 2131              		.cfi_startproc
 2132              		@ args = 0, pretend = 0, frame = 16
 2133              		@ frame_needed = 1, uses_anonymous_args = 0
 2134              		@ link register save eliminated.
 2135 0d74 80B4     		push	{r7}
 2136              	.LCFI54:
 2137              		.cfi_def_cfa_offset 4
 2138              		.cfi_offset 7, -4
 2139 0d76 85B0     		sub	sp, sp, #20
 2140              	.LCFI55:
 2141              		.cfi_def_cfa_offset 24
 2142 0d78 00AF     		add	r7, sp, #0
 2143              	.LCFI56:
 2144              		.cfi_def_cfa_register 7
 2145 0d7a 7860     		str	r0, [r7, #4]
1082:../STM32F2xx_StdPeriph_Driver/src/stm32f2xx_can.c ****   uint8_t counter=0;
 2146              		.loc 1 1082 0
 2147 0d7c 4FF00003 		mov	r3, #0
 2148 0d80 FB73     		strb	r3, [r7, #15]
1083:../STM32F2xx_StdPeriph_Driver/src/stm32f2xx_can.c ****   
1084:../STM32F2xx_StdPeriph_Driver/src/stm32f2xx_can.c ****   /* Check the parameters */
1085:../STM32F2xx_StdPeriph_Driver/src/stm32f2xx_can.c ****   assert_param(IS_CAN_ALL_PERIPH(CANx));
1086:../STM32F2xx_StdPeriph_Driver/src/stm32f2xx_can.c ****   
1087:../STM32F2xx_StdPeriph_Driver/src/stm32f2xx_can.c ****   /* Get the LSB of the 9-bit CANx Transmit Error Counter(TEC) */
1088:../STM32F2xx_StdPeriph_Driver/src/stm32f2xx_can.c ****   counter = (uint8_t)((CANx->ESR & CAN_ESR_TEC)>> 16);
 2149              		.loc 1 1088 0
 2150 0d82 7B68     		ldr	r3, [r7, #4]
 2151 0d84 9B69     		ldr	r3, [r3, #24]
 2152 0d86 03F47F03 		and	r3, r3, #16711680
 2153 0d8a 4FEA1343 		lsr	r3, r3, #16
 2154 0d8e FB73     		strb	r3, [r7, #15]
1089:../STM32F2xx_StdPeriph_Driver/src/stm32f2xx_can.c ****   
1090:../STM32F2xx_StdPeriph_Driver/src/stm32f2xx_can.c ****   /* Return the LSB of the 9-bit CANx Transmit Error Counter(TEC) */
1091:../STM32F2xx_StdPeriph_Driver/src/stm32f2xx_can.c ****   return counter;
 2155              		.loc 1 1091 0
 2156 0d90 FB7B     		ldrb	r3, [r7, #15]	@ zero_extendqisi2
1092:../STM32F2xx_StdPeriph_Driver/src/stm32f2xx_can.c **** }
 2157              		.loc 1 1092 0
 2158 0d92 1846     		mov	r0, r3
 2159 0d94 07F11407 		add	r7, r7, #20
 2160 0d98 BD46     		mov	sp, r7
 2161 0d9a 80BC     		pop	{r7}
 2162 0d9c 7047     		bx	lr
 2163              		.cfi_endproc
 2164              	.LFE47:
 2166 0d9e 00BF     		.align	2
 2167              		.global	CAN_ITConfig
 2168              		.thumb
 2169              		.thumb_func
 2171              	CAN_ITConfig:
 2172              	.LFB48:
1093:../STM32F2xx_StdPeriph_Driver/src/stm32f2xx_can.c **** /**
1094:../STM32F2xx_StdPeriph_Driver/src/stm32f2xx_can.c ****   * @}
1095:../STM32F2xx_StdPeriph_Driver/src/stm32f2xx_can.c ****   */
1096:../STM32F2xx_StdPeriph_Driver/src/stm32f2xx_can.c **** 
1097:../STM32F2xx_StdPeriph_Driver/src/stm32f2xx_can.c **** /** @defgroup CAN_Group6 Interrupts and flags management functions
1098:../STM32F2xx_StdPeriph_Driver/src/stm32f2xx_can.c ****  *  @brief   Interrupts and flags management functions
1099:../STM32F2xx_StdPeriph_Driver/src/stm32f2xx_can.c ****  *
1100:../STM32F2xx_StdPeriph_Driver/src/stm32f2xx_can.c **** @verbatim   
1101:../STM32F2xx_StdPeriph_Driver/src/stm32f2xx_can.c ****  ===============================================================================
1102:../STM32F2xx_StdPeriph_Driver/src/stm32f2xx_can.c ****                    Interrupts and flags management functions
1103:../STM32F2xx_StdPeriph_Driver/src/stm32f2xx_can.c ****  ===============================================================================  
1104:../STM32F2xx_StdPeriph_Driver/src/stm32f2xx_can.c **** 
1105:../STM32F2xx_StdPeriph_Driver/src/stm32f2xx_can.c ****   This section provides functions allowing to configure the CAN Interrupts and 
1106:../STM32F2xx_StdPeriph_Driver/src/stm32f2xx_can.c ****   to get the status and clear flags and Interrupts pending bits.
1107:../STM32F2xx_StdPeriph_Driver/src/stm32f2xx_can.c ****   
1108:../STM32F2xx_StdPeriph_Driver/src/stm32f2xx_can.c ****   The CAN provides 14 Interrupts sources and 15 Flags:
1109:../STM32F2xx_StdPeriph_Driver/src/stm32f2xx_can.c **** 
1110:../STM32F2xx_StdPeriph_Driver/src/stm32f2xx_can.c ****   ===============  
1111:../STM32F2xx_StdPeriph_Driver/src/stm32f2xx_can.c ****       Flags :
1112:../STM32F2xx_StdPeriph_Driver/src/stm32f2xx_can.c ****   ===============
1113:../STM32F2xx_StdPeriph_Driver/src/stm32f2xx_can.c ****   The 15 flags can be divided on 4 groups: 
1114:../STM32F2xx_StdPeriph_Driver/src/stm32f2xx_can.c **** 
1115:../STM32F2xx_StdPeriph_Driver/src/stm32f2xx_can.c ****    A. Transmit Flags
1116:../STM32F2xx_StdPeriph_Driver/src/stm32f2xx_can.c ****   -----------------------
1117:../STM32F2xx_StdPeriph_Driver/src/stm32f2xx_can.c ****         CAN_FLAG_RQCP0, 
1118:../STM32F2xx_StdPeriph_Driver/src/stm32f2xx_can.c ****         CAN_FLAG_RQCP1, 
1119:../STM32F2xx_StdPeriph_Driver/src/stm32f2xx_can.c ****         CAN_FLAG_RQCP2  : Request completed MailBoxes 0, 1 and 2  Flags
1120:../STM32F2xx_StdPeriph_Driver/src/stm32f2xx_can.c ****                           Set when when the last request (transmit or abort) has 
1121:../STM32F2xx_StdPeriph_Driver/src/stm32f2xx_can.c ****                           been performed. 
1122:../STM32F2xx_StdPeriph_Driver/src/stm32f2xx_can.c **** 
1123:../STM32F2xx_StdPeriph_Driver/src/stm32f2xx_can.c ****   B. Receive Flags
1124:../STM32F2xx_StdPeriph_Driver/src/stm32f2xx_can.c ****   -----------------------
1125:../STM32F2xx_StdPeriph_Driver/src/stm32f2xx_can.c **** 
1126:../STM32F2xx_StdPeriph_Driver/src/stm32f2xx_can.c ****         CAN_FLAG_FMP0,
1127:../STM32F2xx_StdPeriph_Driver/src/stm32f2xx_can.c ****         CAN_FLAG_FMP1   : FIFO 0 and 1 Message Pending Flags 
1128:../STM32F2xx_StdPeriph_Driver/src/stm32f2xx_can.c ****                           set to signal that messages are pending in the receive 
1129:../STM32F2xx_StdPeriph_Driver/src/stm32f2xx_can.c ****                           FIFO.
1130:../STM32F2xx_StdPeriph_Driver/src/stm32f2xx_can.c ****                           These Flags are cleared only by hardware. 
1131:../STM32F2xx_StdPeriph_Driver/src/stm32f2xx_can.c **** 
1132:../STM32F2xx_StdPeriph_Driver/src/stm32f2xx_can.c ****         CAN_FLAG_FF0,
1133:../STM32F2xx_StdPeriph_Driver/src/stm32f2xx_can.c ****         CAN_FLAG_FF1    : FIFO 0 and 1 Full Flags
1134:../STM32F2xx_StdPeriph_Driver/src/stm32f2xx_can.c ****                           set when three messages are stored in the selected 
1135:../STM32F2xx_StdPeriph_Driver/src/stm32f2xx_can.c ****                           FIFO.                        
1136:../STM32F2xx_StdPeriph_Driver/src/stm32f2xx_can.c **** 
1137:../STM32F2xx_StdPeriph_Driver/src/stm32f2xx_can.c ****         CAN_FLAG_FOV0              
1138:../STM32F2xx_StdPeriph_Driver/src/stm32f2xx_can.c ****         CAN_FLAG_FOV1   : FIFO 0 and 1 Overrun Flags
1139:../STM32F2xx_StdPeriph_Driver/src/stm32f2xx_can.c ****                           set when a new message has been received and passed 
1140:../STM32F2xx_StdPeriph_Driver/src/stm32f2xx_can.c ****                           the filter while the FIFO was full.         
1141:../STM32F2xx_StdPeriph_Driver/src/stm32f2xx_can.c **** 
1142:../STM32F2xx_StdPeriph_Driver/src/stm32f2xx_can.c ****   C. Operating Mode Flags
1143:../STM32F2xx_StdPeriph_Driver/src/stm32f2xx_can.c ****   ----------------------- 
1144:../STM32F2xx_StdPeriph_Driver/src/stm32f2xx_can.c ****         CAN_FLAG_WKU    : Wake up Flag
1145:../STM32F2xx_StdPeriph_Driver/src/stm32f2xx_can.c ****                           set to signal that a SOF bit has been detected while 
1146:../STM32F2xx_StdPeriph_Driver/src/stm32f2xx_can.c ****                           the CAN hardware was in Sleep mode. 
1147:../STM32F2xx_StdPeriph_Driver/src/stm32f2xx_can.c ****         
1148:../STM32F2xx_StdPeriph_Driver/src/stm32f2xx_can.c ****         CAN_FLAG_SLAK   : Sleep acknowledge Flag
1149:../STM32F2xx_StdPeriph_Driver/src/stm32f2xx_can.c ****                           Set to signal that the CAN has entered Sleep Mode. 
1150:../STM32F2xx_StdPeriph_Driver/src/stm32f2xx_can.c ****     
1151:../STM32F2xx_StdPeriph_Driver/src/stm32f2xx_can.c ****   D. Error Flags
1152:../STM32F2xx_StdPeriph_Driver/src/stm32f2xx_can.c ****   ----------------------- 
1153:../STM32F2xx_StdPeriph_Driver/src/stm32f2xx_can.c ****         CAN_FLAG_EWG    : Error Warning Flag
1154:../STM32F2xx_StdPeriph_Driver/src/stm32f2xx_can.c ****                           Set when the warning limit has been reached (Receive 
1155:../STM32F2xx_StdPeriph_Driver/src/stm32f2xx_can.c ****                           Error Counter or Transmit Error Counter greater than 96). 
1156:../STM32F2xx_StdPeriph_Driver/src/stm32f2xx_can.c ****                           This Flag is cleared only by hardware.
1157:../STM32F2xx_StdPeriph_Driver/src/stm32f2xx_can.c ****                             
1158:../STM32F2xx_StdPeriph_Driver/src/stm32f2xx_can.c ****         CAN_FLAG_EPV    : Error Passive Flag
1159:../STM32F2xx_StdPeriph_Driver/src/stm32f2xx_can.c ****                           Set when the Error Passive limit has been reached 
1160:../STM32F2xx_StdPeriph_Driver/src/stm32f2xx_can.c ****                           (Receive Error Counter or Transmit Error Counter 
1161:../STM32F2xx_StdPeriph_Driver/src/stm32f2xx_can.c ****                           greater than 127).
1162:../STM32F2xx_StdPeriph_Driver/src/stm32f2xx_can.c ****                           This Flag is cleared only by hardware.
1163:../STM32F2xx_StdPeriph_Driver/src/stm32f2xx_can.c ****                              
1164:../STM32F2xx_StdPeriph_Driver/src/stm32f2xx_can.c ****         CAN_FLAG_BOF    : Bus-Off Flag
1165:../STM32F2xx_StdPeriph_Driver/src/stm32f2xx_can.c ****                           set when CAN enters the bus-off state. The bus-off 
1166:../STM32F2xx_StdPeriph_Driver/src/stm32f2xx_can.c ****                           state is entered on TEC overflow, greater than 255.
1167:../STM32F2xx_StdPeriph_Driver/src/stm32f2xx_can.c ****                           This Flag is cleared only by hardware.
1168:../STM32F2xx_StdPeriph_Driver/src/stm32f2xx_can.c ****                                    
1169:../STM32F2xx_StdPeriph_Driver/src/stm32f2xx_can.c ****         CAN_FLAG_LEC    : Last error code Flag
1170:../STM32F2xx_StdPeriph_Driver/src/stm32f2xx_can.c ****                           set If a message has been transferred (reception or
1171:../STM32F2xx_StdPeriph_Driver/src/stm32f2xx_can.c ****                           transmission) with error, and the error code is hold.              
1172:../STM32F2xx_StdPeriph_Driver/src/stm32f2xx_can.c ****                           
1173:../STM32F2xx_StdPeriph_Driver/src/stm32f2xx_can.c ****   ===============  
1174:../STM32F2xx_StdPeriph_Driver/src/stm32f2xx_can.c ****    Interrupts :
1175:../STM32F2xx_StdPeriph_Driver/src/stm32f2xx_can.c ****   ===============
1176:../STM32F2xx_StdPeriph_Driver/src/stm32f2xx_can.c ****   The 14 interrupts can be divided on 4 groups: 
1177:../STM32F2xx_StdPeriph_Driver/src/stm32f2xx_can.c ****   
1178:../STM32F2xx_StdPeriph_Driver/src/stm32f2xx_can.c ****    A. Transmit interrupt
1179:../STM32F2xx_StdPeriph_Driver/src/stm32f2xx_can.c ****   -----------------------   
1180:../STM32F2xx_StdPeriph_Driver/src/stm32f2xx_can.c ****           CAN_IT_TME   :  Transmit mailbox empty Interrupt
1181:../STM32F2xx_StdPeriph_Driver/src/stm32f2xx_can.c ****                           if enabled, this interrupt source is pending when 
1182:../STM32F2xx_StdPeriph_Driver/src/stm32f2xx_can.c ****                           no transmit request are pending for Tx mailboxes.      
1183:../STM32F2xx_StdPeriph_Driver/src/stm32f2xx_can.c **** 
1184:../STM32F2xx_StdPeriph_Driver/src/stm32f2xx_can.c ****    B. Receive Interrupts
1185:../STM32F2xx_StdPeriph_Driver/src/stm32f2xx_can.c ****   -----------------------          
1186:../STM32F2xx_StdPeriph_Driver/src/stm32f2xx_can.c ****         CAN_IT_FMP0,
1187:../STM32F2xx_StdPeriph_Driver/src/stm32f2xx_can.c ****         CAN_IT_FMP1    :  FIFO 0 and FIFO1 message pending Interrupts
1188:../STM32F2xx_StdPeriph_Driver/src/stm32f2xx_can.c ****                           if enabled, these interrupt sources are pending when 
1189:../STM32F2xx_StdPeriph_Driver/src/stm32f2xx_can.c ****                           messages are pending in the receive FIFO.
1190:../STM32F2xx_StdPeriph_Driver/src/stm32f2xx_can.c ****                           The corresponding interrupt pending bits are cleared 
1191:../STM32F2xx_StdPeriph_Driver/src/stm32f2xx_can.c ****                           only by hardware.
1192:../STM32F2xx_StdPeriph_Driver/src/stm32f2xx_can.c ****                 
1193:../STM32F2xx_StdPeriph_Driver/src/stm32f2xx_can.c ****         CAN_IT_FF0,              
1194:../STM32F2xx_StdPeriph_Driver/src/stm32f2xx_can.c ****         CAN_IT_FF1     :  FIFO 0 and FIFO1 full Interrupts
1195:../STM32F2xx_StdPeriph_Driver/src/stm32f2xx_can.c ****                           if enabled, these interrupt sources are pending when
1196:../STM32F2xx_StdPeriph_Driver/src/stm32f2xx_can.c ****                           three messages are stored in the selected FIFO.
1197:../STM32F2xx_StdPeriph_Driver/src/stm32f2xx_can.c ****         
1198:../STM32F2xx_StdPeriph_Driver/src/stm32f2xx_can.c ****         CAN_IT_FOV0,        
1199:../STM32F2xx_StdPeriph_Driver/src/stm32f2xx_can.c ****         CAN_IT_FOV1    :  FIFO 0 and FIFO1 overrun Interrupts        
1200:../STM32F2xx_StdPeriph_Driver/src/stm32f2xx_can.c ****                           if enabled, these interrupt sources are pending when
1201:../STM32F2xx_StdPeriph_Driver/src/stm32f2xx_can.c ****                           a new message has been received and passed the filter
1202:../STM32F2xx_StdPeriph_Driver/src/stm32f2xx_can.c ****                           while the FIFO was full.
1203:../STM32F2xx_StdPeriph_Driver/src/stm32f2xx_can.c **** 
1204:../STM32F2xx_StdPeriph_Driver/src/stm32f2xx_can.c ****    C. Operating Mode Interrupts
1205:../STM32F2xx_StdPeriph_Driver/src/stm32f2xx_can.c ****   -------------------------------          
1206:../STM32F2xx_StdPeriph_Driver/src/stm32f2xx_can.c ****         CAN_IT_WKU     :  Wake-up Interrupt
1207:../STM32F2xx_StdPeriph_Driver/src/stm32f2xx_can.c ****                           if enabled, this interrupt source is pending when 
1208:../STM32F2xx_StdPeriph_Driver/src/stm32f2xx_can.c ****                           a SOF bit has been detected while the CAN hardware was 
1209:../STM32F2xx_StdPeriph_Driver/src/stm32f2xx_can.c ****                           in Sleep mode.
1210:../STM32F2xx_StdPeriph_Driver/src/stm32f2xx_can.c ****                                   
1211:../STM32F2xx_StdPeriph_Driver/src/stm32f2xx_can.c ****         CAN_IT_SLK     :  Sleep acknowledge Interrupt
1212:../STM32F2xx_StdPeriph_Driver/src/stm32f2xx_can.c ****                           if enabled, this interrupt source is pending when 
1213:../STM32F2xx_StdPeriph_Driver/src/stm32f2xx_can.c ****                           the CAN has entered Sleep Mode.       
1214:../STM32F2xx_StdPeriph_Driver/src/stm32f2xx_can.c **** 
1215:../STM32F2xx_StdPeriph_Driver/src/stm32f2xx_can.c ****    D. Error Interrupts 
1216:../STM32F2xx_StdPeriph_Driver/src/stm32f2xx_can.c ****   -----------------------         
1217:../STM32F2xx_StdPeriph_Driver/src/stm32f2xx_can.c ****         CAN_IT_EWG     :  Error warning Interrupt 
1218:../STM32F2xx_StdPeriph_Driver/src/stm32f2xx_can.c ****                           if enabled, this interrupt source is pending when
1219:../STM32F2xx_StdPeriph_Driver/src/stm32f2xx_can.c ****                           the warning limit has been reached (Receive Error 
1220:../STM32F2xx_StdPeriph_Driver/src/stm32f2xx_can.c ****                           Counter or Transmit Error Counter=96). 
1221:../STM32F2xx_StdPeriph_Driver/src/stm32f2xx_can.c ****                                
1222:../STM32F2xx_StdPeriph_Driver/src/stm32f2xx_can.c ****         CAN_IT_EPV     :  Error passive Interrupt        
1223:../STM32F2xx_StdPeriph_Driver/src/stm32f2xx_can.c ****                           if enabled, this interrupt source is pending when
1224:../STM32F2xx_StdPeriph_Driver/src/stm32f2xx_can.c ****                           the Error Passive limit has been reached (Receive 
1225:../STM32F2xx_StdPeriph_Driver/src/stm32f2xx_can.c ****                           Error Counter or Transmit Error Counter>127).
1226:../STM32F2xx_StdPeriph_Driver/src/stm32f2xx_can.c ****                           
1227:../STM32F2xx_StdPeriph_Driver/src/stm32f2xx_can.c ****         CAN_IT_BOF     :  Bus-off Interrupt
1228:../STM32F2xx_StdPeriph_Driver/src/stm32f2xx_can.c ****                           if enabled, this interrupt source is pending when
1229:../STM32F2xx_StdPeriph_Driver/src/stm32f2xx_can.c ****                           CAN enters the bus-off state. The bus-off state is 
1230:../STM32F2xx_StdPeriph_Driver/src/stm32f2xx_can.c ****                           entered on TEC overflow, greater than 255.
1231:../STM32F2xx_StdPeriph_Driver/src/stm32f2xx_can.c ****                           This Flag is cleared only by hardware.
1232:../STM32F2xx_StdPeriph_Driver/src/stm32f2xx_can.c ****                                   
1233:../STM32F2xx_StdPeriph_Driver/src/stm32f2xx_can.c ****         CAN_IT_LEC     :  Last error code Interrupt        
1234:../STM32F2xx_StdPeriph_Driver/src/stm32f2xx_can.c ****                           if enabled, this interrupt source is pending  when
1235:../STM32F2xx_StdPeriph_Driver/src/stm32f2xx_can.c ****                           a message has been transferred (reception or
1236:../STM32F2xx_StdPeriph_Driver/src/stm32f2xx_can.c ****                           transmission) with error, and the error code is hold.
1237:../STM32F2xx_StdPeriph_Driver/src/stm32f2xx_can.c ****                           
1238:../STM32F2xx_StdPeriph_Driver/src/stm32f2xx_can.c ****         CAN_IT_ERR     :  Error Interrupt
1239:../STM32F2xx_StdPeriph_Driver/src/stm32f2xx_can.c ****                           if enabled, this interrupt source is pending when 
1240:../STM32F2xx_StdPeriph_Driver/src/stm32f2xx_can.c ****                           an error condition is pending.      
1241:../STM32F2xx_StdPeriph_Driver/src/stm32f2xx_can.c ****                       
1242:../STM32F2xx_StdPeriph_Driver/src/stm32f2xx_can.c **** 
1243:../STM32F2xx_StdPeriph_Driver/src/stm32f2xx_can.c ****   Managing the CAN controller events :
1244:../STM32F2xx_StdPeriph_Driver/src/stm32f2xx_can.c ****   ------------------------------------ 
1245:../STM32F2xx_StdPeriph_Driver/src/stm32f2xx_can.c ****   The user should identify which mode will be used in his application to manage 
1246:../STM32F2xx_StdPeriph_Driver/src/stm32f2xx_can.c ****   the CAN controller events: Polling mode or Interrupt mode.
1247:../STM32F2xx_StdPeriph_Driver/src/stm32f2xx_can.c ****   
1248:../STM32F2xx_StdPeriph_Driver/src/stm32f2xx_can.c ****   1.  In the Polling Mode it is advised to use the following functions:
1249:../STM32F2xx_StdPeriph_Driver/src/stm32f2xx_can.c ****       - CAN_GetFlagStatus() : to check if flags events occur. 
1250:../STM32F2xx_StdPeriph_Driver/src/stm32f2xx_can.c ****       - CAN_ClearFlag()     : to clear the flags events.
1251:../STM32F2xx_StdPeriph_Driver/src/stm32f2xx_can.c ****   
1252:../STM32F2xx_StdPeriph_Driver/src/stm32f2xx_can.c **** 
1253:../STM32F2xx_StdPeriph_Driver/src/stm32f2xx_can.c ****   
1254:../STM32F2xx_StdPeriph_Driver/src/stm32f2xx_can.c ****   2.  In the Interrupt Mode it is advised to use the following functions:
1255:../STM32F2xx_StdPeriph_Driver/src/stm32f2xx_can.c ****       - CAN_ITConfig()       : to enable or disable the interrupt source.
1256:../STM32F2xx_StdPeriph_Driver/src/stm32f2xx_can.c ****       - CAN_GetITStatus()    : to check if Interrupt occurs.
1257:../STM32F2xx_StdPeriph_Driver/src/stm32f2xx_can.c ****       - CAN_ClearITPendingBit() : to clear the Interrupt pending Bit (corresponding Flag).
1258:../STM32F2xx_StdPeriph_Driver/src/stm32f2xx_can.c ****       @note  This function has no impact on CAN_IT_FMP0 and CAN_IT_FMP1 Interrupts 
1259:../STM32F2xx_StdPeriph_Driver/src/stm32f2xx_can.c ****              pending bits since there are cleared only by hardware. 
1260:../STM32F2xx_StdPeriph_Driver/src/stm32f2xx_can.c ****   
1261:../STM32F2xx_StdPeriph_Driver/src/stm32f2xx_can.c **** @endverbatim
1262:../STM32F2xx_StdPeriph_Driver/src/stm32f2xx_can.c ****   * @{
1263:../STM32F2xx_StdPeriph_Driver/src/stm32f2xx_can.c ****   */ 
1264:../STM32F2xx_StdPeriph_Driver/src/stm32f2xx_can.c **** /**
1265:../STM32F2xx_StdPeriph_Driver/src/stm32f2xx_can.c ****   * @brief  Enables or disables the specified CANx interrupts.
1266:../STM32F2xx_StdPeriph_Driver/src/stm32f2xx_can.c ****   * @param  CANx: where x can be 1 or 2 to to select the CAN peripheral.
1267:../STM32F2xx_StdPeriph_Driver/src/stm32f2xx_can.c ****   * @param  CAN_IT: specifies the CAN interrupt sources to be enabled or disabled.
1268:../STM32F2xx_StdPeriph_Driver/src/stm32f2xx_can.c ****   *          This parameter can be: 
1269:../STM32F2xx_StdPeriph_Driver/src/stm32f2xx_can.c ****   *            @arg CAN_IT_TME: Transmit mailbox empty Interrupt 
1270:../STM32F2xx_StdPeriph_Driver/src/stm32f2xx_can.c ****   *            @arg CAN_IT_FMP0: FIFO 0 message pending Interrupt 
1271:../STM32F2xx_StdPeriph_Driver/src/stm32f2xx_can.c ****   *            @arg CAN_IT_FF0: FIFO 0 full Interrupt
1272:../STM32F2xx_StdPeriph_Driver/src/stm32f2xx_can.c ****   *            @arg CAN_IT_FOV0: FIFO 0 overrun Interrupt
1273:../STM32F2xx_StdPeriph_Driver/src/stm32f2xx_can.c ****   *            @arg CAN_IT_FMP1: FIFO 1 message pending Interrupt 
1274:../STM32F2xx_StdPeriph_Driver/src/stm32f2xx_can.c ****   *            @arg CAN_IT_FF1: FIFO 1 full Interrupt
1275:../STM32F2xx_StdPeriph_Driver/src/stm32f2xx_can.c ****   *            @arg CAN_IT_FOV1: FIFO 1 overrun Interrupt
1276:../STM32F2xx_StdPeriph_Driver/src/stm32f2xx_can.c ****   *            @arg CAN_IT_WKU: Wake-up Interrupt
1277:../STM32F2xx_StdPeriph_Driver/src/stm32f2xx_can.c ****   *            @arg CAN_IT_SLK: Sleep acknowledge Interrupt  
1278:../STM32F2xx_StdPeriph_Driver/src/stm32f2xx_can.c ****   *            @arg CAN_IT_EWG: Error warning Interrupt
1279:../STM32F2xx_StdPeriph_Driver/src/stm32f2xx_can.c ****   *            @arg CAN_IT_EPV: Error passive Interrupt
1280:../STM32F2xx_StdPeriph_Driver/src/stm32f2xx_can.c ****   *            @arg CAN_IT_BOF: Bus-off Interrupt  
1281:../STM32F2xx_StdPeriph_Driver/src/stm32f2xx_can.c ****   *            @arg CAN_IT_LEC: Last error code Interrupt
1282:../STM32F2xx_StdPeriph_Driver/src/stm32f2xx_can.c ****   *            @arg CAN_IT_ERR: Error Interrupt
1283:../STM32F2xx_StdPeriph_Driver/src/stm32f2xx_can.c ****   * @param  NewState: new state of the CAN interrupts.
1284:../STM32F2xx_StdPeriph_Driver/src/stm32f2xx_can.c ****   *          This parameter can be: ENABLE or DISABLE.
1285:../STM32F2xx_StdPeriph_Driver/src/stm32f2xx_can.c ****   * @retval None
1286:../STM32F2xx_StdPeriph_Driver/src/stm32f2xx_can.c ****   */
1287:../STM32F2xx_StdPeriph_Driver/src/stm32f2xx_can.c **** void CAN_ITConfig(CAN_TypeDef* CANx, uint32_t CAN_IT, FunctionalState NewState)
1288:../STM32F2xx_StdPeriph_Driver/src/stm32f2xx_can.c **** {
 2173              		.loc 1 1288 0
 2174              		.cfi_startproc
 2175              		@ args = 0, pretend = 0, frame = 16
 2176              		@ frame_needed = 1, uses_anonymous_args = 0
 2177              		@ link register save eliminated.
 2178 0da0 80B4     		push	{r7}
 2179              	.LCFI57:
 2180              		.cfi_def_cfa_offset 4
 2181              		.cfi_offset 7, -4
 2182 0da2 85B0     		sub	sp, sp, #20
 2183              	.LCFI58:
 2184              		.cfi_def_cfa_offset 24
 2185 0da4 00AF     		add	r7, sp, #0
 2186              	.LCFI59:
 2187              		.cfi_def_cfa_register 7
 2188 0da6 F860     		str	r0, [r7, #12]
 2189 0da8 B960     		str	r1, [r7, #8]
 2190 0daa 1346     		mov	r3, r2
 2191 0dac FB71     		strb	r3, [r7, #7]
1289:../STM32F2xx_StdPeriph_Driver/src/stm32f2xx_can.c ****   /* Check the parameters */
1290:../STM32F2xx_StdPeriph_Driver/src/stm32f2xx_can.c ****   assert_param(IS_CAN_ALL_PERIPH(CANx));
1291:../STM32F2xx_StdPeriph_Driver/src/stm32f2xx_can.c ****   assert_param(IS_CAN_IT(CAN_IT));
1292:../STM32F2xx_StdPeriph_Driver/src/stm32f2xx_can.c ****   assert_param(IS_FUNCTIONAL_STATE(NewState));
1293:../STM32F2xx_StdPeriph_Driver/src/stm32f2xx_can.c **** 
1294:../STM32F2xx_StdPeriph_Driver/src/stm32f2xx_can.c ****   if (NewState != DISABLE)
 2192              		.loc 1 1294 0
 2193 0dae FB79     		ldrb	r3, [r7, #7]	@ zero_extendqisi2
 2194 0db0 002B     		cmp	r3, #0
 2195 0db2 07D0     		beq	.L114
1295:../STM32F2xx_StdPeriph_Driver/src/stm32f2xx_can.c ****   {
1296:../STM32F2xx_StdPeriph_Driver/src/stm32f2xx_can.c ****     /* Enable the selected CANx interrupt */
1297:../STM32F2xx_StdPeriph_Driver/src/stm32f2xx_can.c ****     CANx->IER |= CAN_IT;
 2196              		.loc 1 1297 0
 2197 0db4 FB68     		ldr	r3, [r7, #12]
 2198 0db6 5B69     		ldr	r3, [r3, #20]
 2199 0db8 1A46     		mov	r2, r3
 2200 0dba BB68     		ldr	r3, [r7, #8]
 2201 0dbc 1A43     		orrs	r2, r2, r3
 2202 0dbe FB68     		ldr	r3, [r7, #12]
 2203 0dc0 5A61     		str	r2, [r3, #20]
 2204 0dc2 08E0     		b	.L113
 2205              	.L114:
1298:../STM32F2xx_StdPeriph_Driver/src/stm32f2xx_can.c ****   }
1299:../STM32F2xx_StdPeriph_Driver/src/stm32f2xx_can.c ****   else
1300:../STM32F2xx_StdPeriph_Driver/src/stm32f2xx_can.c ****   {
1301:../STM32F2xx_StdPeriph_Driver/src/stm32f2xx_can.c ****     /* Disable the selected CANx interrupt */
1302:../STM32F2xx_StdPeriph_Driver/src/stm32f2xx_can.c ****     CANx->IER &= ~CAN_IT;
 2206              		.loc 1 1302 0
 2207 0dc4 FB68     		ldr	r3, [r7, #12]
 2208 0dc6 5B69     		ldr	r3, [r3, #20]
 2209 0dc8 1A46     		mov	r2, r3
 2210 0dca BB68     		ldr	r3, [r7, #8]
 2211 0dcc 6FEA0303 		mvn	r3, r3
 2212 0dd0 1A40     		ands	r2, r2, r3
 2213 0dd2 FB68     		ldr	r3, [r7, #12]
 2214 0dd4 5A61     		str	r2, [r3, #20]
 2215              	.L113:
1303:../STM32F2xx_StdPeriph_Driver/src/stm32f2xx_can.c ****   }
1304:../STM32F2xx_StdPeriph_Driver/src/stm32f2xx_can.c **** }
 2216              		.loc 1 1304 0
 2217 0dd6 07F11407 		add	r7, r7, #20
 2218 0dda BD46     		mov	sp, r7
 2219 0ddc 80BC     		pop	{r7}
 2220 0dde 7047     		bx	lr
 2221              		.cfi_endproc
 2222              	.LFE48:
 2224              		.align	2
 2225              		.global	CAN_GetFlagStatus
 2226              		.thumb
 2227              		.thumb_func
 2229              	CAN_GetFlagStatus:
 2230              	.LFB49:
1305:../STM32F2xx_StdPeriph_Driver/src/stm32f2xx_can.c **** /**
1306:../STM32F2xx_StdPeriph_Driver/src/stm32f2xx_can.c ****   * @brief  Checks whether the specified CAN flag is set or not.
1307:../STM32F2xx_StdPeriph_Driver/src/stm32f2xx_can.c ****   * @param  CANx: where x can be 1 or 2 to to select the CAN peripheral.
1308:../STM32F2xx_StdPeriph_Driver/src/stm32f2xx_can.c ****   * @param  CAN_FLAG: specifies the flag to check.
1309:../STM32F2xx_StdPeriph_Driver/src/stm32f2xx_can.c ****   *          This parameter can be one of the following values:
1310:../STM32F2xx_StdPeriph_Driver/src/stm32f2xx_can.c ****   *            @arg CAN_FLAG_RQCP0: Request MailBox0 Flag
1311:../STM32F2xx_StdPeriph_Driver/src/stm32f2xx_can.c ****   *            @arg CAN_FLAG_RQCP1: Request MailBox1 Flag
1312:../STM32F2xx_StdPeriph_Driver/src/stm32f2xx_can.c ****   *            @arg CAN_FLAG_RQCP2: Request MailBox2 Flag
1313:../STM32F2xx_StdPeriph_Driver/src/stm32f2xx_can.c ****   *            @arg CAN_FLAG_FMP0: FIFO 0 Message Pending Flag   
1314:../STM32F2xx_StdPeriph_Driver/src/stm32f2xx_can.c ****   *            @arg CAN_FLAG_FF0: FIFO 0 Full Flag       
1315:../STM32F2xx_StdPeriph_Driver/src/stm32f2xx_can.c ****   *            @arg CAN_FLAG_FOV0: FIFO 0 Overrun Flag 
1316:../STM32F2xx_StdPeriph_Driver/src/stm32f2xx_can.c ****   *            @arg CAN_FLAG_FMP1: FIFO 1 Message Pending Flag   
1317:../STM32F2xx_StdPeriph_Driver/src/stm32f2xx_can.c ****   *            @arg CAN_FLAG_FF1: FIFO 1 Full Flag        
1318:../STM32F2xx_StdPeriph_Driver/src/stm32f2xx_can.c ****   *            @arg CAN_FLAG_FOV1: FIFO 1 Overrun Flag     
1319:../STM32F2xx_StdPeriph_Driver/src/stm32f2xx_can.c ****   *            @arg CAN_FLAG_WKU: Wake up Flag
1320:../STM32F2xx_StdPeriph_Driver/src/stm32f2xx_can.c ****   *            @arg CAN_FLAG_SLAK: Sleep acknowledge Flag 
1321:../STM32F2xx_StdPeriph_Driver/src/stm32f2xx_can.c ****   *            @arg CAN_FLAG_EWG: Error Warning Flag
1322:../STM32F2xx_StdPeriph_Driver/src/stm32f2xx_can.c ****   *            @arg CAN_FLAG_EPV: Error Passive Flag  
1323:../STM32F2xx_StdPeriph_Driver/src/stm32f2xx_can.c ****   *            @arg CAN_FLAG_BOF: Bus-Off Flag    
1324:../STM32F2xx_StdPeriph_Driver/src/stm32f2xx_can.c ****   *            @arg CAN_FLAG_LEC: Last error code Flag      
1325:../STM32F2xx_StdPeriph_Driver/src/stm32f2xx_can.c ****   * @retval The new state of CAN_FLAG (SET or RESET).
1326:../STM32F2xx_StdPeriph_Driver/src/stm32f2xx_can.c ****   */
1327:../STM32F2xx_StdPeriph_Driver/src/stm32f2xx_can.c **** FlagStatus CAN_GetFlagStatus(CAN_TypeDef* CANx, uint32_t CAN_FLAG)
1328:../STM32F2xx_StdPeriph_Driver/src/stm32f2xx_can.c **** {
 2231              		.loc 1 1328 0
 2232              		.cfi_startproc
 2233              		@ args = 0, pretend = 0, frame = 16
 2234              		@ frame_needed = 1, uses_anonymous_args = 0
 2235              		@ link register save eliminated.
 2236 0de0 80B4     		push	{r7}
 2237              	.LCFI60:
 2238              		.cfi_def_cfa_offset 4
 2239              		.cfi_offset 7, -4
 2240 0de2 85B0     		sub	sp, sp, #20
 2241              	.LCFI61:
 2242              		.cfi_def_cfa_offset 24
 2243 0de4 00AF     		add	r7, sp, #0
 2244              	.LCFI62:
 2245              		.cfi_def_cfa_register 7
 2246 0de6 7860     		str	r0, [r7, #4]
 2247 0de8 3960     		str	r1, [r7, #0]
1329:../STM32F2xx_StdPeriph_Driver/src/stm32f2xx_can.c ****   FlagStatus bitstatus = RESET;
 2248              		.loc 1 1329 0
 2249 0dea 4FF00003 		mov	r3, #0
 2250 0dee FB73     		strb	r3, [r7, #15]
1330:../STM32F2xx_StdPeriph_Driver/src/stm32f2xx_can.c ****   
1331:../STM32F2xx_StdPeriph_Driver/src/stm32f2xx_can.c ****   /* Check the parameters */
1332:../STM32F2xx_StdPeriph_Driver/src/stm32f2xx_can.c ****   assert_param(IS_CAN_ALL_PERIPH(CANx));
1333:../STM32F2xx_StdPeriph_Driver/src/stm32f2xx_can.c ****   assert_param(IS_CAN_GET_FLAG(CAN_FLAG));
1334:../STM32F2xx_StdPeriph_Driver/src/stm32f2xx_can.c ****   
1335:../STM32F2xx_StdPeriph_Driver/src/stm32f2xx_can.c **** 
1336:../STM32F2xx_StdPeriph_Driver/src/stm32f2xx_can.c ****   if((CAN_FLAG & CAN_FLAGS_ESR) != (uint32_t)RESET)
 2251              		.loc 1 1336 0
 2252 0df0 3B68     		ldr	r3, [r7, #0]
 2253 0df2 03F47003 		and	r3, r3, #15728640
 2254 0df6 002B     		cmp	r3, #0
 2255 0df8 12D0     		beq	.L117
1337:../STM32F2xx_StdPeriph_Driver/src/stm32f2xx_can.c ****   { 
1338:../STM32F2xx_StdPeriph_Driver/src/stm32f2xx_can.c ****     /* Check the status of the specified CAN flag */
1339:../STM32F2xx_StdPeriph_Driver/src/stm32f2xx_can.c ****     if ((CANx->ESR & (CAN_FLAG & 0x000FFFFF)) != (uint32_t)RESET)
 2256              		.loc 1 1339 0
 2257 0dfa 7B68     		ldr	r3, [r7, #4]
 2258 0dfc 9B69     		ldr	r3, [r3, #24]
 2259 0dfe 1A46     		mov	r2, r3
 2260 0e00 3B68     		ldr	r3, [r7, #0]
 2261 0e02 1340     		ands	r3, r3, r2
 2262 0e04 23F07F43 		bic	r3, r3, #-16777216
 2263 0e08 23F47003 		bic	r3, r3, #15728640
 2264 0e0c 002B     		cmp	r3, #0
 2265 0e0e 03D0     		beq	.L118
1340:../STM32F2xx_StdPeriph_Driver/src/stm32f2xx_can.c ****     { 
1341:../STM32F2xx_StdPeriph_Driver/src/stm32f2xx_can.c ****       /* CAN_FLAG is set */
1342:../STM32F2xx_StdPeriph_Driver/src/stm32f2xx_can.c ****       bitstatus = SET;
 2266              		.loc 1 1342 0
 2267 0e10 4FF00103 		mov	r3, #1
 2268 0e14 FB73     		strb	r3, [r7, #15]
 2269 0e16 5DE0     		b	.L119
 2270              	.L118:
1343:../STM32F2xx_StdPeriph_Driver/src/stm32f2xx_can.c ****     }
1344:../STM32F2xx_StdPeriph_Driver/src/stm32f2xx_can.c ****     else
1345:../STM32F2xx_StdPeriph_Driver/src/stm32f2xx_can.c ****     { 
1346:../STM32F2xx_StdPeriph_Driver/src/stm32f2xx_can.c ****       /* CAN_FLAG is reset */
1347:../STM32F2xx_StdPeriph_Driver/src/stm32f2xx_can.c ****       bitstatus = RESET;
 2271              		.loc 1 1347 0
 2272 0e18 4FF00003 		mov	r3, #0
 2273 0e1c FB73     		strb	r3, [r7, #15]
 2274 0e1e 59E0     		b	.L119
 2275              	.L117:
1348:../STM32F2xx_StdPeriph_Driver/src/stm32f2xx_can.c ****     }
1349:../STM32F2xx_StdPeriph_Driver/src/stm32f2xx_can.c ****   }
1350:../STM32F2xx_StdPeriph_Driver/src/stm32f2xx_can.c ****   else if((CAN_FLAG & CAN_FLAGS_MSR) != (uint32_t)RESET)
 2276              		.loc 1 1350 0
 2277 0e20 3B68     		ldr	r3, [r7, #0]
 2278 0e22 03F08073 		and	r3, r3, #16777216
 2279 0e26 002B     		cmp	r3, #0
 2280 0e28 12D0     		beq	.L120
1351:../STM32F2xx_StdPeriph_Driver/src/stm32f2xx_can.c ****   { 
1352:../STM32F2xx_StdPeriph_Driver/src/stm32f2xx_can.c ****     /* Check the status of the specified CAN flag */
1353:../STM32F2xx_StdPeriph_Driver/src/stm32f2xx_can.c ****     if ((CANx->MSR & (CAN_FLAG & 0x000FFFFF)) != (uint32_t)RESET)
 2281              		.loc 1 1353 0
 2282 0e2a 7B68     		ldr	r3, [r7, #4]
 2283 0e2c 5B68     		ldr	r3, [r3, #4]
 2284 0e2e 1A46     		mov	r2, r3
 2285 0e30 3B68     		ldr	r3, [r7, #0]
 2286 0e32 1340     		ands	r3, r3, r2
 2287 0e34 23F07F43 		bic	r3, r3, #-16777216
 2288 0e38 23F47003 		bic	r3, r3, #15728640
 2289 0e3c 002B     		cmp	r3, #0
 2290 0e3e 03D0     		beq	.L121
1354:../STM32F2xx_StdPeriph_Driver/src/stm32f2xx_can.c ****     { 
1355:../STM32F2xx_StdPeriph_Driver/src/stm32f2xx_can.c ****       /* CAN_FLAG is set */
1356:../STM32F2xx_StdPeriph_Driver/src/stm32f2xx_can.c ****       bitstatus = SET;
 2291              		.loc 1 1356 0
 2292 0e40 4FF00103 		mov	r3, #1
 2293 0e44 FB73     		strb	r3, [r7, #15]
 2294 0e46 45E0     		b	.L119
 2295              	.L121:
1357:../STM32F2xx_StdPeriph_Driver/src/stm32f2xx_can.c ****     }
1358:../STM32F2xx_StdPeriph_Driver/src/stm32f2xx_can.c ****     else
1359:../STM32F2xx_StdPeriph_Driver/src/stm32f2xx_can.c ****     { 
1360:../STM32F2xx_StdPeriph_Driver/src/stm32f2xx_can.c ****       /* CAN_FLAG is reset */
1361:../STM32F2xx_StdPeriph_Driver/src/stm32f2xx_can.c ****       bitstatus = RESET;
 2296              		.loc 1 1361 0
 2297 0e48 4FF00003 		mov	r3, #0
 2298 0e4c FB73     		strb	r3, [r7, #15]
 2299 0e4e 41E0     		b	.L119
 2300              	.L120:
1362:../STM32F2xx_StdPeriph_Driver/src/stm32f2xx_can.c ****     }
1363:../STM32F2xx_StdPeriph_Driver/src/stm32f2xx_can.c ****   }
1364:../STM32F2xx_StdPeriph_Driver/src/stm32f2xx_can.c ****   else if((CAN_FLAG & CAN_FLAGS_TSR) != (uint32_t)RESET)
 2301              		.loc 1 1364 0
 2302 0e50 3B68     		ldr	r3, [r7, #0]
 2303 0e52 03F00063 		and	r3, r3, #134217728
 2304 0e56 002B     		cmp	r3, #0
 2305 0e58 12D0     		beq	.L122
1365:../STM32F2xx_StdPeriph_Driver/src/stm32f2xx_can.c ****   { 
1366:../STM32F2xx_StdPeriph_Driver/src/stm32f2xx_can.c ****     /* Check the status of the specified CAN flag */
1367:../STM32F2xx_StdPeriph_Driver/src/stm32f2xx_can.c ****     if ((CANx->TSR & (CAN_FLAG & 0x000FFFFF)) != (uint32_t)RESET)
 2306              		.loc 1 1367 0
 2307 0e5a 7B68     		ldr	r3, [r7, #4]
 2308 0e5c 9B68     		ldr	r3, [r3, #8]
 2309 0e5e 1A46     		mov	r2, r3
 2310 0e60 3B68     		ldr	r3, [r7, #0]
 2311 0e62 1340     		ands	r3, r3, r2
 2312 0e64 23F07F43 		bic	r3, r3, #-16777216
 2313 0e68 23F47003 		bic	r3, r3, #15728640
 2314 0e6c 002B     		cmp	r3, #0
 2315 0e6e 03D0     		beq	.L123
1368:../STM32F2xx_StdPeriph_Driver/src/stm32f2xx_can.c ****     { 
1369:../STM32F2xx_StdPeriph_Driver/src/stm32f2xx_can.c ****       /* CAN_FLAG is set */
1370:../STM32F2xx_StdPeriph_Driver/src/stm32f2xx_can.c ****       bitstatus = SET;
 2316              		.loc 1 1370 0
 2317 0e70 4FF00103 		mov	r3, #1
 2318 0e74 FB73     		strb	r3, [r7, #15]
 2319 0e76 2DE0     		b	.L119
 2320              	.L123:
1371:../STM32F2xx_StdPeriph_Driver/src/stm32f2xx_can.c ****     }
1372:../STM32F2xx_StdPeriph_Driver/src/stm32f2xx_can.c ****     else
1373:../STM32F2xx_StdPeriph_Driver/src/stm32f2xx_can.c ****     { 
1374:../STM32F2xx_StdPeriph_Driver/src/stm32f2xx_can.c ****       /* CAN_FLAG is reset */
1375:../STM32F2xx_StdPeriph_Driver/src/stm32f2xx_can.c ****       bitstatus = RESET;
 2321              		.loc 1 1375 0
 2322 0e78 4FF00003 		mov	r3, #0
 2323 0e7c FB73     		strb	r3, [r7, #15]
 2324 0e7e 29E0     		b	.L119
 2325              	.L122:
1376:../STM32F2xx_StdPeriph_Driver/src/stm32f2xx_can.c ****     }
1377:../STM32F2xx_StdPeriph_Driver/src/stm32f2xx_can.c ****   }
1378:../STM32F2xx_StdPeriph_Driver/src/stm32f2xx_can.c ****   else if((CAN_FLAG & CAN_FLAGS_RF0R) != (uint32_t)RESET)
 2326              		.loc 1 1378 0
 2327 0e80 3B68     		ldr	r3, [r7, #0]
 2328 0e82 03F00073 		and	r3, r3, #33554432
 2329 0e86 002B     		cmp	r3, #0
 2330 0e88 12D0     		beq	.L124
1379:../STM32F2xx_StdPeriph_Driver/src/stm32f2xx_can.c ****   { 
1380:../STM32F2xx_StdPeriph_Driver/src/stm32f2xx_can.c ****     /* Check the status of the specified CAN flag */
1381:../STM32F2xx_StdPeriph_Driver/src/stm32f2xx_can.c ****     if ((CANx->RF0R & (CAN_FLAG & 0x000FFFFF)) != (uint32_t)RESET)
 2331              		.loc 1 1381 0
 2332 0e8a 7B68     		ldr	r3, [r7, #4]
 2333 0e8c DB68     		ldr	r3, [r3, #12]
 2334 0e8e 1A46     		mov	r2, r3
 2335 0e90 3B68     		ldr	r3, [r7, #0]
 2336 0e92 1340     		ands	r3, r3, r2
 2337 0e94 23F07F43 		bic	r3, r3, #-16777216
 2338 0e98 23F47003 		bic	r3, r3, #15728640
 2339 0e9c 002B     		cmp	r3, #0
 2340 0e9e 03D0     		beq	.L125
1382:../STM32F2xx_StdPeriph_Driver/src/stm32f2xx_can.c ****     { 
1383:../STM32F2xx_StdPeriph_Driver/src/stm32f2xx_can.c ****       /* CAN_FLAG is set */
1384:../STM32F2xx_StdPeriph_Driver/src/stm32f2xx_can.c ****       bitstatus = SET;
 2341              		.loc 1 1384 0
 2342 0ea0 4FF00103 		mov	r3, #1
 2343 0ea4 FB73     		strb	r3, [r7, #15]
 2344 0ea6 15E0     		b	.L119
 2345              	.L125:
1385:../STM32F2xx_StdPeriph_Driver/src/stm32f2xx_can.c ****     }
1386:../STM32F2xx_StdPeriph_Driver/src/stm32f2xx_can.c ****     else
1387:../STM32F2xx_StdPeriph_Driver/src/stm32f2xx_can.c ****     { 
1388:../STM32F2xx_StdPeriph_Driver/src/stm32f2xx_can.c ****       /* CAN_FLAG is reset */
1389:../STM32F2xx_StdPeriph_Driver/src/stm32f2xx_can.c ****       bitstatus = RESET;
 2346              		.loc 1 1389 0
 2347 0ea8 4FF00003 		mov	r3, #0
 2348 0eac FB73     		strb	r3, [r7, #15]
 2349 0eae 11E0     		b	.L119
 2350              	.L124:
1390:../STM32F2xx_StdPeriph_Driver/src/stm32f2xx_can.c ****     }
1391:../STM32F2xx_StdPeriph_Driver/src/stm32f2xx_can.c ****   }
1392:../STM32F2xx_StdPeriph_Driver/src/stm32f2xx_can.c ****   else /* If(CAN_FLAG & CAN_FLAGS_RF1R != (uint32_t)RESET) */
1393:../STM32F2xx_StdPeriph_Driver/src/stm32f2xx_can.c ****   { 
1394:../STM32F2xx_StdPeriph_Driver/src/stm32f2xx_can.c ****     /* Check the status of the specified CAN flag */
1395:../STM32F2xx_StdPeriph_Driver/src/stm32f2xx_can.c ****     if ((uint32_t)(CANx->RF1R & (CAN_FLAG & 0x000FFFFF)) != (uint32_t)RESET)
 2351              		.loc 1 1395 0
 2352 0eb0 7B68     		ldr	r3, [r7, #4]
 2353 0eb2 1B69     		ldr	r3, [r3, #16]
 2354 0eb4 1A46     		mov	r2, r3
 2355 0eb6 3B68     		ldr	r3, [r7, #0]
 2356 0eb8 1340     		ands	r3, r3, r2
 2357 0eba 23F07F43 		bic	r3, r3, #-16777216
 2358 0ebe 23F47003 		bic	r3, r3, #15728640
 2359 0ec2 002B     		cmp	r3, #0
 2360 0ec4 03D0     		beq	.L126
1396:../STM32F2xx_StdPeriph_Driver/src/stm32f2xx_can.c ****     { 
1397:../STM32F2xx_StdPeriph_Driver/src/stm32f2xx_can.c ****       /* CAN_FLAG is set */
1398:../STM32F2xx_StdPeriph_Driver/src/stm32f2xx_can.c ****       bitstatus = SET;
 2361              		.loc 1 1398 0
 2362 0ec6 4FF00103 		mov	r3, #1
 2363 0eca FB73     		strb	r3, [r7, #15]
 2364 0ecc 02E0     		b	.L119
 2365              	.L126:
1399:../STM32F2xx_StdPeriph_Driver/src/stm32f2xx_can.c ****     }
1400:../STM32F2xx_StdPeriph_Driver/src/stm32f2xx_can.c ****     else
1401:../STM32F2xx_StdPeriph_Driver/src/stm32f2xx_can.c ****     { 
1402:../STM32F2xx_StdPeriph_Driver/src/stm32f2xx_can.c ****       /* CAN_FLAG is reset */
1403:../STM32F2xx_StdPeriph_Driver/src/stm32f2xx_can.c ****       bitstatus = RESET;
 2366              		.loc 1 1403 0
 2367 0ece 4FF00003 		mov	r3, #0
 2368 0ed2 FB73     		strb	r3, [r7, #15]
 2369              	.L119:
1404:../STM32F2xx_StdPeriph_Driver/src/stm32f2xx_can.c ****     }
1405:../STM32F2xx_StdPeriph_Driver/src/stm32f2xx_can.c ****   }
1406:../STM32F2xx_StdPeriph_Driver/src/stm32f2xx_can.c ****   /* Return the CAN_FLAG status */
1407:../STM32F2xx_StdPeriph_Driver/src/stm32f2xx_can.c ****   return  bitstatus;
 2370              		.loc 1 1407 0
 2371 0ed4 FB7B     		ldrb	r3, [r7, #15]	@ zero_extendqisi2
1408:../STM32F2xx_StdPeriph_Driver/src/stm32f2xx_can.c **** }
 2372              		.loc 1 1408 0
 2373 0ed6 1846     		mov	r0, r3
 2374 0ed8 07F11407 		add	r7, r7, #20
 2375 0edc BD46     		mov	sp, r7
 2376 0ede 80BC     		pop	{r7}
 2377 0ee0 7047     		bx	lr
 2378              		.cfi_endproc
 2379              	.LFE49:
 2381 0ee2 00BF     		.align	2
 2382              		.global	CAN_ClearFlag
 2383              		.thumb
 2384              		.thumb_func
 2386              	CAN_ClearFlag:
 2387              	.LFB50:
1409:../STM32F2xx_StdPeriph_Driver/src/stm32f2xx_can.c **** 
1410:../STM32F2xx_StdPeriph_Driver/src/stm32f2xx_can.c **** /**
1411:../STM32F2xx_StdPeriph_Driver/src/stm32f2xx_can.c ****   * @brief  Clears the CAN's pending flags.
1412:../STM32F2xx_StdPeriph_Driver/src/stm32f2xx_can.c ****   * @param  CANx: where x can be 1 or 2 to to select the CAN peripheral.
1413:../STM32F2xx_StdPeriph_Driver/src/stm32f2xx_can.c ****   * @param  CAN_FLAG: specifies the flag to clear.
1414:../STM32F2xx_StdPeriph_Driver/src/stm32f2xx_can.c ****   *          This parameter can be one of the following values:
1415:../STM32F2xx_StdPeriph_Driver/src/stm32f2xx_can.c ****   *            @arg CAN_FLAG_RQCP0: Request MailBox0 Flag
1416:../STM32F2xx_StdPeriph_Driver/src/stm32f2xx_can.c ****   *            @arg CAN_FLAG_RQCP1: Request MailBox1 Flag
1417:../STM32F2xx_StdPeriph_Driver/src/stm32f2xx_can.c ****   *            @arg CAN_FLAG_RQCP2: Request MailBox2 Flag 
1418:../STM32F2xx_StdPeriph_Driver/src/stm32f2xx_can.c ****   *            @arg CAN_FLAG_FF0: FIFO 0 Full Flag       
1419:../STM32F2xx_StdPeriph_Driver/src/stm32f2xx_can.c ****   *            @arg CAN_FLAG_FOV0: FIFO 0 Overrun Flag  
1420:../STM32F2xx_StdPeriph_Driver/src/stm32f2xx_can.c ****   *            @arg CAN_FLAG_FF1: FIFO 1 Full Flag        
1421:../STM32F2xx_StdPeriph_Driver/src/stm32f2xx_can.c ****   *            @arg CAN_FLAG_FOV1: FIFO 1 Overrun Flag     
1422:../STM32F2xx_StdPeriph_Driver/src/stm32f2xx_can.c ****   *            @arg CAN_FLAG_WKU: Wake up Flag
1423:../STM32F2xx_StdPeriph_Driver/src/stm32f2xx_can.c ****   *            @arg CAN_FLAG_SLAK: Sleep acknowledge Flag    
1424:../STM32F2xx_StdPeriph_Driver/src/stm32f2xx_can.c ****   *            @arg CAN_FLAG_LEC: Last error code Flag        
1425:../STM32F2xx_StdPeriph_Driver/src/stm32f2xx_can.c ****   * @retval None
1426:../STM32F2xx_StdPeriph_Driver/src/stm32f2xx_can.c ****   */
1427:../STM32F2xx_StdPeriph_Driver/src/stm32f2xx_can.c **** void CAN_ClearFlag(CAN_TypeDef* CANx, uint32_t CAN_FLAG)
1428:../STM32F2xx_StdPeriph_Driver/src/stm32f2xx_can.c **** {
 2388              		.loc 1 1428 0
 2389              		.cfi_startproc
 2390              		@ args = 0, pretend = 0, frame = 16
 2391              		@ frame_needed = 1, uses_anonymous_args = 0
 2392              		@ link register save eliminated.
 2393 0ee4 80B4     		push	{r7}
 2394              	.LCFI63:
 2395              		.cfi_def_cfa_offset 4
 2396              		.cfi_offset 7, -4
 2397 0ee6 85B0     		sub	sp, sp, #20
 2398              	.LCFI64:
 2399              		.cfi_def_cfa_offset 24
 2400 0ee8 00AF     		add	r7, sp, #0
 2401              	.LCFI65:
 2402              		.cfi_def_cfa_register 7
 2403 0eea 7860     		str	r0, [r7, #4]
 2404 0eec 3960     		str	r1, [r7, #0]
1429:../STM32F2xx_StdPeriph_Driver/src/stm32f2xx_can.c ****   uint32_t flagtmp=0;
 2405              		.loc 1 1429 0
 2406 0eee 4FF00003 		mov	r3, #0
 2407 0ef2 FB60     		str	r3, [r7, #12]
1430:../STM32F2xx_StdPeriph_Driver/src/stm32f2xx_can.c ****   /* Check the parameters */
1431:../STM32F2xx_StdPeriph_Driver/src/stm32f2xx_can.c ****   assert_param(IS_CAN_ALL_PERIPH(CANx));
1432:../STM32F2xx_StdPeriph_Driver/src/stm32f2xx_can.c ****   assert_param(IS_CAN_CLEAR_FLAG(CAN_FLAG));
1433:../STM32F2xx_StdPeriph_Driver/src/stm32f2xx_can.c ****   
1434:../STM32F2xx_StdPeriph_Driver/src/stm32f2xx_can.c ****   if (CAN_FLAG == CAN_FLAG_LEC) /* ESR register */
 2408              		.loc 1 1434 0
 2409 0ef4 3A68     		ldr	r2, [r7, #0]
 2410 0ef6 4FF07003 		mov	r3, #112
 2411 0efa C3F2F003 		movt	r3, 12528
 2412 0efe 9A42     		cmp	r2, r3
 2413 0f00 04D1     		bne	.L128
1435:../STM32F2xx_StdPeriph_Driver/src/stm32f2xx_can.c ****   {
1436:../STM32F2xx_StdPeriph_Driver/src/stm32f2xx_can.c ****     /* Clear the selected CAN flags */
1437:../STM32F2xx_StdPeriph_Driver/src/stm32f2xx_can.c ****     CANx->ESR = (uint32_t)RESET;
 2414              		.loc 1 1437 0
 2415 0f02 7B68     		ldr	r3, [r7, #4]
 2416 0f04 4FF00002 		mov	r2, #0
 2417 0f08 9A61     		str	r2, [r3, #24]
 2418 0f0a 23E0     		b	.L127
 2419              	.L128:
1438:../STM32F2xx_StdPeriph_Driver/src/stm32f2xx_can.c ****   }
1439:../STM32F2xx_StdPeriph_Driver/src/stm32f2xx_can.c ****   else /* MSR or TSR or RF0R or RF1R */
1440:../STM32F2xx_StdPeriph_Driver/src/stm32f2xx_can.c ****   {
1441:../STM32F2xx_StdPeriph_Driver/src/stm32f2xx_can.c ****     flagtmp = CAN_FLAG & 0x000FFFFF;
 2420              		.loc 1 1441 0
 2421 0f0c 3B68     		ldr	r3, [r7, #0]
 2422 0f0e 23F07F43 		bic	r3, r3, #-16777216
 2423 0f12 23F47003 		bic	r3, r3, #15728640
 2424 0f16 FB60     		str	r3, [r7, #12]
1442:../STM32F2xx_StdPeriph_Driver/src/stm32f2xx_can.c **** 
1443:../STM32F2xx_StdPeriph_Driver/src/stm32f2xx_can.c ****     if ((CAN_FLAG & CAN_FLAGS_RF0R)!=(uint32_t)RESET)
 2425              		.loc 1 1443 0
 2426 0f18 3B68     		ldr	r3, [r7, #0]
 2427 0f1a 03F00073 		and	r3, r3, #33554432
 2428 0f1e 002B     		cmp	r3, #0
 2429 0f20 03D0     		beq	.L130
1444:../STM32F2xx_StdPeriph_Driver/src/stm32f2xx_can.c ****     {
1445:../STM32F2xx_StdPeriph_Driver/src/stm32f2xx_can.c ****       /* Receive Flags */
1446:../STM32F2xx_StdPeriph_Driver/src/stm32f2xx_can.c ****       CANx->RF0R = (uint32_t)(flagtmp);
 2430              		.loc 1 1446 0
 2431 0f22 7B68     		ldr	r3, [r7, #4]
 2432 0f24 FA68     		ldr	r2, [r7, #12]
 2433 0f26 DA60     		str	r2, [r3, #12]
 2434 0f28 14E0     		b	.L127
 2435              	.L130:
1447:../STM32F2xx_StdPeriph_Driver/src/stm32f2xx_can.c ****     }
1448:../STM32F2xx_StdPeriph_Driver/src/stm32f2xx_can.c ****     else if ((CAN_FLAG & CAN_FLAGS_RF1R)!=(uint32_t)RESET)
 2436              		.loc 1 1448 0
 2437 0f2a 3B68     		ldr	r3, [r7, #0]
 2438 0f2c 03F08063 		and	r3, r3, #67108864
 2439 0f30 002B     		cmp	r3, #0
 2440 0f32 03D0     		beq	.L131
1449:../STM32F2xx_StdPeriph_Driver/src/stm32f2xx_can.c ****     {
1450:../STM32F2xx_StdPeriph_Driver/src/stm32f2xx_can.c ****       /* Receive Flags */
1451:../STM32F2xx_StdPeriph_Driver/src/stm32f2xx_can.c ****       CANx->RF1R = (uint32_t)(flagtmp);
 2441              		.loc 1 1451 0
 2442 0f34 7B68     		ldr	r3, [r7, #4]
 2443 0f36 FA68     		ldr	r2, [r7, #12]
 2444 0f38 1A61     		str	r2, [r3, #16]
 2445 0f3a 0BE0     		b	.L127
 2446              	.L131:
1452:../STM32F2xx_StdPeriph_Driver/src/stm32f2xx_can.c ****     }
1453:../STM32F2xx_StdPeriph_Driver/src/stm32f2xx_can.c ****     else if ((CAN_FLAG & CAN_FLAGS_TSR)!=(uint32_t)RESET)
 2447              		.loc 1 1453 0
 2448 0f3c 3B68     		ldr	r3, [r7, #0]
 2449 0f3e 03F00063 		and	r3, r3, #134217728
 2450 0f42 002B     		cmp	r3, #0
 2451 0f44 03D0     		beq	.L132
1454:../STM32F2xx_StdPeriph_Driver/src/stm32f2xx_can.c ****     {
1455:../STM32F2xx_StdPeriph_Driver/src/stm32f2xx_can.c ****       /* Transmit Flags */
1456:../STM32F2xx_StdPeriph_Driver/src/stm32f2xx_can.c ****       CANx->TSR = (uint32_t)(flagtmp);
 2452              		.loc 1 1456 0
 2453 0f46 7B68     		ldr	r3, [r7, #4]
 2454 0f48 FA68     		ldr	r2, [r7, #12]
 2455 0f4a 9A60     		str	r2, [r3, #8]
 2456 0f4c 02E0     		b	.L127
 2457              	.L132:
1457:../STM32F2xx_StdPeriph_Driver/src/stm32f2xx_can.c ****     }
1458:../STM32F2xx_StdPeriph_Driver/src/stm32f2xx_can.c ****     else /* If((CAN_FLAG & CAN_FLAGS_MSR)!=(uint32_t)RESET) */
1459:../STM32F2xx_StdPeriph_Driver/src/stm32f2xx_can.c ****     {
1460:../STM32F2xx_StdPeriph_Driver/src/stm32f2xx_can.c ****       /* Operating mode Flags */
1461:../STM32F2xx_StdPeriph_Driver/src/stm32f2xx_can.c ****       CANx->MSR = (uint32_t)(flagtmp);
 2458              		.loc 1 1461 0
 2459 0f4e 7B68     		ldr	r3, [r7, #4]
 2460 0f50 FA68     		ldr	r2, [r7, #12]
 2461 0f52 5A60     		str	r2, [r3, #4]
 2462              	.L127:
1462:../STM32F2xx_StdPeriph_Driver/src/stm32f2xx_can.c ****     }
1463:../STM32F2xx_StdPeriph_Driver/src/stm32f2xx_can.c ****   }
1464:../STM32F2xx_StdPeriph_Driver/src/stm32f2xx_can.c **** }
 2463              		.loc 1 1464 0
 2464 0f54 07F11407 		add	r7, r7, #20
 2465 0f58 BD46     		mov	sp, r7
 2466 0f5a 80BC     		pop	{r7}
 2467 0f5c 7047     		bx	lr
 2468              		.cfi_endproc
 2469              	.LFE50:
 2471 0f5e 00BF     		.align	2
 2472              		.global	CAN_GetITStatus
 2473              		.thumb
 2474              		.thumb_func
 2476              	CAN_GetITStatus:
 2477              	.LFB51:
1465:../STM32F2xx_StdPeriph_Driver/src/stm32f2xx_can.c **** 
1466:../STM32F2xx_StdPeriph_Driver/src/stm32f2xx_can.c **** /**
1467:../STM32F2xx_StdPeriph_Driver/src/stm32f2xx_can.c ****   * @brief  Checks whether the specified CANx interrupt has occurred or not.
1468:../STM32F2xx_StdPeriph_Driver/src/stm32f2xx_can.c ****   * @param  CANx: where x can be 1 or 2 to to select the CAN peripheral.
1469:../STM32F2xx_StdPeriph_Driver/src/stm32f2xx_can.c ****   * @param  CAN_IT: specifies the CAN interrupt source to check.
1470:../STM32F2xx_StdPeriph_Driver/src/stm32f2xx_can.c ****   *          This parameter can be one of the following values:
1471:../STM32F2xx_StdPeriph_Driver/src/stm32f2xx_can.c ****   *            @arg CAN_IT_TME: Transmit mailbox empty Interrupt 
1472:../STM32F2xx_StdPeriph_Driver/src/stm32f2xx_can.c ****   *            @arg CAN_IT_FMP0: FIFO 0 message pending Interrupt 
1473:../STM32F2xx_StdPeriph_Driver/src/stm32f2xx_can.c ****   *            @arg CAN_IT_FF0: FIFO 0 full Interrupt
1474:../STM32F2xx_StdPeriph_Driver/src/stm32f2xx_can.c ****   *            @arg CAN_IT_FOV0: FIFO 0 overrun Interrupt
1475:../STM32F2xx_StdPeriph_Driver/src/stm32f2xx_can.c ****   *            @arg CAN_IT_FMP1: FIFO 1 message pending Interrupt 
1476:../STM32F2xx_StdPeriph_Driver/src/stm32f2xx_can.c ****   *            @arg CAN_IT_FF1: FIFO 1 full Interrupt
1477:../STM32F2xx_StdPeriph_Driver/src/stm32f2xx_can.c ****   *            @arg CAN_IT_FOV1: FIFO 1 overrun Interrupt
1478:../STM32F2xx_StdPeriph_Driver/src/stm32f2xx_can.c ****   *            @arg CAN_IT_WKU: Wake-up Interrupt
1479:../STM32F2xx_StdPeriph_Driver/src/stm32f2xx_can.c ****   *            @arg CAN_IT_SLK: Sleep acknowledge Interrupt  
1480:../STM32F2xx_StdPeriph_Driver/src/stm32f2xx_can.c ****   *            @arg CAN_IT_EWG: Error warning Interrupt
1481:../STM32F2xx_StdPeriph_Driver/src/stm32f2xx_can.c ****   *            @arg CAN_IT_EPV: Error passive Interrupt
1482:../STM32F2xx_StdPeriph_Driver/src/stm32f2xx_can.c ****   *            @arg CAN_IT_BOF: Bus-off Interrupt  
1483:../STM32F2xx_StdPeriph_Driver/src/stm32f2xx_can.c ****   *            @arg CAN_IT_LEC: Last error code Interrupt
1484:../STM32F2xx_StdPeriph_Driver/src/stm32f2xx_can.c ****   *            @arg CAN_IT_ERR: Error Interrupt
1485:../STM32F2xx_StdPeriph_Driver/src/stm32f2xx_can.c ****   * @retval The current state of CAN_IT (SET or RESET).
1486:../STM32F2xx_StdPeriph_Driver/src/stm32f2xx_can.c ****   */
1487:../STM32F2xx_StdPeriph_Driver/src/stm32f2xx_can.c **** ITStatus CAN_GetITStatus(CAN_TypeDef* CANx, uint32_t CAN_IT)
1488:../STM32F2xx_StdPeriph_Driver/src/stm32f2xx_can.c **** {
 2478              		.loc 1 1488 0
 2479              		.cfi_startproc
 2480              		@ args = 0, pretend = 0, frame = 16
 2481              		@ frame_needed = 1, uses_anonymous_args = 0
 2482 0f60 80B5     		push	{r7, lr}
 2483              	.LCFI66:
 2484              		.cfi_def_cfa_offset 8
 2485              		.cfi_offset 14, -4
 2486              		.cfi_offset 7, -8
 2487 0f62 84B0     		sub	sp, sp, #16
 2488              	.LCFI67:
 2489              		.cfi_def_cfa_offset 24
 2490 0f64 00AF     		add	r7, sp, #0
 2491              	.LCFI68:
 2492              		.cfi_def_cfa_register 7
 2493 0f66 7860     		str	r0, [r7, #4]
 2494 0f68 3960     		str	r1, [r7, #0]
1489:../STM32F2xx_StdPeriph_Driver/src/stm32f2xx_can.c ****   ITStatus itstatus = RESET;
 2495              		.loc 1 1489 0
 2496 0f6a 4FF00003 		mov	r3, #0
 2497 0f6e FB73     		strb	r3, [r7, #15]
1490:../STM32F2xx_StdPeriph_Driver/src/stm32f2xx_can.c ****   /* Check the parameters */
1491:../STM32F2xx_StdPeriph_Driver/src/stm32f2xx_can.c ****   assert_param(IS_CAN_ALL_PERIPH(CANx));
1492:../STM32F2xx_StdPeriph_Driver/src/stm32f2xx_can.c ****   assert_param(IS_CAN_IT(CAN_IT));
1493:../STM32F2xx_StdPeriph_Driver/src/stm32f2xx_can.c ****   
1494:../STM32F2xx_StdPeriph_Driver/src/stm32f2xx_can.c ****   /* check the interrupt enable bit */
1495:../STM32F2xx_StdPeriph_Driver/src/stm32f2xx_can.c ****  if((CANx->IER & CAN_IT) != RESET)
 2498              		.loc 1 1495 0
 2499 0f70 7B68     		ldr	r3, [r7, #4]
 2500 0f72 5B69     		ldr	r3, [r3, #20]
 2501 0f74 1A46     		mov	r2, r3
 2502 0f76 3B68     		ldr	r3, [r7, #0]
 2503 0f78 1340     		ands	r3, r3, r2
 2504 0f7a 002B     		cmp	r3, #0
 2505 0f7c 00F0C480 		beq	.L134
1496:../STM32F2xx_StdPeriph_Driver/src/stm32f2xx_can.c ****  {
1497:../STM32F2xx_StdPeriph_Driver/src/stm32f2xx_can.c ****    /* in case the Interrupt is enabled, .... */
1498:../STM32F2xx_StdPeriph_Driver/src/stm32f2xx_can.c ****     switch (CAN_IT)
 2506              		.loc 1 1498 0
 2507 0f80 3B68     		ldr	r3, [r7, #0]
 2508 0f82 402B     		cmp	r3, #64
 2509 0f84 6BD0     		beq	.L142
 2510 0f86 402B     		cmp	r3, #64
 2511 0f88 0FD8     		bhi	.L150
 2512 0f8a 042B     		cmp	r3, #4
 2513 0f8c 3FD0     		beq	.L138
 2514 0f8e 042B     		cmp	r3, #4
 2515 0f90 04D8     		bhi	.L151
 2516 0f92 012B     		cmp	r3, #1
 2517 0f94 25D0     		beq	.L136
 2518 0f96 022B     		cmp	r3, #2
 2519 0f98 2FD0     		beq	.L137
 2520 0f9a B1E0     		b	.L135
 2521              	.L151:
 2522 0f9c 102B     		cmp	r3, #16
 2523 0f9e 4AD0     		beq	.L140
 2524 0fa0 202B     		cmp	r3, #32
 2525 0fa2 52D0     		beq	.L141
 2526 0fa4 082B     		cmp	r3, #8
 2527 0fa6 3CD0     		beq	.L139
 2528 0fa8 AAE0     		b	.L135
 2529              	.L150:
 2530 0faa B3F5006F 		cmp	r3, #2048
 2531 0fae 00F09280 		beq	.L146
 2532 0fb2 B3F5006F 		cmp	r3, #2048
 2533 0fb6 09D8     		bhi	.L152
 2534 0fb8 B3F5007F 		cmp	r3, #512
 2535 0fbc 77D0     		beq	.L144
 2536 0fbe B3F5806F 		cmp	r3, #1024
 2537 0fc2 7ED0     		beq	.L145
 2538 0fc4 B3F5807F 		cmp	r3, #256
 2539 0fc8 67D0     		beq	.L143
 2540 0fca 99E0     		b	.L135
 2541              	.L152:
 2542 0fcc B3F5803F 		cmp	r3, #65536
 2543 0fd0 4FD0     		beq	.L148
 2544 0fd2 B3F5003F 		cmp	r3, #131072
 2545 0fd6 56D0     		beq	.L149
 2546 0fd8 B3F5004F 		cmp	r3, #32768
 2547 0fdc 00F08580 		beq	.L147
 2548 0fe0 8EE0     		b	.L135
 2549              	.L136:
1499:../STM32F2xx_StdPeriph_Driver/src/stm32f2xx_can.c ****     {
1500:../STM32F2xx_StdPeriph_Driver/src/stm32f2xx_can.c ****       case CAN_IT_TME:
1501:../STM32F2xx_StdPeriph_Driver/src/stm32f2xx_can.c ****         /* Check CAN_TSR_RQCPx bits */
1502:../STM32F2xx_StdPeriph_Driver/src/stm32f2xx_can.c ****         itstatus = CheckITStatus(CANx->TSR, CAN_TSR_RQCP0|CAN_TSR_RQCP1|CAN_TSR_RQCP2);  
 2550              		.loc 1 1502 0
 2551 0fe2 7B68     		ldr	r3, [r7, #4]
 2552 0fe4 9B68     		ldr	r3, [r3, #8]
 2553 0fe6 1846     		mov	r0, r3
 2554 0fe8 40F20111 		movw	r1, #257
 2555 0fec C0F20101 		movt	r1, 1
 2556 0ff0 00F012F9 		bl	CheckITStatus
 2557 0ff4 0346     		mov	r3, r0
 2558 0ff6 FB73     		strb	r3, [r7, #15]
1503:../STM32F2xx_StdPeriph_Driver/src/stm32f2xx_can.c ****         break;
 2559              		.loc 1 1503 0
 2560 0ff8 89E0     		b	.L154
 2561              	.L137:
1504:../STM32F2xx_StdPeriph_Driver/src/stm32f2xx_can.c ****       case CAN_IT_FMP0:
1505:../STM32F2xx_StdPeriph_Driver/src/stm32f2xx_can.c ****         /* Check CAN_RF0R_FMP0 bit */
1506:../STM32F2xx_StdPeriph_Driver/src/stm32f2xx_can.c ****         itstatus = CheckITStatus(CANx->RF0R, CAN_RF0R_FMP0);  
 2562              		.loc 1 1506 0
 2563 0ffa 7B68     		ldr	r3, [r7, #4]
 2564 0ffc DB68     		ldr	r3, [r3, #12]
 2565 0ffe 1846     		mov	r0, r3
 2566 1000 4FF00301 		mov	r1, #3
 2567 1004 00F008F9 		bl	CheckITStatus
 2568 1008 0346     		mov	r3, r0
 2569 100a FB73     		strb	r3, [r7, #15]
1507:../STM32F2xx_StdPeriph_Driver/src/stm32f2xx_can.c ****         break;
 2570              		.loc 1 1507 0
 2571 100c 7FE0     		b	.L154
 2572              	.L138:
1508:../STM32F2xx_StdPeriph_Driver/src/stm32f2xx_can.c ****       case CAN_IT_FF0:
1509:../STM32F2xx_StdPeriph_Driver/src/stm32f2xx_can.c ****         /* Check CAN_RF0R_FULL0 bit */
1510:../STM32F2xx_StdPeriph_Driver/src/stm32f2xx_can.c ****         itstatus = CheckITStatus(CANx->RF0R, CAN_RF0R_FULL0);  
 2573              		.loc 1 1510 0
 2574 100e 7B68     		ldr	r3, [r7, #4]
 2575 1010 DB68     		ldr	r3, [r3, #12]
 2576 1012 1846     		mov	r0, r3
 2577 1014 4FF00801 		mov	r1, #8
 2578 1018 00F0FEF8 		bl	CheckITStatus
 2579 101c 0346     		mov	r3, r0
 2580 101e FB73     		strb	r3, [r7, #15]
1511:../STM32F2xx_StdPeriph_Driver/src/stm32f2xx_can.c ****         break;
 2581              		.loc 1 1511 0
 2582 1020 75E0     		b	.L154
 2583              	.L139:
1512:../STM32F2xx_StdPeriph_Driver/src/stm32f2xx_can.c ****       case CAN_IT_FOV0:
1513:../STM32F2xx_StdPeriph_Driver/src/stm32f2xx_can.c ****         /* Check CAN_RF0R_FOVR0 bit */
1514:../STM32F2xx_StdPeriph_Driver/src/stm32f2xx_can.c ****         itstatus = CheckITStatus(CANx->RF0R, CAN_RF0R_FOVR0);  
 2584              		.loc 1 1514 0
 2585 1022 7B68     		ldr	r3, [r7, #4]
 2586 1024 DB68     		ldr	r3, [r3, #12]
 2587 1026 1846     		mov	r0, r3
 2588 1028 4FF01001 		mov	r1, #16
 2589 102c 00F0F4F8 		bl	CheckITStatus
 2590 1030 0346     		mov	r3, r0
 2591 1032 FB73     		strb	r3, [r7, #15]
1515:../STM32F2xx_StdPeriph_Driver/src/stm32f2xx_can.c ****         break;
 2592              		.loc 1 1515 0
 2593 1034 6BE0     		b	.L154
 2594              	.L140:
1516:../STM32F2xx_StdPeriph_Driver/src/stm32f2xx_can.c ****       case CAN_IT_FMP1:
1517:../STM32F2xx_StdPeriph_Driver/src/stm32f2xx_can.c ****         /* Check CAN_RF1R_FMP1 bit */
1518:../STM32F2xx_StdPeriph_Driver/src/stm32f2xx_can.c ****         itstatus = CheckITStatus(CANx->RF1R, CAN_RF1R_FMP1);  
 2595              		.loc 1 1518 0
 2596 1036 7B68     		ldr	r3, [r7, #4]
 2597 1038 1B69     		ldr	r3, [r3, #16]
 2598 103a 1846     		mov	r0, r3
 2599 103c 4FF00301 		mov	r1, #3
 2600 1040 00F0EAF8 		bl	CheckITStatus
 2601 1044 0346     		mov	r3, r0
 2602 1046 FB73     		strb	r3, [r7, #15]
1519:../STM32F2xx_StdPeriph_Driver/src/stm32f2xx_can.c ****         break;
 2603              		.loc 1 1519 0
 2604 1048 61E0     		b	.L154
 2605              	.L141:
1520:../STM32F2xx_StdPeriph_Driver/src/stm32f2xx_can.c ****       case CAN_IT_FF1:
1521:../STM32F2xx_StdPeriph_Driver/src/stm32f2xx_can.c ****         /* Check CAN_RF1R_FULL1 bit */
1522:../STM32F2xx_StdPeriph_Driver/src/stm32f2xx_can.c ****         itstatus = CheckITStatus(CANx->RF1R, CAN_RF1R_FULL1);  
 2606              		.loc 1 1522 0
 2607 104a 7B68     		ldr	r3, [r7, #4]
 2608 104c 1B69     		ldr	r3, [r3, #16]
 2609 104e 1846     		mov	r0, r3
 2610 1050 4FF00801 		mov	r1, #8
 2611 1054 00F0E0F8 		bl	CheckITStatus
 2612 1058 0346     		mov	r3, r0
 2613 105a FB73     		strb	r3, [r7, #15]
1523:../STM32F2xx_StdPeriph_Driver/src/stm32f2xx_can.c ****         break;
 2614              		.loc 1 1523 0
 2615 105c 57E0     		b	.L154
 2616              	.L142:
1524:../STM32F2xx_StdPeriph_Driver/src/stm32f2xx_can.c ****       case CAN_IT_FOV1:
1525:../STM32F2xx_StdPeriph_Driver/src/stm32f2xx_can.c ****         /* Check CAN_RF1R_FOVR1 bit */
1526:../STM32F2xx_StdPeriph_Driver/src/stm32f2xx_can.c ****         itstatus = CheckITStatus(CANx->RF1R, CAN_RF1R_FOVR1);  
 2617              		.loc 1 1526 0
 2618 105e 7B68     		ldr	r3, [r7, #4]
 2619 1060 1B69     		ldr	r3, [r3, #16]
 2620 1062 1846     		mov	r0, r3
 2621 1064 4FF01001 		mov	r1, #16
 2622 1068 00F0D6F8 		bl	CheckITStatus
 2623 106c 0346     		mov	r3, r0
 2624 106e FB73     		strb	r3, [r7, #15]
1527:../STM32F2xx_StdPeriph_Driver/src/stm32f2xx_can.c ****         break;
 2625              		.loc 1 1527 0
 2626 1070 4DE0     		b	.L154
 2627              	.L148:
1528:../STM32F2xx_StdPeriph_Driver/src/stm32f2xx_can.c ****       case CAN_IT_WKU:
1529:../STM32F2xx_StdPeriph_Driver/src/stm32f2xx_can.c ****         /* Check CAN_MSR_WKUI bit */
1530:../STM32F2xx_StdPeriph_Driver/src/stm32f2xx_can.c ****         itstatus = CheckITStatus(CANx->MSR, CAN_MSR_WKUI);  
 2628              		.loc 1 1530 0
 2629 1072 7B68     		ldr	r3, [r7, #4]
 2630 1074 5B68     		ldr	r3, [r3, #4]
 2631 1076 1846     		mov	r0, r3
 2632 1078 4FF00801 		mov	r1, #8
 2633 107c 00F0CCF8 		bl	CheckITStatus
 2634 1080 0346     		mov	r3, r0
 2635 1082 FB73     		strb	r3, [r7, #15]
1531:../STM32F2xx_StdPeriph_Driver/src/stm32f2xx_can.c ****         break;
 2636              		.loc 1 1531 0
 2637 1084 43E0     		b	.L154
 2638              	.L149:
1532:../STM32F2xx_StdPeriph_Driver/src/stm32f2xx_can.c ****       case CAN_IT_SLK:
1533:../STM32F2xx_StdPeriph_Driver/src/stm32f2xx_can.c ****         /* Check CAN_MSR_SLAKI bit */
1534:../STM32F2xx_StdPeriph_Driver/src/stm32f2xx_can.c ****         itstatus = CheckITStatus(CANx->MSR, CAN_MSR_SLAKI);  
 2639              		.loc 1 1534 0
 2640 1086 7B68     		ldr	r3, [r7, #4]
 2641 1088 5B68     		ldr	r3, [r3, #4]
 2642 108a 1846     		mov	r0, r3
 2643 108c 4FF01001 		mov	r1, #16
 2644 1090 00F0C2F8 		bl	CheckITStatus
 2645 1094 0346     		mov	r3, r0
 2646 1096 FB73     		strb	r3, [r7, #15]
1535:../STM32F2xx_StdPeriph_Driver/src/stm32f2xx_can.c ****         break;
 2647              		.loc 1 1535 0
 2648 1098 39E0     		b	.L154
 2649              	.L143:
1536:../STM32F2xx_StdPeriph_Driver/src/stm32f2xx_can.c ****       case CAN_IT_EWG:
1537:../STM32F2xx_StdPeriph_Driver/src/stm32f2xx_can.c ****         /* Check CAN_ESR_EWGF bit */
1538:../STM32F2xx_StdPeriph_Driver/src/stm32f2xx_can.c ****         itstatus = CheckITStatus(CANx->ESR, CAN_ESR_EWGF);  
 2650              		.loc 1 1538 0
 2651 109a 7B68     		ldr	r3, [r7, #4]
 2652 109c 9B69     		ldr	r3, [r3, #24]
 2653 109e 1846     		mov	r0, r3
 2654 10a0 4FF00101 		mov	r1, #1
 2655 10a4 00F0B8F8 		bl	CheckITStatus
 2656 10a8 0346     		mov	r3, r0
 2657 10aa FB73     		strb	r3, [r7, #15]
1539:../STM32F2xx_StdPeriph_Driver/src/stm32f2xx_can.c ****         break;
 2658              		.loc 1 1539 0
 2659 10ac 2FE0     		b	.L154
 2660              	.L144:
1540:../STM32F2xx_StdPeriph_Driver/src/stm32f2xx_can.c ****       case CAN_IT_EPV:
1541:../STM32F2xx_StdPeriph_Driver/src/stm32f2xx_can.c ****         /* Check CAN_ESR_EPVF bit */
1542:../STM32F2xx_StdPeriph_Driver/src/stm32f2xx_can.c ****         itstatus = CheckITStatus(CANx->ESR, CAN_ESR_EPVF);  
 2661              		.loc 1 1542 0
 2662 10ae 7B68     		ldr	r3, [r7, #4]
 2663 10b0 9B69     		ldr	r3, [r3, #24]
 2664 10b2 1846     		mov	r0, r3
 2665 10b4 4FF00201 		mov	r1, #2
 2666 10b8 00F0AEF8 		bl	CheckITStatus
 2667 10bc 0346     		mov	r3, r0
 2668 10be FB73     		strb	r3, [r7, #15]
1543:../STM32F2xx_StdPeriph_Driver/src/stm32f2xx_can.c ****         break;
 2669              		.loc 1 1543 0
 2670 10c0 25E0     		b	.L154
 2671              	.L145:
1544:../STM32F2xx_StdPeriph_Driver/src/stm32f2xx_can.c ****       case CAN_IT_BOF:
1545:../STM32F2xx_StdPeriph_Driver/src/stm32f2xx_can.c ****         /* Check CAN_ESR_BOFF bit */
1546:../STM32F2xx_StdPeriph_Driver/src/stm32f2xx_can.c ****         itstatus = CheckITStatus(CANx->ESR, CAN_ESR_BOFF);  
 2672              		.loc 1 1546 0
 2673 10c2 7B68     		ldr	r3, [r7, #4]
 2674 10c4 9B69     		ldr	r3, [r3, #24]
 2675 10c6 1846     		mov	r0, r3
 2676 10c8 4FF00401 		mov	r1, #4
 2677 10cc 00F0A4F8 		bl	CheckITStatus
 2678 10d0 0346     		mov	r3, r0
 2679 10d2 FB73     		strb	r3, [r7, #15]
1547:../STM32F2xx_StdPeriph_Driver/src/stm32f2xx_can.c ****         break;
 2680              		.loc 1 1547 0
 2681 10d4 1BE0     		b	.L154
 2682              	.L146:
1548:../STM32F2xx_StdPeriph_Driver/src/stm32f2xx_can.c ****       case CAN_IT_LEC:
1549:../STM32F2xx_StdPeriph_Driver/src/stm32f2xx_can.c ****         /* Check CAN_ESR_LEC bit */
1550:../STM32F2xx_StdPeriph_Driver/src/stm32f2xx_can.c ****         itstatus = CheckITStatus(CANx->ESR, CAN_ESR_LEC);  
 2683              		.loc 1 1550 0
 2684 10d6 7B68     		ldr	r3, [r7, #4]
 2685 10d8 9B69     		ldr	r3, [r3, #24]
 2686 10da 1846     		mov	r0, r3
 2687 10dc 4FF07001 		mov	r1, #112
 2688 10e0 00F09AF8 		bl	CheckITStatus
 2689 10e4 0346     		mov	r3, r0
 2690 10e6 FB73     		strb	r3, [r7, #15]
1551:../STM32F2xx_StdPeriph_Driver/src/stm32f2xx_can.c ****         break;
 2691              		.loc 1 1551 0
 2692 10e8 11E0     		b	.L154
 2693              	.L147:
1552:../STM32F2xx_StdPeriph_Driver/src/stm32f2xx_can.c ****       case CAN_IT_ERR:
1553:../STM32F2xx_StdPeriph_Driver/src/stm32f2xx_can.c ****         /* Check CAN_MSR_ERRI bit */ 
1554:../STM32F2xx_StdPeriph_Driver/src/stm32f2xx_can.c ****         itstatus = CheckITStatus(CANx->MSR, CAN_MSR_ERRI); 
 2694              		.loc 1 1554 0
 2695 10ea 7B68     		ldr	r3, [r7, #4]
 2696 10ec 5B68     		ldr	r3, [r3, #4]
 2697 10ee 1846     		mov	r0, r3
 2698 10f0 4FF00401 		mov	r1, #4
 2699 10f4 00F090F8 		bl	CheckITStatus
 2700 10f8 0346     		mov	r3, r0
 2701 10fa FB73     		strb	r3, [r7, #15]
1555:../STM32F2xx_StdPeriph_Driver/src/stm32f2xx_can.c ****         break;
 2702              		.loc 1 1555 0
 2703 10fc 00BF     		nop
 2704 10fe 06E0     		b	.L154
 2705              	.L135:
